ARM GAS  C:\Users\Daniela\AppData\Local\Temp\ccANEOnK.s 			page 1


   1              		.syntax unified
   2              		.cpu cortex-m0
   3              		.fpu softvfp
   4              		.eabi_attribute 20, 1
   5              		.eabi_attribute 21, 1
   6              		.eabi_attribute 23, 3
   7              		.eabi_attribute 24, 1
   8              		.eabi_attribute 25, 1
   9              		.eabi_attribute 26, 1
  10              		.eabi_attribute 30, 6
  11              		.eabi_attribute 34, 0
  12              		.eabi_attribute 18, 4
  13              		.thumb
  14              		.syntax unified
  15              		.file	"main.c"
  16              		.text
  17              	.Ltext0:
  18              		.cfi_sections	.debug_frame
  19              		.comm	bleApiResult,2,2
  20              		.bss
  21              	peerDeviceFound:
  22 0000 00       		.space	1
  23              	notificationEnabled:
  24 0001 00       		.space	1
  25              		.comm	attrHandleRange,4,4
  26              		.comm	charDescHandleRange,4,4
  27              		.global	txCharHandle
  28              		.align	1
  29              		.type	txCharHandle, %object
  30              		.size	txCharHandle, 2
  31              	txCharHandle:
  32 0002 0000     		.space	2
  33              		.global	rxCharHandle
  34              		.align	1
  35              		.type	rxCharHandle, %object
  36              		.size	rxCharHandle, 2
  37              	rxCharHandle:
  38 0004 0000     		.space	2
  39              		.global	txCharDescHandle
  40              		.align	1
  41              		.type	txCharDescHandle, %object
  42              		.size	txCharDescHandle, 2
  43              	txCharDescHandle:
  44 0006 0000     		.space	2
  45              		.global	bleUartServiceHandle
  46              		.align	1
  47              		.type	bleUartServiceHandle, %object
  48              		.size	bleUartServiceHandle, 2
  49              	bleUartServiceHandle:
  50 0008 0000     		.space	2
  51              		.global	bleUartServiceEndHandle
  52              		.align	1
  53              		.type	bleUartServiceEndHandle, %object
  54              		.size	bleUartServiceEndHandle, 2
  55              	bleUartServiceEndHandle:
  56 000a 0000     		.space	2
  57              		.global	mtuSize
ARM GAS  C:\Users\Daniela\AppData\Local\Temp\ccANEOnK.s 			page 2


  58              		.data
  59              		.align	1
  60              		.type	mtuSize, %object
  61              		.size	mtuSize, 2
  62              	mtuSize:
  63 0000 1700     		.short	23
  64              		.global	enableNotificationParam
  65              		.section	.rodata
  66              		.align	2
  67              		.type	enableNotificationParam, %object
  68              		.size	enableNotificationParam, 2
  69              	enableNotificationParam:
  70 0000 01       		.byte	1
  71 0001 00       		.byte	0
  72              		.global	bleUartServiceUuid
  73 0002 0000     		.align	2
  74              		.type	bleUartServiceUuid, %object
  75              		.size	bleUartServiceUuid, 16
  76              	bleUartServiceUuid:
  77 0004 31       		.byte	49
  78 0005 01       		.byte	1
  79 0006 9B       		.byte	-101
  80 0007 5F       		.byte	95
  81 0008 80       		.byte	-128
  82 0009 00       		.byte	0
  83 000a 00       		.byte	0
  84 000b 80       		.byte	-128
  85 000c 00       		.byte	0
  86 000d 10       		.byte	16
  87 000e 00       		.byte	0
  88 000f 00       		.byte	0
  89 0010 D0       		.byte	-48
  90 0011 CD       		.byte	-51
  91 0012 03       		.byte	3
  92 0013 00       		.byte	0
  93              		.global	uartTxAttrUuid
  94              		.align	2
  95              		.type	uartTxAttrUuid, %object
  96              		.size	uartTxAttrUuid, 16
  97              	uartTxAttrUuid:
  98 0014 31       		.byte	49
  99 0015 01       		.byte	1
 100 0016 9B       		.byte	-101
 101 0017 5F       		.byte	95
 102 0018 80       		.byte	-128
 103 0019 00       		.byte	0
 104 001a 00       		.byte	0
 105 001b 80       		.byte	-128
 106 001c 00       		.byte	0
 107 001d 10       		.byte	16
 108 001e 00       		.byte	0
 109 001f 00       		.byte	0
 110 0020 D1       		.byte	-47
 111 0021 CD       		.byte	-51
 112 0022 03       		.byte	3
 113 0023 00       		.byte	0
 114              		.global	uartRxAttrUuid
ARM GAS  C:\Users\Daniela\AppData\Local\Temp\ccANEOnK.s 			page 3


 115              		.align	2
 116              		.type	uartRxAttrUuid, %object
 117              		.size	uartRxAttrUuid, 16
 118              	uartRxAttrUuid:
 119 0024 31       		.byte	49
 120 0025 01       		.byte	1
 121 0026 9B       		.byte	-101
 122 0027 5F       		.byte	95
 123 0028 80       		.byte	-128
 124 0029 00       		.byte	0
 125 002a 00       		.byte	0
 126 002b 80       		.byte	-128
 127 002c 00       		.byte	0
 128 002d 10       		.byte	16
 129 002e 00       		.byte	0
 130 002f 00       		.byte	0
 131 0030 D2       		.byte	-46
 132 0031 CD       		.byte	-51
 133 0032 03       		.byte	3
 134 0033 00       		.byte	0
 135              		.global	bleUartServiceUuidInfo
 136              		.align	2
 137              		.type	bleUartServiceUuidInfo, %object
 138              		.size	bleUartServiceUuidInfo, 8
 139              	bleUartServiceUuidInfo:
 140 0034 00000000 		.word	bleUartServiceUuid
 141 0038 1000     		.short	16
 142 003a 1000     		.short	16
 143              		.global	enableNotificationReqParam
 144              		.data
 145 0002 0000     		.align	2
 146              		.type	enableNotificationReqParam, %object
 147              		.size	enableNotificationReqParam, 12
 148              	enableNotificationReqParam:
 149 0004 00000000 		.word	enableNotificationParam
 150 0008 0200     		.short	2
 151 000a 0200     		.short	2
 152 000c 0000     		.short	0
 153 000e 0000     		.space	2
 154              		.bss
 155              	infoExchangeState:
 156 000c 00       		.space	1
 157 000d 000000   		.align	2
 158              	peerAddr:
 159 0010 00000000 		.space	7
 159      000000
 160              		.section	.text.main,"ax",%progbits
 161              		.align	2
 162              		.global	main
 163              		.code	16
 164              		.thumb_func
 165              		.type	main, %function
 166              	main:
 167              	.LFB35:
 168              		.file 1 "main.c"
   1:main.c        **** /*******************************************************************************
   2:main.c        **** * File Name: main.c
ARM GAS  C:\Users\Daniela\AppData\Local\Temp\ccANEOnK.s 			page 4


   3:main.c        **** *
   4:main.c        **** * Version: 1.0
   5:main.c        **** *
   6:main.c        **** * Description:
   7:main.c        **** * Works as the master(server) which will receive the data from slaves
   8:main.c        **** * based on example code from cypress -Project 20
   9:main.c        **** *
  10:main.c        **** *******************************************************************************/
  11:main.c        **** 
  12:main.c        **** #include "main.h"
  13:main.c        **** #include "teste.h"
  14:main.c        **** uint16 txCharHandle             = 0;                /* Handle for the TX data characteristic */
  15:main.c        **** uint16 rxCharHandle             = 0;                /* Handle for the RX data characteristic */
  16:main.c        **** uint16 txCharDescHandle         = 0;                /* Handle for the TX data characteristic descri
  17:main.c        **** uint16 bleUartServiceHandle     = 0;                /* Handle for the BLE UART service */
  18:main.c        **** uint16 bleUartServiceEndHandle  = 0;                /* End handle for the BLE UART service */
  19:main.c        **** uint16 mtuSize                  = CYBLE_GATT_MTU;   /* MTU size to be used by Client and Server aft
  20:main.c        **** 
  21:main.c        **** const uint8 enableNotificationParam[2] = {0x01, 0x00};
  22:main.c        **** 
  23:main.c        **** /* UUID of the custom BLE UART service */
  24:main.c        **** const uint8 bleUartServiceUuid[16]    = {
  25:main.c        ****                                             0x31, 0x01, 0x9b, 0x5f, 0x80, 0x00, 0x00,0x80, \
  26:main.c        ****                                             0x00, 0x10, 0x00, 0x00, 0xd0, 0xcd, 0x03, 0x00 \
  27:main.c        ****                                         };
  28:main.c        **** 
  29:main.c        **** /* UUID of the TX attribute of the custom BLE UART service */
  30:main.c        **** const uint8 uartTxAttrUuid[16]        = {
  31:main.c        ****                                             0x31, 0x01, 0x9b, 0x5f, 0x80, 0x00, 0x00,0x80, \
  32:main.c        ****                                             0x00, 0x10, 0x00, 0x00, 0xd1, 0xcd, 0x03, 0x00 \
  33:main.c        ****                                         };
  34:main.c        **** 
  35:main.c        **** /* UUID of the RX attribute of the custom BLE UART service */
  36:main.c        **** const uint8 uartRxAttrUuid[16]        = {
  37:main.c        ****                                             0x31, 0x01, 0x9b, 0x5f, 0x80, 0x00, 0x00,0x80, \
  38:main.c        ****                                             0x00, 0x10, 0x00, 0x00, 0xd2, 0xcd, 0x03, 0x00 \
  39:main.c        ****                                         };
  40:main.c        **** 
  41:main.c        **** /* structure to be passed for discovering service by UUID */
  42:main.c        **** const CYBLE_GATT_VALUE_T    bleUartServiceUuidInfo = { 
  43:main.c        ****                                                         (uint8 *) bleUartServiceUuid, \
  44:main.c        ****                                                         CYBLE_GATT_128_BIT_UUID_SIZE,\
  45:main.c        ****                                                         CYBLE_GATT_128_BIT_UUID_SIZE \
  46:main.c        ****                                                       };
  47:main.c        **** 
  48:main.c        **** /* structure to be passed for the enable notification request */
  49:main.c        **** CYBLE_GATTC_WRITE_REQ_T     enableNotificationReqParam   = {
  50:main.c        ****                                                                 {(uint8*)enableNotificationParam, 2
  51:main.c        ****                                                                 0
  52:main.c        ****                                                             };
  53:main.c        **** static INFO_EXCHANGE_STATE_T    infoExchangeState   = INFO_EXCHANGE_START;
  54:main.c        ****     
  55:main.c        **** static CYBLE_GAP_BD_ADDR_T      peerAddr;           /* BD address of the peer device */
  56:main.c        ****     
  57:main.c        **** int main()
  58:main.c        **** {
 169              		.loc 1 58 0
ARM GAS  C:\Users\Daniela\AppData\Local\Temp\ccANEOnK.s 			page 5


 170              		.cfi_startproc
 171              		@ args = 0, pretend = 0, frame = 0
 172              		@ frame_needed = 1, uses_anonymous_args = 0
 173 0000 80B5     		push	{r7, lr}
 174              		.cfi_def_cfa_offset 8
 175              		.cfi_offset 7, -8
 176              		.cfi_offset 14, -4
 177 0002 00AF     		add	r7, sp, #0
 178              		.cfi_def_cfa_register 7
  59:main.c        ****     #ifdef LOW_POWER_MODE    
  60:main.c        ****         CYBLE_LP_MODE_T         lpMode;
  61:main.c        ****         CYBLE_BLESS_STATE_T     blessState;
  62:main.c        ****     #endif
  63:main.c        ****     
  64:main.c        ****     start();
 179              		.loc 1 64 0
 180 0004 FFF7FEFF 		bl	start
  65:main.c        ****     startBLE();
 181              		.loc 1 65 0
 182 0008 FFF7FEFF 		bl	startBLE
 183              	.L2:
  66:main.c        ****     while(1){   //if server is connected
  67:main.c        ****         HandleBleProcessing();
 184              		.loc 1 67 0 discriminator 1
 185 000c FFF7FEFF 		bl	HandleBleProcessing
  68:main.c        ****         CyBle_ProcessEvents();
 186              		.loc 1 68 0 discriminator 1
 187 0010 FFF7FEFF 		bl	CyBle_ProcessEvents
  69:main.c        ****     }   
 188              		.loc 1 69 0 discriminator 1
 189 0014 FAE7     		b	.L2
 190              		.cfi_endproc
 191              	.LFE35:
 192              		.size	main, .-main
 193 0016 C046     		.section	.text.startBLE,"ax",%progbits
 194              		.align	2
 195              		.global	startBLE
 196              		.code	16
 197              		.thumb_func
 198              		.type	startBLE, %function
 199              	startBLE:
 200              	.LFB36:
  70:main.c        **** }
  71:main.c        **** //static void StartScan(void)
  72:main.c        **** //{   //* Starts a scan on the Central device.
  73:main.c        **** //
  74:main.c        **** //    /* Re-initialize all variables for scanning and then start a fresh scan */
  75:main.c        **** //        
  76:main.c        **** //    CyBle_GapcStartScan(CYBLE_SCANNING_FAST);
  77:main.c        **** //    UART_UartPutString("\n\r Start Scan: ");
  78:main.c        **** //}
  79:main.c        **** 
  80:main.c        **** void startBLE(){
 201              		.loc 1 80 0
 202              		.cfi_startproc
 203              		@ args = 0, pretend = 0, frame = 0
 204              		@ frame_needed = 1, uses_anonymous_args = 0
ARM GAS  C:\Users\Daniela\AppData\Local\Temp\ccANEOnK.s 			page 6


 205 0000 80B5     		push	{r7, lr}
 206              		.cfi_def_cfa_offset 8
 207              		.cfi_offset 7, -8
 208              		.cfi_offset 14, -4
 209 0002 00AF     		add	r7, sp, #0
 210              		.cfi_def_cfa_register 7
  81:main.c        ****    //This function init the BLE component, this means, BLE STACK 
  82:main.c        ****    // AppCallBack manages the state BLE machine
  83:main.c        ****     
  84:main.c        ****     CyBle_Start(AppCallBack);  
 211              		.loc 1 84 0
 212 0004 034B     		ldr	r3, .L4
 213 0006 1800     		movs	r0, r3
 214 0008 FFF7FEFF 		bl	CyBle_Start
  85:main.c        **** }
 215              		.loc 1 85 0
 216 000c C046     		nop
 217 000e BD46     		mov	sp, r7
 218              		@ sp needed
 219 0010 80BD     		pop	{r7, pc}
 220              	.L5:
 221 0012 C046     		.align	2
 222              	.L4:
 223 0014 00000000 		.word	AppCallBack
 224              		.cfi_endproc
 225              	.LFE36:
 226              		.size	startBLE, .-startBLE
 227              		.section	.text.stopBLE,"ax",%progbits
 228              		.align	2
 229              		.global	stopBLE
 230              		.code	16
 231              		.thumb_func
 232              		.type	stopBLE, %function
 233              	stopBLE:
 234              	.LFB37:
  86:main.c        **** 
  87:main.c        **** void stopBLE(){
 235              		.loc 1 87 0
 236              		.cfi_startproc
 237              		@ args = 0, pretend = 0, frame = 0
 238              		@ frame_needed = 1, uses_anonymous_args = 0
 239 0000 80B5     		push	{r7, lr}
 240              		.cfi_def_cfa_offset 8
 241              		.cfi_offset 7, -8
 242              		.cfi_offset 14, -4
 243 0002 00AF     		add	r7, sp, #0
 244              		.cfi_def_cfa_register 7
  88:main.c        ****     //Stops any proccesing in BLE Stack
  89:main.c        ****     CyBle_Stop();
 245              		.loc 1 89 0
 246 0004 FFF7FEFF 		bl	CyBle_Stop
  90:main.c        **** }
 247              		.loc 1 90 0
 248 0008 C046     		nop
 249 000a BD46     		mov	sp, r7
 250              		@ sp needed
 251 000c 80BD     		pop	{r7, pc}
ARM GAS  C:\Users\Daniela\AppData\Local\Temp\ccANEOnK.s 			page 7


 252              		.cfi_endproc
 253              	.LFE37:
 254              		.size	stopBLE, .-stopBLE
 255 000e C046     		.section	.rodata
 256              		.align	2
 257              	.LC1:
 258 003c 0A0D2053 		.ascii	"\012\015 Star \000"
 258      74617220 
 258      00
 259              		.section	.text.start,"ax",%progbits
 260              		.align	2
 261              		.global	start
 262              		.code	16
 263              		.thumb_func
 264              		.type	start, %function
 265              	start:
 266              	.LFB38:
  91:main.c        **** 
  92:main.c        **** void start(){
 267              		.loc 1 92 0
 268              		.cfi_startproc
 269              		@ args = 0, pretend = 0, frame = 0
 270              		@ frame_needed = 1, uses_anonymous_args = 0
 271 0000 80B5     		push	{r7, lr}
 272              		.cfi_def_cfa_offset 8
 273              		.cfi_offset 7, -8
 274              		.cfi_offset 14, -4
 275 0002 00AF     		add	r7, sp, #0
 276              		.cfi_def_cfa_register 7
  93:main.c        ****     
  94:main.c        ****     CyGlobalIntEnable; 
 277              		.loc 1 94 0
 278              		.syntax divided
 279              	@ 94 "main.c" 1
 280 0004 62B6     		CPSIE   i
 281              	@ 0 "" 2
  95:main.c        ****  
  96:main.c        ****     /* Start UART and BLE component and display project information */
  97:main.c        ****     UART_Start();  
 282              		.loc 1 97 0
 283              		.thumb
 284              		.syntax unified
 285 0006 FFF7FEFF 		bl	UART_Start
  98:main.c        ****     UART_UartPutString("\n\r Star ");
 286              		.loc 1 98 0
 287 000a 034B     		ldr	r3, .L8
 288 000c 1800     		movs	r0, r3
 289 000e FFF7FEFF 		bl	UART_UartPutString
  99:main.c        **** }
 290              		.loc 1 99 0
 291 0012 C046     		nop
 292 0014 BD46     		mov	sp, r7
 293              		@ sp needed
 294 0016 80BD     		pop	{r7, pc}
 295              	.L9:
 296              		.align	2
 297              	.L8:
ARM GAS  C:\Users\Daniela\AppData\Local\Temp\ccANEOnK.s 			page 8


 298 0018 3C000000 		.word	.LC1
 299              		.cfi_endproc
 300              	.LFE38:
 301              		.size	start, .-start
 302              		.section	.rodata
 303 0045 000000   		.align	2
 304              	.LC4:
 305 0048 0A0D2043 		.ascii	"\012\015 CYBLE_STATE_SCANNING \012\015 \000"
 305      59424C45 
 305      5F535441 
 305      54455F53 
 305      43414E4E 
 306              		.align	2
 307              	.LC7:
 308 0064 0A0D2043 		.ascii	"\012\015 CYBLE_STATE_CONNECTED \012\015 \000"
 308      59424C45 
 308      5F535441 
 308      54455F43 
 308      4F4E4E45 
 309 0081 000000   		.align	2
 310              	.LC12:
 311 0084 0A0D2043 		.ascii	"\012\015 CYBLE_STATE_DISCONNECTED \012\015 \000"
 311      59424C45 
 311      5F535441 
 311      54455F44 
 311      4953434F 
 312              		.section	.text.HandleBleProcessing,"ax",%progbits
 313              		.align	2
 314              		.global	HandleBleProcessing
 315              		.code	16
 316              		.thumb_func
 317              		.type	HandleBleProcessing, %function
 318              	HandleBleProcessing:
 319              	.LFB39:
 100:main.c        **** 
 101:main.c        **** 
 102:main.c        **** /*******************************************************************************
 103:main.c        **** * Function Name: HandleBleProcessing
 104:main.c        **** ********************************************************************************
 105:main.c        **** *
 106:main.c        **** * Summary:
 107:main.c        **** *   Handles the BLE state machine for intiating different procedures
 108:main.c        **** *   during different states of BLESS.
 109:main.c        **** *
 110:main.c        **** * Parameters:
 111:main.c        **** *   None.
 112:main.c        **** *
 113:main.c        **** * Return:
 114:main.c        **** *   None.
 115:main.c        **** *
 116:main.c        **** *******************************************************************************/
 117:main.c        **** void HandleBleProcessing(void)
 118:main.c        **** {    
 320              		.loc 1 118 0
 321              		.cfi_startproc
 322              		@ args = 0, pretend = 0, frame = 8
 323              		@ frame_needed = 1, uses_anonymous_args = 0
ARM GAS  C:\Users\Daniela\AppData\Local\Temp\ccANEOnK.s 			page 9


 324 0000 90B5     		push	{r4, r7, lr}
 325              		.cfi_def_cfa_offset 12
 326              		.cfi_offset 4, -12
 327              		.cfi_offset 7, -8
 328              		.cfi_offset 14, -4
 329 0002 83B0     		sub	sp, sp, #12
 330              		.cfi_def_cfa_offset 24
 331 0004 00AF     		add	r7, sp, #0
 332              		.cfi_def_cfa_register 7
 119:main.c        ****     CYBLE_API_RESULT_T      cyble_api_result;
 120:main.c        ****     
 121:main.c        ****     switch (cyBle_state)
 333              		.loc 1 121 0
 334 0006 2C4B     		ldr	r3, .L26
 335 0008 1B78     		ldrb	r3, [r3]
 336 000a 042B     		cmp	r3, #4
 337 000c 04D0     		beq	.L12
 338 000e 062B     		cmp	r3, #6
 339 0010 2CD0     		beq	.L13
 340 0012 022B     		cmp	r3, #2
 341 0014 0CD0     		beq	.L14
 122:main.c        ****     {
 123:main.c        ****         case CYBLE_STATE_SCANNING:
 124:main.c        ****         UART_UartPutString("\n\r CYBLE_STATE_SCANNING \n\r ");
 125:main.c        ****             if(peerDeviceFound)
 126:main.c        ****             {
 127:main.c        ****                 CyBle_GapcStopScan();
 128:main.c        ****             }
 129:main.c        ****             break;
 130:main.c        ****     
 131:main.c        ****         case CYBLE_STATE_CONNECTED:
 132:main.c        ****             UART_UartPutString("\n\r CYBLE_STATE_CONNECTED \n\r ");
 133:main.c        ****             /* if Client does not has all the information about attribute handles 
 134:main.c        ****              * call procedure for getting it */
 135:main.c        ****             if((INFO_EXCHANGE_COMPLETE != infoExchangeState))
 136:main.c        ****             {
 137:main.c        ****                 attrHandleInit();
 138:main.c        ****             }
 139:main.c        ****             
 140:main.c        ****             /* enable notifications if not enabled already */
 141:main.c        ****             else if(false == notificationEnabled)
 142:main.c        ****             {
 143:main.c        ****                 enableNotifications();
 144:main.c        ****             }
 145:main.c        ****             
 146:main.c        ****             /* if client has all required info and stack is free, handle UART traffic */
 147:main.c        ****             else if(CyBle_GattGetBusStatus() != CYBLE_STACK_STATE_BUSY)
 148:main.c        ****             {
 149:main.c        ****                 HandleUartTxTraffic();
 150:main.c        ****             }
 151:main.c        ****             
 152:main.c        ****             break;
 153:main.c        ****                 
 154:main.c        ****         case CYBLE_STATE_DISCONNECTED:
 155:main.c        ****          UART_UartPutString("\n\r CYBLE_STATE_DISCONNECTED \n\r ");
 156:main.c        ****         {
 157:main.c        ****             if(peerDeviceFound)
ARM GAS  C:\Users\Daniela\AppData\Local\Temp\ccANEOnK.s 			page 10


 158:main.c        ****             {
 159:main.c        ****                 cyble_api_result = CyBle_GapcConnectDevice(&peerAddr);
 160:main.c        ****                 
 161:main.c        **** 			    if(CYBLE_ERROR_OK == cyble_api_result)
 162:main.c        **** 			    {
 163:main.c        **** 				    peerDeviceFound = false;
 164:main.c        **** 			    }
 165:main.c        ****             }
 166:main.c        ****             else
 167:main.c        ****             {
 168:main.c        ****                 CyBle_GapcStartScan(CYBLE_SCANNING_FAST);  
 169:main.c        ****             }
 170:main.c        ****             break;
 171:main.c        ****         }
 172:main.c        ****         
 173:main.c        ****         default:
 174:main.c        ****             break;       
 342              		.loc 1 174 0
 343 0016 4AE0     		b	.L16
 344              	.L12:
 124:main.c        ****             if(peerDeviceFound)
 345              		.loc 1 124 0
 346 0018 284B     		ldr	r3, .L26+4
 347 001a 1800     		movs	r0, r3
 348 001c FFF7FEFF 		bl	UART_UartPutString
 125:main.c        ****             {
 349              		.loc 1 125 0
 350 0020 274B     		ldr	r3, .L26+8
 351 0022 1B78     		ldrb	r3, [r3]
 352 0024 DBB2     		uxtb	r3, r3
 353 0026 002B     		cmp	r3, #0
 354 0028 3CD0     		beq	.L23
 127:main.c        ****             }
 355              		.loc 1 127 0
 356 002a FFF7FEFF 		bl	CyBle_GapcStopScan
 129:main.c        ****     
 357              		.loc 1 129 0
 358 002e 39E0     		b	.L23
 359              	.L14:
 132:main.c        ****             /* if Client does not has all the information about attribute handles 
 360              		.loc 1 132 0
 361 0030 244B     		ldr	r3, .L26+12
 362 0032 1800     		movs	r0, r3
 363 0034 FFF7FEFF 		bl	UART_UartPutString
 135:main.c        ****             {
 364              		.loc 1 135 0
 365 0038 234B     		ldr	r3, .L26+16
 366 003a 1B78     		ldrb	r3, [r3]
 367 003c 1F2B     		cmp	r3, #31
 368 003e 02D0     		beq	.L17
 137:main.c        ****             }
 369              		.loc 1 137 0
 370 0040 FFF7FEFF 		bl	attrHandleInit
 152:main.c        ****                 
 371              		.loc 1 152 0
 372 0044 30E0     		b	.L24
 373              	.L17:
ARM GAS  C:\Users\Daniela\AppData\Local\Temp\ccANEOnK.s 			page 11


 141:main.c        ****             {
 374              		.loc 1 141 0
 375 0046 214B     		ldr	r3, .L26+20
 376 0048 1B78     		ldrb	r3, [r3]
 377 004a DBB2     		uxtb	r3, r3
 378 004c 0122     		movs	r2, #1
 379 004e 5340     		eors	r3, r2
 380 0050 DBB2     		uxtb	r3, r3
 381 0052 002B     		cmp	r3, #0
 382 0054 02D0     		beq	.L19
 143:main.c        ****             }
 383              		.loc 1 143 0
 384 0056 FFF7FEFF 		bl	enableNotifications
 152:main.c        ****                 
 385              		.loc 1 152 0
 386 005a 25E0     		b	.L24
 387              	.L19:
 147:main.c        ****             {
 388              		.loc 1 147 0
 389 005c 1C4B     		ldr	r3, .L26+24
 390 005e 1B78     		ldrb	r3, [r3]
 391 0060 DBB2     		uxtb	r3, r3
 392 0062 012B     		cmp	r3, #1
 393 0064 20D0     		beq	.L24
 149:main.c        ****             }
 394              		.loc 1 149 0
 395 0066 FFF7FEFF 		bl	HandleUartTxTraffic
 152:main.c        ****                 
 396              		.loc 1 152 0
 397 006a 1DE0     		b	.L24
 398              	.L13:
 155:main.c        ****         {
 399              		.loc 1 155 0
 400 006c 194B     		ldr	r3, .L26+28
 401 006e 1800     		movs	r0, r3
 402 0070 FFF7FEFF 		bl	UART_UartPutString
 157:main.c        ****             {
 403              		.loc 1 157 0
 404 0074 124B     		ldr	r3, .L26+8
 405 0076 1B78     		ldrb	r3, [r3]
 406 0078 DBB2     		uxtb	r3, r3
 407 007a 002B     		cmp	r3, #0
 408 007c 0ED0     		beq	.L20
 159:main.c        ****                 
 409              		.loc 1 159 0
 410 007e BC1D     		adds	r4, r7, #6
 411 0080 154B     		ldr	r3, .L26+32
 412 0082 1800     		movs	r0, r3
 413 0084 FFF7FEFF 		bl	CyBle_GapcConnectDevice
 414 0088 0300     		movs	r3, r0
 415 008a 2380     		strh	r3, [r4]
 161:main.c        **** 			    {
 416              		.loc 1 161 0
 417 008c BB1D     		adds	r3, r7, #6
 418 008e 1B88     		ldrh	r3, [r3]
 419 0090 002B     		cmp	r3, #0
 420 0092 0BD1     		bne	.L25
ARM GAS  C:\Users\Daniela\AppData\Local\Temp\ccANEOnK.s 			page 12


 163:main.c        **** 			    }
 421              		.loc 1 163 0
 422 0094 0A4B     		ldr	r3, .L26+8
 423 0096 0022     		movs	r2, #0
 424 0098 1A70     		strb	r2, [r3]
 170:main.c        ****         }
 425              		.loc 1 170 0
 426 009a 07E0     		b	.L25
 427              	.L20:
 168:main.c        ****             }
 428              		.loc 1 168 0
 429 009c 0020     		movs	r0, #0
 430 009e FFF7FEFF 		bl	CyBle_GapcStartScan
 170:main.c        ****         }
 431              		.loc 1 170 0
 432 00a2 03E0     		b	.L25
 433              	.L23:
 129:main.c        ****     
 434              		.loc 1 129 0
 435 00a4 C046     		nop
 436 00a6 02E0     		b	.L16
 437              	.L24:
 152:main.c        ****                 
 438              		.loc 1 152 0
 439 00a8 C046     		nop
 440 00aa 00E0     		b	.L16
 441              	.L25:
 170:main.c        ****         }
 442              		.loc 1 170 0
 443 00ac C046     		nop
 444              	.L16:
 175:main.c        ****     }
 176:main.c        **** }
 445              		.loc 1 176 0
 446 00ae C046     		nop
 447 00b0 BD46     		mov	sp, r7
 448 00b2 03B0     		add	sp, sp, #12
 449              		@ sp needed
 450 00b4 90BD     		pop	{r4, r7, pc}
 451              	.L27:
 452 00b6 C046     		.align	2
 453              	.L26:
 454 00b8 00000000 		.word	cyBle_state
 455 00bc 48000000 		.word	.LC4
 456 00c0 00000000 		.word	peerDeviceFound
 457 00c4 64000000 		.word	.LC7
 458 00c8 0C000000 		.word	infoExchangeState
 459 00cc 01000000 		.word	notificationEnabled
 460 00d0 00000000 		.word	cyBle_busyStatus
 461 00d4 84000000 		.word	.LC12
 462 00d8 10000000 		.word	peerAddr
 463              		.cfi_endproc
 464              	.LFE39:
 465              		.size	HandleBleProcessing, .-HandleBleProcessing
 466              		.section	.rodata
 467              		.align	2
 468              	.LC16:
ARM GAS  C:\Users\Daniela\AppData\Local\Temp\ccANEOnK.s 			page 13


 469 00a4 0A0D2043 		.ascii	"\012\015 CYBLE_EVT_GAPC_SCAN_PROGRESS_RESULT \012\015"
 469      59424C45 
 469      5F455654 
 469      5F474150 
 469      435F5343 
 470 00cd 00       		.ascii	"\000"
 471 00ce 0000     		.align	2
 472              	.LC20:
 473 00d0 0A0D0A0D 		.ascii	"\012\015\012\015Server with matching custom service"
 473      53657276 
 473      65722077 
 473      69746820 
 473      6D617463 
 474 00f7 20646973 		.ascii	" discovered...\000"
 474      636F7665 
 474      7265642E 
 474      2E2E00
 475 0106 0000     		.align	2
 476              	.LC22:
 477 0108 0A0D2043 		.ascii	"\012\015 CYBLE_EVT_GAP_DEVICE_DISCONNECTED \012\015"
 477      59424C45 
 477      5F455654 
 477      5F474150 
 477      5F444556 
 478 012f 00       		.ascii	"\000"
 479              		.align	2
 480              	.LC26:
 481 0130 0A0D2044 		.ascii	"\012\015 DISCONNECTED!!! \012\015 \000"
 481      4953434F 
 481      4E4E4543 
 481      54454421 
 481      2121200A 
 482 0147 00       		.align	2
 483              	.LC28:
 484 0148 0A0D2043 		.ascii	"\012\015 CYBLE_EVT_GATTC_READ_BY_TYPE_RSP \012\015\000"
 484      59424C45 
 484      5F455654 
 484      5F474154 
 484      54435F52 
 485 016f 00       		.align	2
 486              	.LC34:
 487 0170 0A0D2043 		.ascii	"\012\015 CYBLE_EVT_GATTC_FIND_INFO_RSP \012\015\000"
 487      59424C45 
 487      5F455654 
 487      5F474154 
 487      54435F46 
 488              		.align	2
 489              	.LC37:
 490 0194 0A0D2043 		.ascii	"\012\015 CYBLE_EVT_GATTC_XCHNG_MTU_RSP \012\015\000"
 490      59424C45 
 490      5F455654 
 490      5F474154 
 490      54435F58 
 491              		.align	2
 492              	.LC40:
 493 01b8 0A0D2043 		.ascii	"\012\015 CYBLE_EVT_GATTC_HANDLE_VALUE_NTF  \012\015"
 493      59424C45 
ARM GAS  C:\Users\Daniela\AppData\Local\Temp\ccANEOnK.s 			page 14


 493      5F455654 
 493      5F474154 
 493      54435F48 
 494 01df 00       		.ascii	"\000"
 495              		.align	2
 496              	.LC42:
 497 01e0 0A0D2043 		.ascii	"\012\015 CYBLE_EVT_GATTC_FIND_BY_TYPE_VALUE_RSP \012"
 497      59424C45 
 497      5F455654 
 497      5F474154 
 497      54435F46 
 498 020b 0D00     		.ascii	"\015\000"
 499 020d 000000   		.align	2
 500              	.LC46:
 501 0210 0A0D2043 		.ascii	"\012\015 CYBLE_EVT_GATTS_XCNHG_MTU_REQ \012\015\000"
 501      59424C45 
 501      5F455654 
 501      5F474154 
 501      54535F58 
 502              		.align	2
 503              	.LC48:
 504 0234 0A0D4E6F 		.ascii	"\012\015Notifications enabled\012\015\000"
 504      74696669 
 504      63617469 
 504      6F6E7320 
 504      656E6162 
 505 024e 0000     		.align	2
 506              	.LC50:
 507 0250 0A0D5374 		.ascii	"\012\015Start entering data:\012\015\000"
 507      61727420 
 507      656E7465 
 507      72696E67 
 507      20646174 
 508 0269 000000   		.align	2
 509              	.LC52:
 510 026c 0A0D436F 		.ascii	"\012\015Connection established\000"
 510      6E6E6563 
 510      74696F6E 
 510      20657374 
 510      61626C69 
 511              		.section	.text.AppCallBack,"ax",%progbits
 512              		.align	2
 513              		.global	AppCallBack
 514              		.code	16
 515              		.thumb_func
 516              		.type	AppCallBack, %function
 517              	AppCallBack:
 518              	.LFB40:
 177:main.c        **** 
 178:main.c        **** /*******************************************************************************
 179:main.c        **** * Function Name: AppCallBack
 180:main.c        **** ********************************************************************************
 181:main.c        **** *
 182:main.c        **** * Summary:
 183:main.c        **** *   Call back function for BLE stack to handle BLESS events
 184:main.c        **** *
 185:main.c        **** * Parameters:
ARM GAS  C:\Users\Daniela\AppData\Local\Temp\ccANEOnK.s 			page 15


 186:main.c        **** *   event       - the event generated by stack
 187:main.c        **** *   eventParam  - the parameters related to the corresponding event
 188:main.c        **** *
 189:main.c        **** * Return:
 190:main.c        **** *   None.
 191:main.c        **** *
 192:main.c        **** *******************************************************************************/
 193:main.c        **** void AppCallBack(uint32 event, void *eventParam)
 194:main.c        **** {
 519              		.loc 1 194 0
 520              		.cfi_startproc
 521              		@ args = 0, pretend = 0, frame = 24
 522              		@ frame_needed = 1, uses_anonymous_args = 0
 523 0000 80B5     		push	{r7, lr}
 524              		.cfi_def_cfa_offset 8
 525              		.cfi_offset 7, -8
 526              		.cfi_offset 14, -4
 527 0002 86B0     		sub	sp, sp, #24
 528              		.cfi_def_cfa_offset 32
 529 0004 00AF     		add	r7, sp, #0
 530              		.cfi_def_cfa_register 7
 531 0006 7860     		str	r0, [r7, #4]
 532 0008 3960     		str	r1, [r7]
 195:main.c        ****     CYBLE_GATTC_READ_BY_TYPE_RSP_PARAM_T    *readResponse;
 196:main.c        ****     CYBLE_GAPC_ADV_REPORT_T		            *advReport;
 197:main.c        ****     CYBLE_GATTC_FIND_BY_TYPE_RSP_PARAM_T    *findResponse;
 198:main.c        ****     CYBLE_GATTC_FIND_INFO_RSP_PARAM_T       *findInfoResponse;
 199:main.c        ****     
 200:main.c        ****     switch (event)
 533              		.loc 1 200 0
 534 000a 7B68     		ldr	r3, [r7, #4]
 535 000c 522B     		cmp	r3, #82
 536 000e 00D9     		bls	.LCB252
 537 0010 57E1     		b	.L54	@long jump
 538              	.LCB252:
 539 0012 7B68     		ldr	r3, [r7, #4]
 540 0014 9A00     		lsls	r2, r3, #2
 541 0016 B04B     		ldr	r3, .L58
 542 0018 D318     		adds	r3, r2, r3
 543 001a 1B68     		ldr	r3, [r3]
 544 001c 9F46     		mov	pc, r3
 545              		.section	.rodata
 546 0285 000000   		.align	2
 547              	.L31:
 548 0288 C2020000 		.word	.L54
 549 028c C2020000 		.word	.L54
 550 0290 C2020000 		.word	.L54
 551 0294 C2020000 		.word	.L54
 552 0298 C2020000 		.word	.L54
 553 029c C2020000 		.word	.L54
 554 02a0 C2020000 		.word	.L54
 555 02a4 C2020000 		.word	.L54
 556 02a8 C2020000 		.word	.L54
 557 02ac C2020000 		.word	.L54
 558 02b0 C2020000 		.word	.L54
 559 02b4 C2020000 		.word	.L54
 560 02b8 C2020000 		.word	.L54
ARM GAS  C:\Users\Daniela\AppData\Local\Temp\ccANEOnK.s 			page 16


 561 02bc C2020000 		.word	.L54
 562 02c0 C2020000 		.word	.L54
 563 02c4 C2020000 		.word	.L54
 564 02c8 C2020000 		.word	.L54
 565 02cc C2020000 		.word	.L54
 566 02d0 C2020000 		.word	.L54
 567 02d4 C2020000 		.word	.L54
 568 02d8 C2020000 		.word	.L54
 569 02dc C2020000 		.word	.L54
 570 02e0 C2020000 		.word	.L54
 571 02e4 C2020000 		.word	.L54
 572 02e8 C2020000 		.word	.L54
 573 02ec C2020000 		.word	.L54
 574 02f0 C2020000 		.word	.L54
 575 02f4 C2020000 		.word	.L54
 576 02f8 C2020000 		.word	.L54
 577 02fc C2020000 		.word	.L54
 578 0300 C2020000 		.word	.L54
 579 0304 C2020000 		.word	.L54
 580 0308 1E000000 		.word	.L32
 581 030c C2020000 		.word	.L54
 582 0310 C2020000 		.word	.L54
 583 0314 C2020000 		.word	.L54
 584 0318 C2020000 		.word	.L54
 585 031c C2020000 		.word	.L54
 586 0320 C2020000 		.word	.L54
 587 0324 C2020000 		.word	.L54
 588 0328 AE000000 		.word	.L33
 589 032c C2020000 		.word	.L54
 590 0330 C2020000 		.word	.L54
 591 0334 C2020000 		.word	.L54
 592 0338 C2020000 		.word	.L54
 593 033c C2020000 		.word	.L54
 594 0340 C2020000 		.word	.L54
 595 0344 C2020000 		.word	.L54
 596 0348 C2020000 		.word	.L54
 597 034c C2020000 		.word	.L54
 598 0350 C2020000 		.word	.L54
 599 0354 C2020000 		.word	.L54
 600 0358 C2020000 		.word	.L54
 601 035c C2020000 		.word	.L54
 602 0360 C2020000 		.word	.L54
 603 0364 C2020000 		.word	.L54
 604 0368 C2020000 		.word	.L54
 605 036c C2020000 		.word	.L54
 606 0370 C2020000 		.word	.L54
 607 0374 C2020000 		.word	.L54
 608 0378 C2020000 		.word	.L54
 609 037c C2020000 		.word	.L54
 610 0380 C2020000 		.word	.L54
 611 0384 C2020000 		.word	.L54
 612 0388 C2020000 		.word	.L54
 613 038c B8020000 		.word	.L34
 614 0390 C2020000 		.word	.L54
 615 0394 7E020000 		.word	.L35
 616 0398 0C020000 		.word	.L36
 617 039c C2020000 		.word	.L54
ARM GAS  C:\Users\Daniela\AppData\Local\Temp\ccANEOnK.s 			page 17


 618 03a0 02010000 		.word	.L37
 619 03a4 AC010000 		.word	.L38
 620 03a8 4E020000 		.word	.L39
 621 03ac C2020000 		.word	.L54
 622 03b0 C2020000 		.word	.L54
 623 03b4 C2020000 		.word	.L54
 624 03b8 C2020000 		.word	.L54
 625 03bc A0020000 		.word	.L40
 626 03c0 C2020000 		.word	.L54
 627 03c4 C2020000 		.word	.L54
 628 03c8 C2020000 		.word	.L54
 629 03cc C2020000 		.word	.L54
 630 03d0 3C020000 		.word	.L41
 631              		.section	.text.AppCallBack
 632              	.L32:
 201:main.c        ****     {
 202:main.c        ****         case CYBLE_EVT_STACK_ON:
 203:main.c        ****       
 204:main.c        ****             break;
 205:main.c        ****         
 206:main.c        ****         case CYBLE_EVT_GAPC_SCAN_PROGRESS_RESULT:
 207:main.c        ****             UART_UartPutString("\n\r CYBLE_EVT_GAPC_SCAN_PROGRESS_RESULT \n\r");
 633              		.loc 1 207 0
 634 001e AF4B     		ldr	r3, .L58+4
 635 0020 1800     		movs	r0, r3
 636 0022 FFF7FEFF 		bl	UART_UartPutString
 208:main.c        ****             advReport = (CYBLE_GAPC_ADV_REPORT_T *) eventParam;
 637              		.loc 1 208 0
 638 0026 3B68     		ldr	r3, [r7]
 639 0028 7B61     		str	r3, [r7, #20]
 209:main.c        ****             
 210:main.c        ****             /* check if report has manfacturing data corresponding to the intended matching peer */
 211:main.c        ****             if((advReport->eventType == CYBLE_GAPC_SCAN_RSP) && (advReport->dataLen == 0x06) \
 640              		.loc 1 211 0
 641 002a 7B69     		ldr	r3, [r7, #20]
 642 002c 1B78     		ldrb	r3, [r3]
 643 002e 042B     		cmp	r3, #4
 644 0030 00D0     		beq	.LCB273
 645 0032 48E1     		b	.L55	@long jump
 646              	.LCB273:
 647              		.loc 1 211 0 is_stmt 0 discriminator 1
 648 0034 7B69     		ldr	r3, [r7, #20]
 649 0036 1B7A     		ldrb	r3, [r3, #8]
 650 0038 062B     		cmp	r3, #6
 651 003a 00D0     		beq	.LCB277
 652 003c 43E1     		b	.L55	@long jump
 653              	.LCB277:
 212:main.c        ****                     && (advReport->data[1] == 0xff) && (advReport->data[2] == 0x31)  \
 654              		.loc 1 212 0 is_stmt 1
 655 003e 7B69     		ldr	r3, [r7, #20]
 656 0040 DB68     		ldr	r3, [r3, #12]
 657 0042 0133     		adds	r3, r3, #1
 658 0044 1B78     		ldrb	r3, [r3]
 659 0046 FF2B     		cmp	r3, #255
 660 0048 00D0     		beq	.LCB283
 661 004a 3CE1     		b	.L55	@long jump
 662              	.LCB283:
ARM GAS  C:\Users\Daniela\AppData\Local\Temp\ccANEOnK.s 			page 18


 663              		.loc 1 212 0 is_stmt 0 discriminator 1
 664 004c 7B69     		ldr	r3, [r7, #20]
 665 004e DB68     		ldr	r3, [r3, #12]
 666 0050 0233     		adds	r3, r3, #2
 667 0052 1B78     		ldrb	r3, [r3]
 668 0054 312B     		cmp	r3, #49
 669 0056 00D0     		beq	.LCB289
 670 0058 35E1     		b	.L55	@long jump
 671              	.LCB289:
 213:main.c        ****                     && (advReport->data[3] == 0x01) && (advReport->data[4] == 0x3b) \
 672              		.loc 1 213 0 is_stmt 1
 673 005a 7B69     		ldr	r3, [r7, #20]
 674 005c DB68     		ldr	r3, [r3, #12]
 675 005e 0333     		adds	r3, r3, #3
 676 0060 1B78     		ldrb	r3, [r3]
 677 0062 012B     		cmp	r3, #1
 678 0064 00D0     		beq	.LCB295
 679 0066 2EE1     		b	.L55	@long jump
 680              	.LCB295:
 681              		.loc 1 213 0 is_stmt 0 discriminator 1
 682 0068 7B69     		ldr	r3, [r7, #20]
 683 006a DB68     		ldr	r3, [r3, #12]
 684 006c 0433     		adds	r3, r3, #4
 685 006e 1B78     		ldrb	r3, [r3]
 686 0070 3B2B     		cmp	r3, #59
 687 0072 00D0     		beq	.LCB301
 688 0074 27E1     		b	.L55	@long jump
 689              	.LCB301:
 214:main.c        ****                     && (advReport->data[5] == 0x04))
 690              		.loc 1 214 0 is_stmt 1
 691 0076 7B69     		ldr	r3, [r7, #20]
 692 0078 DB68     		ldr	r3, [r3, #12]
 693 007a 0533     		adds	r3, r3, #5
 694 007c 1B78     		ldrb	r3, [r3]
 695 007e 042B     		cmp	r3, #4
 696 0080 00D0     		beq	.LCB307
 697 0082 20E1     		b	.L55	@long jump
 698              	.LCB307:
 215:main.c        ****             {
 216:main.c        ****                 peerDeviceFound = true;
 699              		.loc 1 216 0
 700 0084 964B     		ldr	r3, .L58+8
 701 0086 0122     		movs	r2, #1
 702 0088 1A70     		strb	r2, [r3]
 217:main.c        ****                 
 218:main.c        ****                 memcpy(peerAddr.bdAddr, advReport->peerBdAddr, sizeof(peerAddr.bdAddr));
 703              		.loc 1 218 0
 704 008a 7B69     		ldr	r3, [r7, #20]
 705 008c 5B68     		ldr	r3, [r3, #4]
 706 008e 954A     		ldr	r2, .L58+12
 707 0090 1000     		movs	r0, r2
 708 0092 1900     		movs	r1, r3
 709 0094 0623     		movs	r3, #6
 710 0096 1A00     		movs	r2, r3
 711 0098 FFF7FEFF 		bl	memcpy
 219:main.c        ****                 peerAddr.type = advReport->peerAddrType;
 712              		.loc 1 219 0
ARM GAS  C:\Users\Daniela\AppData\Local\Temp\ccANEOnK.s 			page 19


 713 009c 7B69     		ldr	r3, [r7, #20]
 714 009e 5A78     		ldrb	r2, [r3, #1]
 715 00a0 904B     		ldr	r3, .L58+12
 716 00a2 9A71     		strb	r2, [r3, #6]
 220:main.c        ****                 
 221:main.c        ****                 #ifdef PRINT_MESSAGE_LOG   
 222:main.c        ****                     UART_UartPutString("\n\r\n\rServer with matching custom service discovered...")
 717              		.loc 1 222 0
 718 00a4 904B     		ldr	r3, .L58+16
 719 00a6 1800     		movs	r0, r3
 720 00a8 FFF7FEFF 		bl	UART_UartPutString
 223:main.c        ****                 #endif
 224:main.c        ****             }           
 225:main.c        ****             break;    
 721              		.loc 1 225 0
 722 00ac 0BE1     		b	.L55
 723              	.L33:
 226:main.c        ****             
 227:main.c        ****         case CYBLE_EVT_GAP_DEVICE_DISCONNECTED:
 228:main.c        ****             UART_UartPutString("\n\r CYBLE_EVT_GAP_DEVICE_DISCONNECTED \n\r");
 724              		.loc 1 228 0
 725 00ae 8F4B     		ldr	r3, .L58+20
 726 00b0 1800     		movs	r0, r3
 727 00b2 FFF7FEFF 		bl	UART_UartPutString
 229:main.c        ****             /* RESET all flags */
 230:main.c        ****             peerDeviceFound         = false;
 728              		.loc 1 230 0
 729 00b6 8A4B     		ldr	r3, .L58+8
 730 00b8 0022     		movs	r2, #0
 731 00ba 1A70     		strb	r2, [r3]
 231:main.c        ****             notificationEnabled     = false;
 732              		.loc 1 231 0
 733 00bc 8C4B     		ldr	r3, .L58+24
 734 00be 0022     		movs	r2, #0
 735 00c0 1A70     		strb	r2, [r3]
 232:main.c        ****             infoExchangeState       = INFO_EXCHANGE_START;
 736              		.loc 1 232 0
 737 00c2 8C4B     		ldr	r3, .L58+28
 738 00c4 0022     		movs	r2, #0
 739 00c6 1A70     		strb	r2, [r3]
 233:main.c        ****             
 234:main.c        ****             #ifdef PRINT_MESSAGE_LOG   
 235:main.c        ****                 UART_UartPutString("\n\r DISCONNECTED!!! \n\r ");
 740              		.loc 1 235 0
 741 00c8 8B4B     		ldr	r3, .L58+32
 742 00ca 1800     		movs	r0, r3
 743 00cc FFF7FEFF 		bl	UART_UartPutString
 236:main.c        ****                 while(0 != (UART_SpiUartGetTxBufferSize() + UART_GET_TX_FIFO_SR_VALID));
 744              		.loc 1 236 0
 745 00d0 C046     		nop
 746              	.L46:
 747              		.loc 1 236 0 is_stmt 0 discriminator 5
 748 00d2 FFF7FEFF 		bl	UART_SpiUartGetTxBufferSize
 749 00d6 0100     		movs	r1, r0
 750 00d8 884B     		ldr	r3, .L58+36
 751 00da 1A68     		ldr	r2, [r3]
 752 00dc 8023     		movs	r3, #128
ARM GAS  C:\Users\Daniela\AppData\Local\Temp\ccANEOnK.s 			page 20


 753 00de 1B02     		lsls	r3, r3, #8
 754 00e0 1340     		ands	r3, r2
 755 00e2 01D0     		beq	.L44
 756              		.loc 1 236 0 discriminator 1
 757 00e4 0123     		movs	r3, #1
 758 00e6 00E0     		b	.L45
 759              	.L44:
 760              		.loc 1 236 0 discriminator 2
 761 00e8 0023     		movs	r3, #0
 762              	.L45:
 763              		.loc 1 236 0 discriminator 4
 764 00ea CB18     		adds	r3, r1, r3
 765 00ec 002B     		cmp	r3, #0
 766 00ee F0D1     		bne	.L46
 237:main.c        ****             #endif
 238:main.c        ****             
 239:main.c        ****             /* RESET Uart and flush all buffers */
 240:main.c        ****             UART_Stop();
 767              		.loc 1 240 0 is_stmt 1
 768 00f0 FFF7FEFF 		bl	UART_Stop
 241:main.c        ****             UART_SpiUartClearTxBuffer();
 769              		.loc 1 241 0
 770 00f4 FFF7FEFF 		bl	UART_SpiUartClearTxBuffer
 242:main.c        ****             UART_SpiUartClearRxBuffer();
 771              		.loc 1 242 0
 772 00f8 FFF7FEFF 		bl	UART_SpiUartClearRxBuffer
 243:main.c        ****             UART_Start();
 773              		.loc 1 243 0
 774 00fc FFF7FEFF 		bl	UART_Start
 244:main.c        ****             
 245:main.c        ****             break;
 775              		.loc 1 245 0
 776 0100 E6E0     		b	.L42
 777              	.L37:
 246:main.c        ****         
 247:main.c        ****         case CYBLE_EVT_GATTC_READ_BY_TYPE_RSP:
 248:main.c        ****             UART_UartPutString("\n\r CYBLE_EVT_GATTC_READ_BY_TYPE_RSP \n\r");
 778              		.loc 1 248 0
 779 0102 7F4B     		ldr	r3, .L58+40
 780 0104 1800     		movs	r0, r3
 781 0106 FFF7FEFF 		bl	UART_UartPutString
 249:main.c        ****             readResponse = (CYBLE_GATTC_READ_BY_TYPE_RSP_PARAM_T *) eventParam;
 782              		.loc 1 249 0
 783 010a 3B68     		ldr	r3, [r7]
 784 010c 3B61     		str	r3, [r7, #16]
 250:main.c        ****             
 251:main.c        ****             if(0 == memcmp((uint8 *)&(readResponse->attrData.attrValue[5]), (uint8 *)uartTxAttrUuid
 785              		.loc 1 251 0
 786 010e 3B69     		ldr	r3, [r7, #16]
 787 0110 5B68     		ldr	r3, [r3, #4]
 788 0112 0533     		adds	r3, r3, #5
 789 0114 7B49     		ldr	r1, .L58+44
 790 0116 1022     		movs	r2, #16
 791 0118 1800     		movs	r0, r3
 792 011a FFF7FEFF 		bl	memcmp
 793 011e 031E     		subs	r3, r0, #0
 794 0120 1CD1     		bne	.L47
ARM GAS  C:\Users\Daniela\AppData\Local\Temp\ccANEOnK.s 			page 21


 252:main.c        ****             {
 253:main.c        ****                 txCharHandle = readResponse->attrData.attrValue[3];
 795              		.loc 1 253 0
 796 0122 3B69     		ldr	r3, [r7, #16]
 797 0124 5B68     		ldr	r3, [r3, #4]
 798 0126 0333     		adds	r3, r3, #3
 799 0128 1B78     		ldrb	r3, [r3]
 800 012a 9AB2     		uxth	r2, r3
 801 012c 764B     		ldr	r3, .L58+48
 802 012e 1A80     		strh	r2, [r3]
 254:main.c        ****                 txCharHandle |= (readResponse->attrData.attrValue[4] << 8);
 803              		.loc 1 254 0
 804 0130 3B69     		ldr	r3, [r7, #16]
 805 0132 5B68     		ldr	r3, [r3, #4]
 806 0134 0433     		adds	r3, r3, #4
 807 0136 1B78     		ldrb	r3, [r3]
 808 0138 1B02     		lsls	r3, r3, #8
 809 013a 1AB2     		sxth	r2, r3
 810 013c 724B     		ldr	r3, .L58+48
 811 013e 1B88     		ldrh	r3, [r3]
 812 0140 1BB2     		sxth	r3, r3
 813 0142 1343     		orrs	r3, r2
 814 0144 1BB2     		sxth	r3, r3
 815 0146 9AB2     		uxth	r2, r3
 816 0148 6F4B     		ldr	r3, .L58+48
 817 014a 1A80     		strh	r2, [r3]
 255:main.c        ****                 
 256:main.c        ****                 infoExchangeState |= TX_ATTR_HANDLE_FOUND;
 818              		.loc 1 256 0
 819 014c 694B     		ldr	r3, .L58+28
 820 014e 1B78     		ldrb	r3, [r3]
 821 0150 0222     		movs	r2, #2
 822 0152 1343     		orrs	r3, r2
 823 0154 DAB2     		uxtb	r2, r3
 824 0156 674B     		ldr	r3, .L58+28
 825 0158 1A70     		strb	r2, [r3]
 257:main.c        ****             }
 258:main.c        ****             else if(0 == memcmp((uint8 *)&(readResponse->attrData.attrValue[5]), (uint8 *)uartRxAtt
 259:main.c        ****             {
 260:main.c        ****                 rxCharHandle = readResponse->attrData.attrValue[3];
 261:main.c        ****                 rxCharHandle |= (readResponse->attrData.attrValue[4] << 8);
 262:main.c        ****                 
 263:main.c        ****                 infoExchangeState |= RX_ATTR_HANDLE_FOUND;
 264:main.c        ****             }
 265:main.c        **** 
 266:main.c        ****             break;
 826              		.loc 1 266 0
 827 015a B6E0     		b	.L56
 828              	.L47:
 258:main.c        ****             {
 829              		.loc 1 258 0
 830 015c 3B69     		ldr	r3, [r7, #16]
 831 015e 5B68     		ldr	r3, [r3, #4]
 832 0160 0533     		adds	r3, r3, #5
 833 0162 6A49     		ldr	r1, .L58+52
 834 0164 1022     		movs	r2, #16
 835 0166 1800     		movs	r0, r3
ARM GAS  C:\Users\Daniela\AppData\Local\Temp\ccANEOnK.s 			page 22


 836 0168 FFF7FEFF 		bl	memcmp
 837 016c 031E     		subs	r3, r0, #0
 838 016e 00D0     		beq	.LCB432
 839 0170 ABE0     		b	.L56	@long jump
 840              	.LCB432:
 260:main.c        ****                 rxCharHandle |= (readResponse->attrData.attrValue[4] << 8);
 841              		.loc 1 260 0
 842 0172 3B69     		ldr	r3, [r7, #16]
 843 0174 5B68     		ldr	r3, [r3, #4]
 844 0176 0333     		adds	r3, r3, #3
 845 0178 1B78     		ldrb	r3, [r3]
 846 017a 9AB2     		uxth	r2, r3
 847 017c 644B     		ldr	r3, .L58+56
 848 017e 1A80     		strh	r2, [r3]
 261:main.c        ****                 
 849              		.loc 1 261 0
 850 0180 3B69     		ldr	r3, [r7, #16]
 851 0182 5B68     		ldr	r3, [r3, #4]
 852 0184 0433     		adds	r3, r3, #4
 853 0186 1B78     		ldrb	r3, [r3]
 854 0188 1B02     		lsls	r3, r3, #8
 855 018a 1AB2     		sxth	r2, r3
 856 018c 604B     		ldr	r3, .L58+56
 857 018e 1B88     		ldrh	r3, [r3]
 858 0190 1BB2     		sxth	r3, r3
 859 0192 1343     		orrs	r3, r2
 860 0194 1BB2     		sxth	r3, r3
 861 0196 9AB2     		uxth	r2, r3
 862 0198 5D4B     		ldr	r3, .L58+56
 863 019a 1A80     		strh	r2, [r3]
 263:main.c        ****             }
 864              		.loc 1 263 0
 865 019c 554B     		ldr	r3, .L58+28
 866 019e 1B78     		ldrb	r3, [r3]
 867 01a0 0422     		movs	r2, #4
 868 01a2 1343     		orrs	r3, r2
 869 01a4 DAB2     		uxtb	r2, r3
 870 01a6 534B     		ldr	r3, .L58+28
 871 01a8 1A70     		strb	r2, [r3]
 872              		.loc 1 266 0
 873 01aa 8EE0     		b	.L56
 874              	.L38:
 267:main.c        ****             
 268:main.c        ****         case CYBLE_EVT_GATTC_FIND_INFO_RSP:
 269:main.c        ****             UART_UartPutString("\n\r CYBLE_EVT_GATTC_FIND_INFO_RSP \n\r");
 875              		.loc 1 269 0
 876 01ac 594B     		ldr	r3, .L58+60
 877 01ae 1800     		movs	r0, r3
 878 01b0 FFF7FEFF 		bl	UART_UartPutString
 270:main.c        ****             findInfoResponse = (CYBLE_GATTC_FIND_INFO_RSP_PARAM_T *) eventParam;
 879              		.loc 1 270 0
 880 01b4 3B68     		ldr	r3, [r7]
 881 01b6 FB60     		str	r3, [r7, #12]
 271:main.c        ****             
 272:main.c        ****             if((0x29 == findInfoResponse->handleValueList.list[3]) && \
 882              		.loc 1 272 0
 883 01b8 FB68     		ldr	r3, [r7, #12]
ARM GAS  C:\Users\Daniela\AppData\Local\Temp\ccANEOnK.s 			page 23


 884 01ba 5B68     		ldr	r3, [r3, #4]
 885 01bc 0333     		adds	r3, r3, #3
 886 01be 1B78     		ldrb	r3, [r3]
 887 01c0 292B     		cmp	r3, #41
 888 01c2 00D0     		beq	.LCB475
 889 01c4 83E0     		b	.L57	@long jump
 890              	.LCB475:
 273:main.c        ****                                 (0x02 == findInfoResponse->handleValueList.list[2]))
 891              		.loc 1 273 0 discriminator 1
 892 01c6 FB68     		ldr	r3, [r7, #12]
 893 01c8 5B68     		ldr	r3, [r3, #4]
 894 01ca 0233     		adds	r3, r3, #2
 895 01cc 1B78     		ldrb	r3, [r3]
 272:main.c        ****                                 (0x02 == findInfoResponse->handleValueList.list[2]))
 896              		.loc 1 272 0 discriminator 1
 897 01ce 022B     		cmp	r3, #2
 898 01d0 00D0     		beq	.LCB481
 899 01d2 7CE0     		b	.L57	@long jump
 900              	.LCB481:
 274:main.c        ****             {
 275:main.c        ****                 txCharDescHandle = findInfoResponse->handleValueList.list[0];
 901              		.loc 1 275 0
 902 01d4 FB68     		ldr	r3, [r7, #12]
 903 01d6 5B68     		ldr	r3, [r3, #4]
 904 01d8 1B78     		ldrb	r3, [r3]
 905 01da 9AB2     		uxth	r2, r3
 906 01dc 4E4B     		ldr	r3, .L58+64
 907 01de 1A80     		strh	r2, [r3]
 276:main.c        ****                 txCharDescHandle |= findInfoResponse->handleValueList.list[1] << 8;
 908              		.loc 1 276 0
 909 01e0 FB68     		ldr	r3, [r7, #12]
 910 01e2 5B68     		ldr	r3, [r3, #4]
 911 01e4 0133     		adds	r3, r3, #1
 912 01e6 1B78     		ldrb	r3, [r3]
 913 01e8 1B02     		lsls	r3, r3, #8
 914 01ea 1AB2     		sxth	r2, r3
 915 01ec 4A4B     		ldr	r3, .L58+64
 916 01ee 1B88     		ldrh	r3, [r3]
 917 01f0 1BB2     		sxth	r3, r3
 918 01f2 1343     		orrs	r3, r2
 919 01f4 1BB2     		sxth	r3, r3
 920 01f6 9AB2     		uxth	r2, r3
 921 01f8 474B     		ldr	r3, .L58+64
 922 01fa 1A80     		strh	r2, [r3]
 277:main.c        ****             
 278:main.c        ****                 infoExchangeState |= TX_CCCD_HANDLE_FOUND;
 923              		.loc 1 278 0
 924 01fc 3D4B     		ldr	r3, .L58+28
 925 01fe 1B78     		ldrb	r3, [r3]
 926 0200 0822     		movs	r2, #8
 927 0202 1343     		orrs	r3, r2
 928 0204 DAB2     		uxtb	r2, r3
 929 0206 3B4B     		ldr	r3, .L58+28
 930 0208 1A70     		strb	r2, [r3]
 279:main.c        ****             }
 280:main.c        ****            
 281:main.c        ****             break;
ARM GAS  C:\Users\Daniela\AppData\Local\Temp\ccANEOnK.s 			page 24


 931              		.loc 1 281 0
 932 020a 60E0     		b	.L57
 933              	.L36:
 282:main.c        ****             
 283:main.c        ****         case CYBLE_EVT_GATTC_XCHNG_MTU_RSP:   
 284:main.c        ****             UART_UartPutString("\n\r CYBLE_EVT_GATTC_XCHNG_MTU_RSP \n\r");
 934              		.loc 1 284 0
 935 020c 434B     		ldr	r3, .L58+68
 936 020e 1800     		movs	r0, r3
 937 0210 FFF7FEFF 		bl	UART_UartPutString
 285:main.c        ****             /*set the 'mtuSize' variable based on the minimum MTU supported by both devices */
 286:main.c        ****             if(CYBLE_GATT_MTU > ((CYBLE_GATT_XCHG_MTU_PARAM_T *)eventParam)->mtu)
 938              		.loc 1 286 0
 939 0214 3B68     		ldr	r3, [r7]
 940 0216 5B88     		ldrh	r3, [r3, #2]
 941 0218 162B     		cmp	r3, #22
 942 021a 04D8     		bhi	.L50
 287:main.c        ****             {
 288:main.c        ****                 mtuSize = ((CYBLE_GATT_XCHG_MTU_PARAM_T *)eventParam)->mtu;
 943              		.loc 1 288 0
 944 021c 3B68     		ldr	r3, [r7]
 945 021e 5A88     		ldrh	r2, [r3, #2]
 946 0220 3F4B     		ldr	r3, .L58+72
 947 0222 1A80     		strh	r2, [r3]
 948 0224 02E0     		b	.L51
 949              	.L50:
 289:main.c        ****             }
 290:main.c        ****             else
 291:main.c        ****             {
 292:main.c        ****                 mtuSize = CYBLE_GATT_MTU;
 950              		.loc 1 292 0
 951 0226 3E4B     		ldr	r3, .L58+72
 952 0228 1722     		movs	r2, #23
 953 022a 1A80     		strh	r2, [r3]
 954              	.L51:
 293:main.c        ****             }
 294:main.c        ****             
 295:main.c        ****             infoExchangeState |= MTU_XCHNG_COMPLETE;
 955              		.loc 1 295 0
 956 022c 314B     		ldr	r3, .L58+28
 957 022e 1B78     		ldrb	r3, [r3]
 958 0230 1022     		movs	r2, #16
 959 0232 1343     		orrs	r3, r2
 960 0234 DAB2     		uxtb	r2, r3
 961 0236 2F4B     		ldr	r3, .L58+28
 962 0238 1A70     		strb	r2, [r3]
 296:main.c        ****             
 297:main.c        ****             break;
 963              		.loc 1 297 0
 964 023a 49E0     		b	.L42
 965              	.L41:
 298:main.c        ****             
 299:main.c        ****         case CYBLE_EVT_GATTC_HANDLE_VALUE_NTF:
 300:main.c        ****             UART_UartPutString("\n\r CYBLE_EVT_GATTC_HANDLE_VALUE_NTF  \n\r");
 966              		.loc 1 300 0
 967 023c 394B     		ldr	r3, .L58+76
 968 023e 1800     		movs	r0, r3
ARM GAS  C:\Users\Daniela\AppData\Local\Temp\ccANEOnK.s 			page 25


 969 0240 FFF7FEFF 		bl	UART_UartPutString
 301:main.c        ****             HandleUartRxTraffic((CYBLE_GATTC_HANDLE_VALUE_NTF_PARAM_T *)eventParam);
 970              		.loc 1 301 0
 971 0244 3B68     		ldr	r3, [r7]
 972 0246 1800     		movs	r0, r3
 973 0248 FFF7FEFF 		bl	HandleUartRxTraffic
 302:main.c        **** 			
 303:main.c        ****             break;
 974              		.loc 1 303 0
 975 024c 40E0     		b	.L42
 976              	.L39:
 304:main.c        ****         
 305:main.c        ****         case CYBLE_EVT_GATTC_FIND_BY_TYPE_VALUE_RSP:
 306:main.c        ****             UART_UartPutString("\n\r CYBLE_EVT_GATTC_FIND_BY_TYPE_VALUE_RSP \n\r");
 977              		.loc 1 306 0
 978 024e 364B     		ldr	r3, .L58+80
 979 0250 1800     		movs	r0, r3
 980 0252 FFF7FEFF 		bl	UART_UartPutString
 307:main.c        ****             findResponse            = (CYBLE_GATTC_FIND_BY_TYPE_RSP_PARAM_T *) eventParam;
 981              		.loc 1 307 0
 982 0256 3B68     		ldr	r3, [r7]
 983 0258 BB60     		str	r3, [r7, #8]
 308:main.c        ****             
 309:main.c        ****             bleUartServiceHandle    = findResponse->range->startHandle;
 984              		.loc 1 309 0
 985 025a BB68     		ldr	r3, [r7, #8]
 986 025c 5B68     		ldr	r3, [r3, #4]
 987 025e 1A88     		ldrh	r2, [r3]
 988 0260 324B     		ldr	r3, .L58+84
 989 0262 1A80     		strh	r2, [r3]
 310:main.c        ****             bleUartServiceEndHandle = findResponse->range->endHandle;
 990              		.loc 1 310 0
 991 0264 BB68     		ldr	r3, [r7, #8]
 992 0266 5B68     		ldr	r3, [r3, #4]
 993 0268 5A88     		ldrh	r2, [r3, #2]
 994 026a 314B     		ldr	r3, .L58+88
 995 026c 1A80     		strh	r2, [r3]
 311:main.c        ****             
 312:main.c        ****             infoExchangeState |= BLE_UART_SERVICE_HANDLE_FOUND;
 996              		.loc 1 312 0
 997 026e 214B     		ldr	r3, .L58+28
 998 0270 1B78     		ldrb	r3, [r3]
 999 0272 0122     		movs	r2, #1
 1000 0274 1343     		orrs	r3, r2
 1001 0276 DAB2     		uxtb	r2, r3
 1002 0278 1E4B     		ldr	r3, .L58+28
 1003 027a 1A70     		strb	r2, [r3]
 313:main.c        ****             
 314:main.c        ****             break;
 1004              		.loc 1 314 0
 1005 027c 28E0     		b	.L42
 1006              	.L35:
 315:main.c        ****         
 316:main.c        ****         case CYBLE_EVT_GATTS_XCNHG_MTU_REQ:
 317:main.c        ****             UART_UartPutString("\n\r CYBLE_EVT_GATTS_XCNHG_MTU_REQ \n\r");
 1007              		.loc 1 317 0
 1008 027e 2D4B     		ldr	r3, .L58+92
ARM GAS  C:\Users\Daniela\AppData\Local\Temp\ccANEOnK.s 			page 26


 1009 0280 1800     		movs	r0, r3
 1010 0282 FFF7FEFF 		bl	UART_UartPutString
 318:main.c        ****             /*set the 'mtuSize' variable based on the minimum MTU supported by both devices */
 319:main.c        ****             if(CYBLE_GATT_MTU > ((CYBLE_GATT_XCHG_MTU_PARAM_T *)eventParam)->mtu)
 1011              		.loc 1 319 0
 1012 0286 3B68     		ldr	r3, [r7]
 1013 0288 5B88     		ldrh	r3, [r3, #2]
 1014 028a 162B     		cmp	r3, #22
 1015 028c 04D8     		bhi	.L52
 320:main.c        ****             {
 321:main.c        ****                 mtuSize = ((CYBLE_GATT_XCHG_MTU_PARAM_T *)eventParam)->mtu;
 1016              		.loc 1 321 0
 1017 028e 3B68     		ldr	r3, [r7]
 1018 0290 5A88     		ldrh	r2, [r3, #2]
 1019 0292 234B     		ldr	r3, .L58+72
 1020 0294 1A80     		strh	r2, [r3]
 322:main.c        ****             }
 323:main.c        ****             else
 324:main.c        ****             {
 325:main.c        ****                 mtuSize = CYBLE_GATT_MTU;
 326:main.c        ****             }
 327:main.c        ****             
 328:main.c        ****             break;    
 1021              		.loc 1 328 0
 1022 0296 1BE0     		b	.L42
 1023              	.L52:
 325:main.c        ****             }
 1024              		.loc 1 325 0
 1025 0298 214B     		ldr	r3, .L58+72
 1026 029a 1722     		movs	r2, #23
 1027 029c 1A80     		strh	r2, [r3]
 1028              		.loc 1 328 0
 1029 029e 17E0     		b	.L42
 1030              	.L40:
 329:main.c        ****         
 330:main.c        ****         case CYBLE_EVT_GATTC_WRITE_RSP:
 331:main.c        ****             
 332:main.c        ****             notificationEnabled = true;
 1031              		.loc 1 332 0
 1032 02a0 134B     		ldr	r3, .L58+24
 1033 02a2 0122     		movs	r2, #1
 1034 02a4 1A70     		strb	r2, [r3]
 333:main.c        ****             
 334:main.c        ****             #ifdef PRINT_MESSAGE_LOG   
 335:main.c        ****                 UART_UartPutString("\n\rNotifications enabled\n\r");
 1035              		.loc 1 335 0
 1036 02a6 244B     		ldr	r3, .L58+96
 1037 02a8 1800     		movs	r0, r3
 1038 02aa FFF7FEFF 		bl	UART_UartPutString
 336:main.c        ****                 UART_UartPutString("\n\rStart entering data:\n\r");
 1039              		.loc 1 336 0
 1040 02ae 234B     		ldr	r3, .L58+100
 1041 02b0 1800     		movs	r0, r3
 1042 02b2 FFF7FEFF 		bl	UART_UartPutString
 337:main.c        ****             #endif
 338:main.c        ****             
 339:main.c        ****             break;
ARM GAS  C:\Users\Daniela\AppData\Local\Temp\ccANEOnK.s 			page 27


 1043              		.loc 1 339 0
 1044 02b6 0BE0     		b	.L42
 1045              	.L34:
 340:main.c        ****         
 341:main.c        ****         case CYBLE_EVT_GATT_CONNECT_IND:
 342:main.c        ****             
 343:main.c        ****             #ifdef PRINT_MESSAGE_LOG   
 344:main.c        ****                 UART_UartPutString("\n\rConnection established");             
 1046              		.loc 1 344 0
 1047 02b8 214B     		ldr	r3, .L58+104
 1048 02ba 1800     		movs	r0, r3
 1049 02bc FFF7FEFF 		bl	UART_UartPutString
 345:main.c        ****             #endif
 346:main.c        ****             
 347:main.c        ****             break;
 1050              		.loc 1 347 0
 1051 02c0 06E0     		b	.L42
 1052              	.L54:
 348:main.c        ****             
 349:main.c        ****         default:            
 350:main.c        ****             break;
 1053              		.loc 1 350 0
 1054 02c2 C046     		nop
 1055 02c4 04E0     		b	.L42
 1056              	.L55:
 225:main.c        ****             
 1057              		.loc 1 225 0
 1058 02c6 C046     		nop
 1059 02c8 02E0     		b	.L42
 1060              	.L56:
 266:main.c        ****             
 1061              		.loc 1 266 0
 1062 02ca C046     		nop
 1063 02cc 00E0     		b	.L42
 1064              	.L57:
 281:main.c        ****             
 1065              		.loc 1 281 0
 1066 02ce C046     		nop
 1067              	.L42:
 351:main.c        ****     }
 352:main.c        **** }
 1068              		.loc 1 352 0
 1069 02d0 C046     		nop
 1070 02d2 BD46     		mov	sp, r7
 1071 02d4 06B0     		add	sp, sp, #24
 1072              		@ sp needed
 1073 02d6 80BD     		pop	{r7, pc}
 1074              	.L59:
 1075              		.align	2
 1076              	.L58:
 1077 02d8 88020000 		.word	.L31
 1078 02dc A4000000 		.word	.LC16
 1079 02e0 00000000 		.word	peerDeviceFound
 1080 02e4 10000000 		.word	peerAddr
 1081 02e8 D0000000 		.word	.LC20
 1082 02ec 08010000 		.word	.LC22
 1083 02f0 01000000 		.word	notificationEnabled
ARM GAS  C:\Users\Daniela\AppData\Local\Temp\ccANEOnK.s 			page 28


 1084 02f4 0C000000 		.word	infoExchangeState
 1085 02f8 30010000 		.word	.LC26
 1086 02fc 08022440 		.word	1076101640
 1087 0300 48010000 		.word	.LC28
 1088 0304 00000000 		.word	uartTxAttrUuid
 1089 0308 00000000 		.word	txCharHandle
 1090 030c 00000000 		.word	uartRxAttrUuid
 1091 0310 00000000 		.word	rxCharHandle
 1092 0314 70010000 		.word	.LC34
 1093 0318 00000000 		.word	txCharDescHandle
 1094 031c 94010000 		.word	.LC37
 1095 0320 00000000 		.word	mtuSize
 1096 0324 B8010000 		.word	.LC40
 1097 0328 E0010000 		.word	.LC42
 1098 032c 00000000 		.word	bleUartServiceHandle
 1099 0330 00000000 		.word	bleUartServiceEndHandle
 1100 0334 10020000 		.word	.LC46
 1101 0338 34020000 		.word	.LC48
 1102 033c 50020000 		.word	.LC50
 1103 0340 6C020000 		.word	.LC52
 1104              		.cfi_endproc
 1105              	.LFE40:
 1106              		.size	AppCallBack, .-AppCallBack
 1107              		.section	.text.attrHandleInit,"ax",%progbits
 1108              		.align	2
 1109              		.global	attrHandleInit
 1110              		.code	16
 1111              		.thumb_func
 1112              		.type	attrHandleInit, %function
 1113              	attrHandleInit:
 1114              	.LFB41:
 353:main.c        **** 
 354:main.c        **** 
 355:main.c        **** /*******************************************************************************
 356:main.c        **** * Function Name: attrHandleInit
 357:main.c        **** ********************************************************************************
 358:main.c        **** *
 359:main.c        **** * Summary:
 360:main.c        **** *  This function gathhers all the information like attribute handles and MTU size
 361:main.c        **** *  from the server.
 362:main.c        **** *
 363:main.c        **** * Parameters:
 364:main.c        **** *  None.
 365:main.c        **** *
 366:main.c        **** * Return:
 367:main.c        **** *   None.
 368:main.c        **** *
 369:main.c        **** *******************************************************************************/
 370:main.c        **** void attrHandleInit()
 371:main.c        **** {
 1115              		.loc 1 371 0
 1116              		.cfi_startproc
 1117              		@ args = 0, pretend = 0, frame = 0
 1118              		@ frame_needed = 1, uses_anonymous_args = 0
 1119 0000 80B5     		push	{r7, lr}
 1120              		.cfi_def_cfa_offset 8
 1121              		.cfi_offset 7, -8
ARM GAS  C:\Users\Daniela\AppData\Local\Temp\ccANEOnK.s 			page 29


 1122              		.cfi_offset 14, -4
 1123 0002 00AF     		add	r7, sp, #0
 1124              		.cfi_def_cfa_register 7
 372:main.c        ****     switch(infoExchangeState)
 1125              		.loc 1 372 0
 1126 0004 354B     		ldr	r3, .L68
 1127 0006 1B78     		ldrb	r3, [r3]
 1128 0008 012B     		cmp	r3, #1
 1129 000a 1AD0     		beq	.L62
 1130 000c 02DC     		bgt	.L63
 1131 000e 002B     		cmp	r3, #0
 1132 0010 05D0     		beq	.L64
 373:main.c        ****     {
 374:main.c        ****         case INFO_EXCHANGE_START:        
 375:main.c        ****             CyBle_GattcDiscoverPrimaryServiceByUuid(cyBle_connHandle, bleUartServiceUuidInfo);
 376:main.c        ****             break;
 377:main.c        ****         
 378:main.c        ****         case BLE_UART_SERVICE_HANDLE_FOUND:
 379:main.c        ****             attrHandleRange.startHandle    = bleUartServiceHandle;
 380:main.c        ****             attrHandleRange.endHandle      = bleUartServiceEndHandle;
 381:main.c        **** 
 382:main.c        ****             CyBle_GattcDiscoverAllCharacteristics(cyBle_connHandle, attrHandleRange);
 383:main.c        ****             break;
 384:main.c        ****         
 385:main.c        ****         case (SERVICE_AND_CHAR_HANDLES_FOUND):
 386:main.c        ****             charDescHandleRange.startHandle = txCharHandle + 1;
 387:main.c        ****             charDescHandleRange.endHandle   = bleUartServiceEndHandle;
 388:main.c        **** 
 389:main.c        ****             CyBle_GattcDiscoverAllCharacteristicDescriptors(cyBle_connHandle, &charDescHandleRange)
 390:main.c        ****             break;
 391:main.c        ****         
 392:main.c        ****         case (ALL_HANDLES_FOUND):
 393:main.c        ****             CyBle_GattcExchangeMtuReq(cyBle_connHandle, CYBLE_GATT_MTU);
 394:main.c        ****             break;    
 395:main.c        ****             
 396:main.c        ****         default:
 397:main.c        ****             break;    
 1133              		.loc 1 397 0
 1134 0012 5EE0     		b	.L67
 1135              	.L63:
 372:main.c        ****     switch(infoExchangeState)
 1136              		.loc 1 372 0
 1137 0014 072B     		cmp	r3, #7
 1138 0016 32D0     		beq	.L65
 1139 0018 0F2B     		cmp	r3, #15
 1140 001a 4AD0     		beq	.L66
 1141              		.loc 1 397 0
 1142 001c 59E0     		b	.L67
 1143              	.L64:
 375:main.c        ****             break;
 1144              		.loc 1 375 0
 1145 001e 304B     		ldr	r3, .L68+4
 1146 0020 304A     		ldr	r2, .L68+8
 1147 0022 1178     		ldrb	r1, [r2]
 1148 0024 5278     		ldrb	r2, [r2, #1]
 1149 0026 1202     		lsls	r2, r2, #8
 1150 0028 0A43     		orrs	r2, r1
ARM GAS  C:\Users\Daniela\AppData\Local\Temp\ccANEOnK.s 			page 30


 1151 002a 0020     		movs	r0, #0
 1152 002c 1204     		lsls	r2, r2, #16
 1153 002e 120C     		lsrs	r2, r2, #16
 1154 0030 010C     		lsrs	r1, r0, #16
 1155 0032 0904     		lsls	r1, r1, #16
 1156 0034 0A43     		orrs	r2, r1
 1157 0036 1000     		movs	r0, r2
 1158 0038 1968     		ldr	r1, [r3]
 1159 003a 5A68     		ldr	r2, [r3, #4]
 1160 003c FFF7FEFF 		bl	CyBle_GattcDiscoverPrimaryServiceByUuid
 376:main.c        ****         
 1161              		.loc 1 376 0
 1162 0040 47E0     		b	.L67
 1163              	.L62:
 379:main.c        ****             attrHandleRange.endHandle      = bleUartServiceEndHandle;
 1164              		.loc 1 379 0
 1165 0042 294B     		ldr	r3, .L68+12
 1166 0044 1A88     		ldrh	r2, [r3]
 1167 0046 294B     		ldr	r3, .L68+16
 1168 0048 1A80     		strh	r2, [r3]
 380:main.c        **** 
 1169              		.loc 1 380 0
 1170 004a 294B     		ldr	r3, .L68+20
 1171 004c 1A88     		ldrh	r2, [r3]
 1172 004e 274B     		ldr	r3, .L68+16
 1173 0050 5A80     		strh	r2, [r3, #2]
 382:main.c        ****             break;
 1174              		.loc 1 382 0
 1175 0052 264A     		ldr	r2, .L68+16
 1176 0054 234B     		ldr	r3, .L68+8
 1177 0056 1188     		ldrh	r1, [r2]
 1178 0058 5288     		ldrh	r2, [r2, #2]
 1179 005a 1204     		lsls	r2, r2, #16
 1180 005c 0A43     		orrs	r2, r1
 1181 005e 0021     		movs	r1, #0
 1182 0060 1100     		movs	r1, r2
 1183 0062 1A78     		ldrb	r2, [r3]
 1184 0064 5B78     		ldrb	r3, [r3, #1]
 1185 0066 1B02     		lsls	r3, r3, #8
 1186 0068 1A43     		orrs	r2, r3
 1187 006a 0023     		movs	r3, #0
 1188 006c 1204     		lsls	r2, r2, #16
 1189 006e 120C     		lsrs	r2, r2, #16
 1190 0070 1B0C     		lsrs	r3, r3, #16
 1191 0072 1B04     		lsls	r3, r3, #16
 1192 0074 1343     		orrs	r3, r2
 1193 0076 1800     		movs	r0, r3
 1194 0078 FFF7FEFF 		bl	CyBle_GattcDiscoverAllCharacteristics
 383:main.c        ****         
 1195              		.loc 1 383 0
 1196 007c 29E0     		b	.L67
 1197              	.L65:
 386:main.c        ****             charDescHandleRange.endHandle   = bleUartServiceEndHandle;
 1198              		.loc 1 386 0
 1199 007e 1D4B     		ldr	r3, .L68+24
 1200 0080 1B88     		ldrh	r3, [r3]
 1201 0082 0133     		adds	r3, r3, #1
ARM GAS  C:\Users\Daniela\AppData\Local\Temp\ccANEOnK.s 			page 31


 1202 0084 9AB2     		uxth	r2, r3
 1203 0086 1C4B     		ldr	r3, .L68+28
 1204 0088 1A80     		strh	r2, [r3]
 387:main.c        **** 
 1205              		.loc 1 387 0
 1206 008a 194B     		ldr	r3, .L68+20
 1207 008c 1A88     		ldrh	r2, [r3]
 1208 008e 1A4B     		ldr	r3, .L68+28
 1209 0090 5A80     		strh	r2, [r3, #2]
 389:main.c        ****             break;
 1210              		.loc 1 389 0
 1211 0092 1949     		ldr	r1, .L68+28
 1212 0094 134B     		ldr	r3, .L68+8
 1213 0096 1A78     		ldrb	r2, [r3]
 1214 0098 5B78     		ldrb	r3, [r3, #1]
 1215 009a 1B02     		lsls	r3, r3, #8
 1216 009c 1A43     		orrs	r2, r3
 1217 009e 0023     		movs	r3, #0
 1218 00a0 1204     		lsls	r2, r2, #16
 1219 00a2 120C     		lsrs	r2, r2, #16
 1220 00a4 1B0C     		lsrs	r3, r3, #16
 1221 00a6 1B04     		lsls	r3, r3, #16
 1222 00a8 1343     		orrs	r3, r2
 1223 00aa 1800     		movs	r0, r3
 1224 00ac FFF7FEFF 		bl	CyBle_GattcDiscoverAllCharacteristicDescriptors
 390:main.c        ****         
 1225              		.loc 1 390 0
 1226 00b0 0FE0     		b	.L67
 1227              	.L66:
 393:main.c        ****             break;    
 1228              		.loc 1 393 0
 1229 00b2 0C4B     		ldr	r3, .L68+8
 1230 00b4 1A78     		ldrb	r2, [r3]
 1231 00b6 5B78     		ldrb	r3, [r3, #1]
 1232 00b8 1B02     		lsls	r3, r3, #8
 1233 00ba 1A43     		orrs	r2, r3
 1234 00bc 0023     		movs	r3, #0
 1235 00be 1204     		lsls	r2, r2, #16
 1236 00c0 120C     		lsrs	r2, r2, #16
 1237 00c2 1B0C     		lsrs	r3, r3, #16
 1238 00c4 1B04     		lsls	r3, r3, #16
 1239 00c6 1343     		orrs	r3, r2
 1240 00c8 1721     		movs	r1, #23
 1241 00ca 1800     		movs	r0, r3
 1242 00cc FFF7FEFF 		bl	CyBle_GattcExchangeMtuReq
 394:main.c        ****             
 1243              		.loc 1 394 0
 1244 00d0 C046     		nop
 1245              	.L67:
 398:main.c        ****     }
 399:main.c        ****     
 400:main.c        ****     CyBle_ProcessEvents();
 1246              		.loc 1 400 0
 1247 00d2 FFF7FEFF 		bl	CyBle_ProcessEvents
 401:main.c        **** }
 1248              		.loc 1 401 0
 1249 00d6 C046     		nop
ARM GAS  C:\Users\Daniela\AppData\Local\Temp\ccANEOnK.s 			page 32


 1250 00d8 BD46     		mov	sp, r7
 1251              		@ sp needed
 1252 00da 80BD     		pop	{r7, pc}
 1253              	.L69:
 1254              		.align	2
 1255              	.L68:
 1256 00dc 0C000000 		.word	infoExchangeState
 1257 00e0 00000000 		.word	bleUartServiceUuidInfo
 1258 00e4 00000000 		.word	cyBle_connHandle
 1259 00e8 00000000 		.word	bleUartServiceHandle
 1260 00ec 00000000 		.word	attrHandleRange
 1261 00f0 00000000 		.word	bleUartServiceEndHandle
 1262 00f4 00000000 		.word	txCharHandle
 1263 00f8 00000000 		.word	charDescHandleRange
 1264              		.cfi_endproc
 1265              	.LFE41:
 1266              		.size	attrHandleInit, .-attrHandleInit
 1267              		.section	.text.enableNotifications,"ax",%progbits
 1268              		.align	2
 1269              		.global	enableNotifications
 1270              		.code	16
 1271              		.thumb_func
 1272              		.type	enableNotifications, %function
 1273              	enableNotifications:
 1274              	.LFB42:
 402:main.c        **** 
 403:main.c        **** void enableNotifications()
 404:main.c        **** {     
 1275              		.loc 1 404 0
 1276              		.cfi_startproc
 1277              		@ args = 0, pretend = 0, frame = 0
 1278              		@ frame_needed = 1, uses_anonymous_args = 0
 1279 0000 80B5     		push	{r7, lr}
 1280              		.cfi_def_cfa_offset 8
 1281              		.cfi_offset 7, -8
 1282              		.cfi_offset 14, -4
 1283 0002 00AF     		add	r7, sp, #0
 1284              		.cfi_def_cfa_register 7
 405:main.c        ****     enableNotificationReqParam.attrHandle = txCharDescHandle;   
 1285              		.loc 1 405 0
 1286 0004 0A4B     		ldr	r3, .L71
 1287 0006 1A88     		ldrh	r2, [r3]
 1288 0008 0A4B     		ldr	r3, .L71+4
 1289 000a 1A81     		strh	r2, [r3, #8]
 406:main.c        ****     CyBle_GattcWriteCharacteristicDescriptors(cyBle_connHandle, (CYBLE_GATTC_WRITE_REQ_T *)(&enable
 1290              		.loc 1 406 0
 1291 000c 0949     		ldr	r1, .L71+4
 1292 000e 0A4B     		ldr	r3, .L71+8
 1293 0010 1A78     		ldrb	r2, [r3]
 1294 0012 5B78     		ldrb	r3, [r3, #1]
 1295 0014 1B02     		lsls	r3, r3, #8
 1296 0016 1A43     		orrs	r2, r3
 1297 0018 0023     		movs	r3, #0
 1298 001a 1204     		lsls	r2, r2, #16
 1299 001c 120C     		lsrs	r2, r2, #16
 1300 001e 1B0C     		lsrs	r3, r3, #16
 1301 0020 1B04     		lsls	r3, r3, #16
ARM GAS  C:\Users\Daniela\AppData\Local\Temp\ccANEOnK.s 			page 33


 1302 0022 1343     		orrs	r3, r2
 1303 0024 1800     		movs	r0, r3
 1304 0026 FFF7FEFF 		bl	CyBle_GattcWriteCharacteristicDescriptors
 407:main.c        **** }
 1305              		.loc 1 407 0
 1306 002a C046     		nop
 1307 002c BD46     		mov	sp, r7
 1308              		@ sp needed
 1309 002e 80BD     		pop	{r7, pc}
 1310              	.L72:
 1311              		.align	2
 1312              	.L71:
 1313 0030 00000000 		.word	txCharDescHandle
 1314 0034 00000000 		.word	enableNotificationReqParam
 1315 0038 00000000 		.word	cyBle_connHandle
 1316              		.cfi_endproc
 1317              	.LFE42:
 1318              		.size	enableNotifications, .-enableNotifications
 1319              		.text
 1320              	.Letext0:
 1321              		.file 2 "Generated_Source\\PSoC4/cytypes.h"
 1322              		.file 3 "Generated_Source\\PSoC4/BLE_Stack.h"
 1323              		.file 4 "Generated_Source\\PSoC4/BLE_StackGap.h"
 1324              		.file 5 "Generated_Source\\PSoC4/BLE_StackGatt.h"
 1325              		.file 6 "Generated_Source\\PSoC4/BLE_StackGattClient.h"
 1326              		.file 7 "Generated_Source\\PSoC4/BLE_eventHandler.h"
 1327              		.file 8 "app_Ble.h"
 1328              		.file 9 "main.h"