ARM GAS  C:\Users\Daniela\AppData\Local\Temp\ccdat0tl.s 			page 1


   1              		.syntax unified
   2              		.cpu cortex-m0
   3              		.fpu softvfp
   4              		.eabi_attribute 20, 1
   5              		.eabi_attribute 21, 1
   6              		.eabi_attribute 23, 3
   7              		.eabi_attribute 24, 1
   8              		.eabi_attribute 25, 1
   9              		.eabi_attribute 26, 1
  10              		.eabi_attribute 30, 2
  11              		.eabi_attribute 34, 0
  12              		.eabi_attribute 18, 4
  13              		.thumb
  14              		.syntax unified
  15              		.file	"cyfitter_cfg.c"
  16              		.text
  17              	.Ltext0:
  18              		.section	.gnu.lto_.profile.58ebbdb1,"",%progbits
  19 0000 789C6361 		.ascii	"x\234ca`d`e`\000\222M\214\026\000\002>\000\307"
  19      60646065 
  19      6000924D 
  19      8C160002 
  19      3E00C7
  20              		.text
  21              		.section	.gnu.lto_.icf.58ebbdb1,"",%progbits
  22 0000 789C6361 		.ascii	"x\234ca`d\000\001\021\006\004`f8t\262\353\001\017\343"
  22      60640001 
  22      11060460 
  22      663874B2 
  22      EB010FE3 
  23 0014 AE932B4E 		.ascii	"\256\223+N21\235h:\276\225\213\001\000`\277\010\347"
  23      32319D68 
  23      3ABE958B 
  23      010060BF 
  23      08E7
  24              		.text
  25              		.section	.gnu.lto_.jmpfuncs.58ebbdb1,"",%progbits
  26 0000 789C6361 		.ascii	"x\234ca`d\000\201~\006\004`\002a\306\277L\214\317.."
  26      60640081 
  26      7E060460 
  26      0261C6BF 
  26      4C8CCF2E 
  27 0015 5DCFF685 		.ascii	"]\317\366\205\251\225\231\201\361\0167\343rF\031\250"
  27      A9959981 
  27      F10E37E3 
  27      724619A8 
  28 0025 F8FC1933 		.ascii	"\370\374\0313\237\261\200\304\031\031/\3603\256\200"
  28      9FB180C4 
  28      19192FF0 
  28      33AE80
  29 0034 8B2FDEB0 		.ascii	"\213/\336\260\242\215\031\"n\300\270\022.\274\265\375"
  29      A28D1922 
  29      6EC0B812 
  29      2EBCB5FD 
  30 0044 CC462E88 		.ascii	"\314F.\2100#\343*\270\360\354\207?\276BU7l\273\303\312"
  30      3023E32A 
  30      B8F0EC87 
ARM GAS  C:\Users\Daniela\AppData\Local\Temp\ccdat0tl.s 			page 2


  30      3FBE4255 
  30      376CBBC3 
  31 0059 B81A2403 		.ascii	"\270\032$\003v\016\033\210f\324\222\2018\007\000g\027"
  31      760E1B88 
  31      66D49281 
  31      38070067 
  31      17
  32 006a 23E3     		.ascii	"#\343"
  33              		.text
  34              		.section	.gnu.lto_.inline.58ebbdb1,"",%progbits
  35 0000 789C6361 		.ascii	"x\234ca`d\000\2018\006\004`b`\220\277\002\024gR\272"
  35      60640081 
  35      38060460 
  35      626090BF 
  35      02146752 
  36 0015 D0C9C4C0 		.ascii	"\320\311\304\300\266@\236\011,\312\315\000\022\303A"
  36      B6409E09 
  36      2CCACD00 
  36      12C341
  37 0024 32723180 		.ascii	"2r1\200(\331C \021\255\003[\231\341\372\3002,\274\214"
  37      28D94320 
  37      11AD035B 
  37      99E1FAC0 
  37      322CBC8C 
  38 0038 0CCC13FC 		.ascii	"\014\314\023\374\030\200\010\000\262\203\011\031"
  38      18800800 
  38      B2830919 
  39              		.text
  40              		.section	.gnu.lto_.pureconst.58ebbdb1,"",%progbits
  41 0000 789C6361 		.ascii	"x\234ca`d`c```b\220b\334\305\010\000\002z\000\344"
  41      60646063 
  41      60606062 
  41      9062DCC5 
  41      0800027A 
  42              		.text
  43              		.section	.gnu.lto_ClockSetup.58ebbdb1,"",%progbits
  44 0000 789C7595 		.ascii	"x\234u\225Ml\023G\024\307\347\315:\216c'\336\264\247"
  44      4D6C1347 
  44      14C7E7CD 
  44      3A8E6327 
  44      DEB4A7
  45 0013 56E4807A 		.ascii	"V\344\200z@pA=\364\320;\007n\010\225+\022B\301 . E\341"
  45      4070413D 
  45      F4D03B07 
  45      6E08952B 
  45      1242C120 
  46 002b 8038641D 		.ascii	"\2008d\035{\343\024\025\021@\244\224\022\"H\011\237"
  46      7BE31415 
  46      1140A494 
  46      12224809 
  46      9F
  47 003c 4E1C4A3E 		.ascii	"N\034J>L\002lL\002!\237Nq> &\012i\261*\032\005G\"\302"
  47      4C026C4C 
  47      02219F4E 
  47      713E2026 
  47      0A69B12A 
  48 0055 A426CBCC 		.ascii	"\244&\313\314\276\231\265\205\342\225\274\353\365\274"
ARM GAS  C:\Users\Daniela\AppData\Local\Temp\ccdat0tl.s 			page 3


  48      BE99B585 
  48      E295BCEB 
  48      F5BC
  49 0063 F7FBBFF9 		.ascii	"\367\373\277\371\317\233\261\203\000\341W\322I\310V"
  49      CF9BB183 
  49      00E157D2 
  49      49C856
  50 0072 F6DCC43E 		.ascii	"\366\334\304>\240\020\240\015\343\204\370]\024\200\177"
  50      A010A00D 
  50      E384F85D 
  50      14807F
  51 0081 D15C406A 		.ascii	"\321\\@j(\324\300*\375D!\026JE\351\266\353\032\273\026"
  51      28D4C02A 
  51      FD442116 
  51      4A45E9B6 
  51      EB1ABB16 
  52 0095 DE741DF6 		.ascii	"\336t\035\366k\3727\272B\210I-\022\201\353\260\215\260"
  52      6BFA37BA 
  52      4288492D 
  52      1281EBB0 
  52      8DB0
  53 00a7 B0C58EF5 		.ascii	"\260\305\216\365\363e\316 \017\333\214\203p\003\234"
  53      F365CE20 
  53      0FDB8C83 
  53      70039C
  54 00b6 5CAEFD27 		.ascii	"\\\256\375'C3\315\200fD=\375i\357\267%DW\300\315o^~"
  54      4333CD80 
  54      66443DFD 
  54      69EFB725 
  54      4457C0CD 
  55 00cd 53F98D90 		.ascii	"S\371\215\2204\313\340\332+\224\362\247\222\202\330"
  55      34CBE0DA 
  55      2B94F2A7 
  55      9282D8
  56 00dc FBF4BBEF 		.ascii	"\373\364\273\3578\203\301\033\365\330D\361{\252+\024"
  56      3883C11B 
  56      F5D844F1 
  56      7BAA2B14 
  57 00ec B856E6EF 		.ascii	"\270V\346\357\266%\027\276F4Cs\260\237\002\235=-\356"
  57      B62517BE 
  57      46344373 
  57      B09F029D 
  57      3D2DEE
  58 00ff 6668F207 		.ascii	"fh\362\007AW\024\270\005\025p\023*X\021\267\241\031"
  58      415714B8 
  58      05157013 
  58      2A5811B7 
  58      A119
  59 0111 D878C742 		.ascii	"\330x\307B\266\317\301S\000\276\206;l\344_\010\030\011"
  59      B6CFC153 
  59      00BE863B 
  59      6CE45F08 
  59      1809
  60 0123 0FE77362 		.ascii	"\017\347sb4\2724W\\\363I\253\327\264r]q\230L\207@\030"
  60      34BA3457 
  60      5CF349AB 
  60      D7B4725D 
ARM GAS  C:\Users\Daniela\AppData\Local\Temp\ccdat0tl.s 			page 4


  60      71984C87 
  61 0139 6A587145 		.ascii	"jXqE,4hL\027\010u\232\254`\002m,\224\215\375\376:\263"
  61      2C34684C 
  61      1708759A 
  61      AC60026D 
  61      2C948DFD 
  62 0150 AA709562 		.ascii	"\252p\225b\320\272\222E\320\016\025\272\342\262\000"
  62      D0BA9245 
  62      D00E15BA 
  62      E2B200
  63 015f B3050025 		.ascii	"\263\005\000%&enB\004\001\235\241\321\0167\002\000:"
  63      26656E42 
  63      04019DA1 
  63      D10E3702 
  63      003A
  64 0171 78B6DBCA 		.ascii	"x\266\333\312\236/,\357`\331w1\273%r\243N\310\177\017"
  64      9E2F2CEF 
  64      60D97731 
  64      BB2572A3 
  64      4EC87F0F 
  65 0185 7FA23637 		.ascii	"\177\242672\236\245\302\310\313\227V\"\024\235\013\326"
  65      329EA5C2 
  65      C8CB9756 
  65      22149D0B 
  65      D6
  66 0196 DEB19C3B 		.ascii	"\336\261\234;3tv\315\225s\356\236\355\\':\367\242-\361"
  66      337476CD 
  66      9573EE9E 
  66      ED5C273A 
  66      F7A22DF1 
  67 01aa A4149DAB 		.ascii	"\244\024\235\253c\213\353\202.6\312\251\015\353\222"
  67      638BEB82 
  67      2E36CAA9 
  67      0DEB92
  68 01b9 9AED1D69 		.ascii	"\232\355\035ir#\365\227 R\347>N\375Gs\324n\233\332\203"
  68      7223F597 
  68      2052E73E 
  68      4EFD4773 
  68      D46E9BDA 
  69 01ce D4E7B521 		.ascii	"\324\347\265!\271\036\274e\034\020E\352\332\311\330"
  69      B91EBC65 
  69      1C1045EA 
  69      DAC9D8
  70 01dd 8F9C1A50 		.ascii	"\217\234\032PJ\362\327\335c\255{\347\037-gT|\315h=~"
  70      4AF2D7DD 
  70      63AD7BE7 
  70      1F2D6754 
  70      7CCD683D 
  71 01f2 AEF366F5 		.ascii	"\256\363f\365n\334#uJ\241\227\351\334\267t\372\230\016"
  71      6EDC2375 
  71      4AA197E9 
  71      DCB774FA 
  71      980E
  72 0204 0306324E 		.ascii	"\003\0062N\304\271\2218h~0T\324\245\360\0005\033A\314"
  72      C4B99138 
  72      687E3054 
  72      D4A5F000 
ARM GAS  C:\Users\Daniela\AppData\Local\Temp\ccdat0tl.s 			page 5


  72      351B41CC 
  73 0218 C3E6D38D 		.ascii	"\303\346\323\215\371\012<\264\347\361\210\361\031\025"
  73      F90A3CB4 
  73      E7F188F1 
  73      1915
  74 0226 FD1D5004 		.ascii	"\375\035P\004\241uhx\001\220\220\025\204\304\273\276"
  74      A1756878 
  74      01909015 
  74      84C4BBBE 
  75 0236 93653982 		.ascii	"\223e9\202a\023\372\321\211P:<+\234\010g\011\304\204"
  75      6113FAD1 
  75      89503A3C 
  75      2B9C0867 
  75      09C484
  76 0249 BBF141C9 		.ascii	"\273\361A\311\\\364\237\233\027\356\376\263\320k1\037"
  76      5CF49F9B 
  76      17EEFEB3 
  76      D06B311F 
  77 0259 27828FD4 		.ascii	"'\202\217\324\034\363\261\315\034@f\373R\364c\0312\011"
  77      1CF3B1CD 
  77      1C4066FB 
  77      52F46319 
  77      3209
  78 026b 0C4A67DF 		.ascii	"\014Jg\337\012g\275,\242W\253?\201N.\011f\370\312\263"
  78      0A67BD2C 
  78      A257AB3F 
  78      814E2E09 
  78      66F8CAB3 
  79 027f 0B794E3E 		.ascii	"\013yN>\261\235|*\234\314\012'UA\010\316\246\235\250"
  79      B19D7C2A 
  79      9CCC0A27 
  79      554108CE 
  79      A69DA8
  80 0292 F1C1344D 		.ascii	"\361\3014M\025\206\276pSJ\320\215%\024xf\227=l\231\251"
  80      1586BE70 
  80      534AD08D 
  80      25147866 
  80      973D6C99 
  81 02a7 5AAD7ED9 		.ascii	"Z\255~\331\273q\253\227\231\264\210\205\216`\2537_\370"
  81      BB71AB97 
  81      99B48885 
  81      8E60AB37 
  81      5FF8
  82 02b9 2DE5C056 		.ascii	"-\345\300V\217\2530\312{\335k\245G\012\244\253&e\207"
  82      8FAB30CA 
  82      7BDD6BA5 
  82      470AA4AB 
  82      266587
  83 02cc 1E8C617A 		.ascii	"\036\214azj\362Z\273U|9$=0\316\323\277B\333\307\244"
  83      6AF25ABB 
  83      557C3924 
  83      3D30CED3 
  83      BF42DBC7 
  84 02e1 EDC3C9FE 		.ascii	"\355\303\311\376\253\242\031\264\272\240\325\324\313"
  84      ABA219B4 
  84      BAA0D5D4 
  84      CB
ARM GAS  C:\Users\Daniela\AppData\Local\Temp\ccdat0tl.s 			page 6


  85 02ee A7C24FBD 		.ascii	"\247\302O\275\271\372'\354\372\343h\373\364\351t\326"
  85      B9FA27EC 
  85      FAE368FB 
  85      F4E974D6 
  86 02fe 239A7A80 		.ascii	"#\232z\200\300\244\334(\343\222y\365\312\3773E\202\251"
  86      C0A4DC28 
  86      E39279F5 
  86      CAFF3345 
  86      82A9
  87 0310 2133A44F 		.ascii	"!3\244O\336,\3151\377\262\231\317\2219\322p\321\357"
  87      DE2CCD31 
  87      FFB299CF 
  87      9139D270 
  87      D1EF
  88 0322 46A6B11E 		.ascii	"F\246\261\036`\333/!\033dBR\317e\226\033\035H\255\027"
  88      60DB2F21 
  88      1B644252 
  88      CF65961B 
  88      1D48AD17 
  89 0336 9BBA2E9B 		.ascii	"\233\272.\233j\315\333\324S6u\032\251\215\353\365\027"
  89      6ACDDBD4 
  89      5336751A 
  89      A98DEBF5 
  89      17
  90 0347 696EFBB9 		.ascii	"in\373\271`F\326:%\251\277\336\253\225\323\027\320\265"
  90      6046D63A 
  90      25A9BFDE 
  90      AB95D317 
  90      D0B5
  91 0359 5B8B6D79 		.ascii	"[\213my]7kC_ 4\363\340\347&{O\227\303KY\350\264D\216"
  91      5D376B43 
  91      5F2034F3 
  91      E0E7267B 
  91      4F97C34B 
  92 0372 8EB5AAF2 		.ascii	"\216\265\252\362\360\301\331\237\037\352Z\315st\316"
  92      F0C1D99F 
  92      1FEA5ACD 
  92      7374CE
  93 0381 462611D9 		.ascii	"F&\021\331\275|\273[4\262A\340\225$\316Hb\301cf\236"
  93      BD7CBB5B 
  93      34B241E0 
  93      9524CE48 
  93      62C16366 
  94 0396 E55B67CA 		.ascii	"\345[g\312[\2505VvY=\301\2574;\331\331\377\013;\263"
  94      5BA83556 
  94      76593DC1 
  94      AF343BD9 
  94      D9FF0B3B 
  95 03ab B7ECF41D 		.ascii	"\267\354\364\035\361U\355\257\366\035\330\267\347\350"
  95      F155EDAF 
  95      F61DD8B7 
  95      E7E8
  96 03b9 B1AA4ADF 		.ascii	"\261\252J\337\336\335{\216\356\370ao\345\361\203\207"
  96      DEDD7B8E 
  96      EEF8616F 
  96      E5F18387 
  97 03c9 ABAB7D55 		.ascii	"\253\253}U\373*\017\036\332^I>\003\3225{E"
ARM GAS  C:\Users\Daniela\AppData\Local\Temp\ccdat0tl.s 			page 7


  97      FB2A0F1E 
  97      DA5E493E 
  97      03D2357B 
  97      45
  98              		.text
  99              		.section	.gnu.lto_cyfitter_cfg.58ebbdb1,"",%progbits
 100 0000 789C9596 		.ascii	"x\234\225\226kLTG\024\307\347\334\331]\226\205]\250"
 100      6B4C5447 
 100      14C7E7DC 
 100      D95D9685 
 100      5DA8
 101 0012 AF56CB07 		.ascii	"\257V\313\007>h\243\266)\265\222~l\232h\332\372\305"
 101      3E68A3B6 
 101      29B5927E 
 101      6C9A68DA 
 101      FAC5
 102 0024 989AF8C9 		.ascii	"\230\232\370\311\2044tmL\243&J?4\375\300\300\356\002"
 102      8434746D 
 102      4CA3264A 
 102      3F34FDC0 
 102      C0EE02
 103 0037 8A3508F2 		.ascii	"\2125\010\362\362\021\244\012\202\026A\021d\241\342"
 103      F211A40A 
 103      82164111 
 103      64A1E2
 104 0046 B23E2A0F 		.ascii	"\262>*\017\027\304\342\213\212\010\010*X\036.*\312\243"
 104      17C4E28B 
 104      8A08082A 
 104      581E2E2A 
 104      CAA3
 105 0058 6766EEBD 		.ascii	"gf\356\275,bM{\223\275{\347q\177\363?\347\3149s\015"
 105      2C624D7B 
 105      93BD7BE7 
 105      717FF33F 
 105      E7CC3973 
 106 006d 0408BFB6 		.ascii	"\004\010\277\266Y\010Y\203\377k\361\007&\002J\232\217"
 106      59085983 
 106      FF6BF107 
 106      26024A9A 
 106      8F
 107 007e 9004B302 		.ascii	"\220\004\263\002\006\371@\345C\235\331\240\320\324h"
 107      06F940E5 
 107      439DD9A0 
 107      D0D468
 108 008d C22C46D7 		.ascii	"\302,F\327\"\302B\215\000\274\233\231\201\304+\324`"
 108      22C2428D 
 108      00BC9B99 
 108      81C42BD4 
 108      60
 109 009e 8478C540 		.ascii	"\204x\305@\300c\000E\3348yT\231P\300\233\334\353V\226"
 109      C0630045 
 109      DC387954 
 109      9950C09B 
 109      DCEB5696 
 110 00b2 1D637875 		.ascii	"\035cxu\026\024~\312\212<\340\242\204L\211\031\270\342"
 110      16147ECA 
 110      8A3CE0A2 
ARM GAS  C:\Users\Daniela\AppData\Local\Temp\ccdat0tl.s 			page 8


 110      844C8919 
 110      B8E2
 111 00c4 31584670 		.ascii	"1XFpZ\327\251\311L\253\311\311\247E\312A(\002\023*T"
 111      5AD7A9C9 
 111      4CABC9C9 
 111      A745CA41 
 111      2802132A 
 112 00d9 76523E5E 		.ascii	"vR>^\320x\241\326F\227\001\177>\332\225\267\217.9\302"
 112      D078A1D6 
 112      4697017F 
 112      3EDA95B7 
 112      8F2E39C2 
 113 00ed 5822F3BC 		.ascii	"X\"\363\274J\237\227\315<\011\221.\012P\014\024\337"
 113      4A9F97CD 
 113      3C09912E 
 113      0A500C14 
 113      DF
 114 00fe 849511F0 		.ascii	"\204\225\021\360I\204\204\037\207%\245\337x\330\324"
 114      4984841F 
 114      8725A5DF 
 114      78D8D4
 115 010d 9483792A 		.ascii	"\224\203y*\346\324\345,X\004\242\323H\\T1\341\215\006"
 115      E6D4E52C 
 115      5804A2D3 
 115      485C5431 
 115      E18D06
 116 0120 E1CD60C6 		.ascii	"\341\315`\306\233\321\"F\302\360\321\024\316o\204\014"
 116      9BD12246 
 116      C2F0D114 
 116      CE6F840C 
 117 0130 A10CB475 		.ascii	"\241\014\264uXQ\360\217\366\001\273\340N\007.\213\263"
 117      5851F08F 
 117      F601BBE0 
 117      4E072E8B 
 117      B3
 118 0141 3F24BDE0 		.ascii	"?$\275\340\365\2475\033x\007\212\312ry\233\203\374\212"
 118      F5A7351B 
 118      78078ACA 
 118      72799B83 
 118      FC8A
 119 0153 8B06098D 		.ascii	"\213\006\011\2155,\345g\331\032\350\254I0`OI~}NH\036"
 119      352CE567 
 119      D91AE8AC 
 119      4930604F 
 119      497E7D4E 
 120 0169 1C4A70A2 		.ascii	"\034Jp\242\003\314\360\033D\300\011@\235P\002y\200\343"
 120      03CCF01B 
 120      44C00940 
 120      9D500279 
 120      80E3
 121 017b A503EE31 		.ascii	"\245\003\3561+\177%\0305\236\304\221.H\364\354\315\260"
 121      2B7F2518 
 121      359EC491 
 121      2E48F4EC 
 121      CDB0
 122 018d E2507D56 		.ascii	"\342P}V\267\323H?\023\340;U\345\327\203\227\026rGy\332"
 122      B7D3483F 
ARM GAS  C:\Users\Daniela\AppData\Local\Temp\ccdat0tl.s 			page 9


 122      13E03B55 
 122      E5D78397 
 122      16724779 
 123 01a2 5BE73366 		.ascii	"[\3473fvQ\013\224\012\323\361r\321\020\274\343\274\366"
 123      76510B94 
 123      0AD3F172 
 123      D110BCE3 
 123      BCF6
 124 01b4 8E43BBAD 		.ascii	"\216C\273\255\352\274\266\364\005b^\210\356v\362\272"
 124      EABCB6F4 
 124      05625E88 
 124      EE76F2BA 
 125 01c4 CFE1142C 		.ascii	"\317\341\024,\2052X\212\336\346n \322L8\2151\300f\240"
 125      8532588A 
 125      DEE66E20 
 125      D24C388D 
 125      31C066A0 
 126 01d8 7D80F2CA 		.ascii	"}\200\362\312\271pt\014%\251\321\264\027\022G\222o4"
 126      B970740C 
 126      25A9D1B4 
 126      17124792 
 126      6F34
 127 01ea BDE0465C 		.ascii	"\275\340F\\s\226\035\244|V(p\233\207\257\356\357\266"
 127      73961DA4 
 127      7C562870 
 127      9B87AFEE 
 127      EFB6
 128 01fc F1A61522 		.ascii	"\361\246\025\"\261y\246)53\224\256\022v\034\317*,\265"
 128      B179A629 
 128      353394AE 
 128      12761CCF 
 128      2A2CB5
 129 020f CA20B23C 		.ascii	"\312 \262<;\333\371\205\213\332\240RF\260\002}s\006"
 129      3BDBF985 
 129      8BDAA052 
 129      46B0027D 
 129      7306
 130 0221 22DEA8F3 		.ascii	"\"\336\250\363,\027wZ\210\253\002\223\203\032\035\024"
 130      2C17775A 
 130      88AB0293 
 130      831A1D14 
 131 0231 D0550A6F 		.ascii	"\320U\012o\341\334\233\277\326f\330\226\027\011\263"
 131      E1DC9BBF 
 131      D666D896 
 131      1709B3
 132 0240 7337E41E 		.ascii	"s7\344\036F\253m\252\305\340\206\345\201\206\204\011"
 132      46AB6DAA 
 132      C5E086E5 
 132      81868409 
 133 0250 1D8E97E7 		.ascii	"\035\216\227\347\237\332\342'X\016c\341\330\207\366"
 133      9FDAE227 
 133      580E63E1 
 133      D887F6
 134 025f 8B35EBF7 		.ascii	"\2135\353\367\237\370\201\007+Mt\207C\015\304C5\227"
 134      9FF88107 
 134      2B4D7487 
 134      430DC443 
ARM GAS  C:\Users\Daniela\AppData\Local\Temp\ccdat0tl.s 			page 10


 134      3597
 135 0271 8463F7C7 		.ascii	"\204c\367\307\353j\315+J\031\216y23>w\321w\340w\214"
 135      EB6ACD2B 
 135      4A198E79 
 135      32333E77 
 135      D177E077 
 136 0286 216A5105 		.ascii	"!jQ\005\327\277,.\264\"\023'\260<\340\206\235\203\025"
 136      D7BF2C2E 
 136      B4221327 
 136      B03CE086 
 136      9D8315
 137 0299 5C20815A 		.ascii	"\\ \201Z\210\327\324rS\270&\334H\211\325\303\017VK{"
 137      88D7D472 
 137      53B826DC 
 137      4889D5C3 
 137      0F564B7B 
 138 02ad 66EC25DB 		.ascii	"f\354%\333\377\221\350A\211\347\377]b\335\014\211\356"
 138      FF91E841 
 138      89E7FF5D 
 138      62DD0C89 
 138      EE
 139 02be 9ECCD4E0 		.ascii	"\236\314\324\340\250\0221!;\003\227\232\003^X1)\266"
 139      A8123121 
 139      3B03979A 
 139      035E5831 
 139      29B6
 140 02d0 075C8028 		.ascii	"\007\\\200(!*?Jj\012\372\357\".\276]\304\245\267\210"
 140      212A3F4A 
 140      6A0AFAEF 
 140      222EBE5D 
 140      C4A5B788 
 141 02e4 8872D1B9 		.ascii	"\210r\321\271p\231\213\340\205\011\376\220\"F\222\027"
 141      70998BE0 
 141      8509FE90 
 141      22469217 
 142 02f4 4B1166D4 		.ascii	"K\021f\324\021\020h\357\345\003\245A\364K\341\240\216"
 142      111068EF 
 142      E503A541 
 142      F44BE1A0 
 142      8E
 143 0305 96E78D36 		.ascii	"\226\347\2156\265 \224\247\323\\\346qbA\240pe\366v\202"
 143      B52094A7 
 143      D35CE671 
 143      6241A070 
 143      65F67682 
 144 0319 7A58824E 		.ascii	"zX\202N\026\311\205v\253\260\011\266/\313F\277\026\260"
 144      16C98576 
 144      ABB009B6 
 144      2FCB46BF 
 144      16B0
 145 032b B1CE8942 		.ascii	"\261\316\211B\343,\330<hx\003\254\221\303\314\344!$"
 145      E32CD83C 
 145      687803AC 
 145      91C3CCE4 
 145      2124
 146 033d 79DC4930 		.ascii	"y\334I0s\253\262\322B\003\237\300W\024{uJ\201Y\225\016"
 146      73ABB2D2 
ARM GAS  C:\Users\Daniela\AppData\Local\Temp\ccdat0tl.s 			page 11


 146      42039FC0 
 146      57147B75 
 146      4A815995 
 147 0352 9AC44EBE 		.ascii	"\232\304N\276\212w\356\017\367@{\020\3728E8s\376\224"
 147      8A77EE0F 
 147      F7407B10 
 147      FA384538 
 147      73FE94
 148 0365 A28871F0 		.ascii	"\242\210q\360\341\246A\321\260<\002Ws\321\005\372\016"
 148      E1A641D1 
 148      B03C0257 
 148      73D105FA 
 148      0E
 149 0376 E268BDD1 		.ascii	"\342h\275\321\310\033\275\340\310J\272\334Ti\3429\342"
 149      C81BBDE0 
 149      C84ABADC 
 149      5469E239 
 149      E2
 150 0387 A016CC0E 		.ascii	"\240\026\314\016\004W$7\235\262\310\344\005h\026\265"
 150      04572437 
 150      9DB2C8E4 
 150      056816B5 
 151 0397 45D1721B 		.ascii	"E\321r\033'\211\\6\020\254\347\024\375\022Nd7\220\373"
 151      27895C36 
 151      10ACE714 
 151      FD124E64 
 151      3790FB
 152 03aa E06C76D8 		.ascii	"\340lv\330$I\276\207\327\010\"0\377\225\"\212o\322\252"
 152      2449BE87 
 152      D7082230 
 152      FF95228A 
 152      6FD2AA
 153 03bd 95F8AA91 		.ascii	"\225\370\252\221\327G^\016\207\372\242\371l\\\321\337"
 153      D7475E0E 
 153      87FAA2F9 
 153      6C5CD1DF 
 154 03cd DEE50359 		.ascii	"\336\345\003Y\000\031\332\303\213\301\221\352\376_,"
 154      0019DAC3 
 154      8BC191EA 
 154      FE5F2C
 155 03dc D305B045 		.ascii	"\323\005\260E/\200\327d\001LxV]Oe\001D\337\014\331\240"
 155      2F80D764 
 155      014C7856 
 155      5D4F6501 
 155      44DF0CD9 
 156 03f1 15474591 		.ascii	"\025GE\221\0350\250\324\321\273c\317CUj\242\244\216"
 156      1D30A8D4 
 156      D1BB63CF 
 156      43556AA2 
 156      A48E
 157 0403 568E5719 		.ascii	"V\216W\031\246\251\327u\352\237\222\332[}\253\314\244"
 157      A6A9D775 
 157      EA9F92DA 
 157      5B7DABCC 
 157      A4
 158 0414 517B0CD0 		.ascii	"Q{\014\320\246B[\236hP\367I\347\240Z\271\331\341s\002"
 158      A6425B9E 
ARM GAS  C:\Users\Daniela\AppData\Local\Temp\ccdat0tl.s 			page 12


 158      6850F749 
 158      E7A05AB9 
 158      D9E17302 
 159 0428 EA7764B5 		.ascii	"\352wd\265(\323\320\033:\364&BuD\332\240\206\250\310"
 159      28D3D01B 
 159      3AF42642 
 159      7544DAA0 
 159      86A8C8
 160 043b 6D2BA412 		.ascii	"m+\244\022\221\246\"N\370\330\256\000ko\351\210\333"
 160      91A6224E 
 160      F8D8AE00 
 160      6B6FE988 
 160      DB
 161 044c 018897BB 		.ascii	"\001\210\227\273\032\326J\367\206\005\246\375\273b\243"
 161      1AD64AF7 
 161      8605A6FD 
 161      BB62A3
 162 045b 34E45F1F 		.ascii	"4\344_\037\244\262\311:%\364\314\355]O\255\032\364="
 162      A4B2C93A 
 162      25F4CCED 
 162      5D4FAD1A 
 162      F43D
 163 046d 6847E81D 		.ascii	"hG\350\035\001\375\013\241<\366/\324\270\207Kb\317\253"
 163      01FD0BA1 
 163      3CF62FD4 
 163      B8874B62 
 163      CFAB
 164 047f 926A517F 		.ascii	"\222jQ\177M\030\353\273r\315,PE\353\313-\234\271\334"
 164      4D18EBBB 
 164      72CD2C50 
 164      45EBCB2D 
 164      9CB9DC
 165 0492 C2372FB7 		.ascii	"\3027/\267\010\356\341r\035b\271N\221\306\341\302\013"
 165      08EEE172 
 165      1D62B94E 
 165      91C6E1C2 
 165      0B
 166 04a3 65CF17AB 		.ascii	"e\317\027\253G`\361\243\233\347\254\322\013)\230\323"
 166      4760F1A3 
 166      9BE7ACD2 
 166      0B2998D3 
 167 04b3 9CD0DA51 		.ascii	"\234\320\332Qs\217N{\341\276\356\205.\031\235\261g{"
 167      738F4E7B 
 167      E1BEEE85 
 167      2E199DB1 
 167      677B
 168 04c5 7D662D3A 		.ascii	"}f-:\235&\350\326\2423\256\235\2535/<\331F-\344\022"
 168      9D26E8D6 
 168      A233AE9D 
 168      AB352F3C 
 168      D9462DE4 
 169 04da DAD777B6 		.ascii	"\332\327w\266>l\032\332\243C\037H\250~\352\004C$\364"
 169      3E6C1ADA 
 169      A3431F48 
 169      A87EEA04 
 169      4324F4
 170 04ed 6AC19AD0 		.ascii	"j\301\232\320\210\345{Z'CT\231*\261\277\300w%h\232\330"
ARM GAS  C:\Users\Daniela\AppData\Local\Temp\ccdat0tl.s 			page 13


 170      88E57B5A 
 170      27435499 
 170      2AB1BFC0 
 170      7725689A 
 171 0502 A7131F4A 		.ascii	"\247\023\037Jb\217\357h\254\252\362p(<\322D\352\310"
 171      628FEF68 
 171      ACAAF270 
 171      283CD244 
 171      EAC8
 172 0514 DABCE27E 		.ascii	"\332\274\342~\213D\346\250\3106o\367\201\200\343\376"
 172      8B44E6A8 
 172      C8366FF7 
 172      8180E3FE 
 173 0524 B18EECE7 		.ascii	"\261\216\354\347\361\347\252\036\202\30339W\034\264"
 173      F1E7AA1E 
 173      82C33339 
 173      571CB4
 174 0533 B372FFFD 		.ascii	"\263r\377\375)<[\011\014`\342\273\250j\200\237\276V"
 174      293C5B09 
 174      0C60E2BB 
 174      A86A809F 
 174      BE56
 175 0545 608A3F12 		.ascii	"`\212?\022\307\364\024\246\356\254\272\362D\324\225"
 175      C7F414A6 
 175      EEACBAF2 
 175      44D495
 176 0554 BF85BA3D 		.ascii	"\277\205\272=\376+\007\325\015^\206\337J\\\335\343\354"
 176      FE2B07D5 
 176      0D5E86DF 
 176      4A5CDDE3 
 176      EC
 177 0565 FC4B66A1 		.ascii	"\374Kf\241.\201/g\206A]\337\2204\331;Rv,T\332LaX\263"
 177      2E812F67 
 177      86415DDF 
 177      9034D93B 
 177      52762C54 
 178 057e D84F5566 		.ascii	"\330OUfj\301\321lEc^\024\314\335\225O\312\303\002\231"
 178      6AC1D16C 
 178      45635E14 
 178      CCDD954F 
 178      CAC30299 
 179 0592 233AF329 		.ascii	"#:\363)\267Y\203\244\215j\220\033\354^\203\226y\007"
 179      B75983A4 
 179      8D6A901B 
 179      EC5E8396 
 179      7907
 180 05a4 C705E451 		.ascii	"\307\005\344QcJ\222)\020\342\327!\243\034\302?\214\036"
 180      634A9229 
 180      10E2D721 
 180      A31CC23F 
 180      8C1E
 181 05b6 63EDCEDD 		.ascii	"c\355\316\335\240}\210\341g\032`\375\301\223\353\203"
 181      A07D88E1 
 181      671A60FD 
 181      C193EB83 
 182 05c6 AFEC5BED 		.ascii	"\257\354[\355\333\277\215\263\177\027\263~\333\217\333"
 182      DBBF8DB3 
ARM GAS  C:\Users\Daniela\AppData\Local\Temp\ccdat0tl.s 			page 14


 182      7F17B37E 
 182      DB8FDB
 183 05d5 63ED1BD7 		.ascii	"c\355\033\327\255\337\266*zc\354O\2336\307\305\331\267"
 183      ADDFB62A 
 183      7A63EC4F 
 183      9B36C7C5 
 183      D9B7
 184 05e7 C7C46EFA 		.ascii	"\307\304n\372\376\343X\002\233-\253\326\255_\263:22"
 184      FEE35802 
 184      9B2DABD6 
 184      AD5FB33A 
 184      3232
 185 05f9 723309C5 		.ascii	"r3\011\305\276\230-\366-;\354q1q\312\226\035\260\003"
 185      BE982DF6 
 185      2D3BEC71 
 185      3171CA96 
 185      1DB003
 186 060c B6FE03AA 		.ascii	"\266\376\003\252\327\254\361"
 186      D7ACF1
 187              		.text
 188              		.section	.gnu.lto_cfg_memset_list.4884.58ebbdb1,"",%progbits
 189 0000 789C6361 		.ascii	"x\234ca`d\000\201\271@\014a10\374eb\374{\355\365\021"
 189      60640081 
 189      B9400C61 
 189      3130FC65 
 189      62FC7BED 
 190 0016 C62F4CAD 		.ascii	"\306/L\255\314\014\214\015\034@\376\336}\327\267\362"
 190      CC0C8C0D 
 190      1C40FEDE 
 190      7DD7B7F2 
 191 0026 81F88C8C 		.ascii	"\201\370\214\214\015\015{\033X\200B\347\272\277\355"
 191      0D0D7B1B 
 191      588042E7 
 191      BABFED
 192 0035 60B7D8D6 		.ascii	"`\267\330\326\320\261\240A\241\225\231\351\037\023\003"
 192      D0B1A041 
 192      A19599E9 
 192      1F1303
 193 0044 E30A4699 		.ascii	"\343\012F\231\177L\214\214\313\031e@f<<<\177:\033T\317"
 193      7F4C8C8C 
 193      CB196540 
 193      663C3C3C 
 193      7F3A1B54 
 194 0059 833D603D 		.ascii	"\203=`=\235K\366\\eE\325\263\012E\317\264\343\223\227"
 194      9D4BF65C 
 194      6545D5B3 
 194      0A45CFB4 
 194      E39397
 195 006c F0C11530 		.ascii	"\360\301\02503\032\3120\256f\264`4\222a\\\311h\301\300"
 195      331ACA30 
 195      AE66B460 
 195      3492615C 
 195      C968C1C0 
 196 0080 B8064800 		.ascii	"\270\006H\000\000n\2048\035"
 196      006E8438 
 196      1D
 197              		.text
ARM GAS  C:\Users\Daniela\AppData\Local\Temp\ccdat0tl.s 			page 15


 198              		.section	.gnu.lto_.symbol_nodes.58ebbdb1,"",%progbits
 199 0000 789C6361 		.ascii	"x\234ca`d\370\300\000\004Ll\365\014\014\023\31610\000"
 199      6064F8C0 
 199      00044C6C 
 199      F50C0C13 
 199      CE313000 
 200 0014 A99D0D0B 		.ascii	"\251\235\015\013\033\230\365\012\212\363\2233\3632K"
 200      1B98F50A 
 200      8AF39333 
 200      F3324B
 201 0023 80729CF5 		.ascii	"\200r\234\365\2140\271]\015\212H2\254\\\014\015B\014"
 201      8C30B95D 
 201      0D8A4832 
 201      AC5C0C0D 
 201      420C
 202 0035 0CCC8C82 		.ascii	"\014\314\214\202\365L`\025\014\014\015\015\012\014\014"
 202      F54C6015 
 202      0C0C0D0D 
 202      0A0C0C
 203 0044 8C02F5CC 		.ascii	"\214\002\365\314(|\376z\026\024>_=+\012\237\267\236"
 203      287CFE7A 
 203      16143E5F 
 203      3D2B0A9F 
 203      B79E
 204 0056 0D85CF53 		.ascii	"\015\205\317S\317\216\302\347\256\347@\34633p0\034y"
 204      CF8EC2E7 
 204      AEE740E6 
 204      33337030 
 204      1C79
 205 0068 F08F9199 		.ascii	"\360\217\221\231\201\235\341\011\230fchy\010\242Y\031"
 205      819DE109 
 205      98666368 
 205      7908A259 
 205      19
 206 0079 96806916 		.ascii	"\226\200i\026\206\226\2567\362\314@\225K@4#'CK\373\025"
 206      8696AE37 
 206      F2CC4095 
 206      4B403423 
 206      27434BFB 
 207 008e 7B664606 		.ascii	"{fF\006\206G\375o\344\031\000\030V:A"
 207      8647FD6F 
 207      E4190018 
 207      563A41
 208              		.text
 209              		.section	.gnu.lto_.refs.58ebbdb1,"",%progbits
 210 0000 789C6361 		.ascii	"x\234ca`d\340d```bd`bg`\342`\000\000\0018\000%"
 210      6064E064 
 210      60606062 
 210      64606267 
 210      60E26000 
 211              		.text
 212              		.section	.gnu.lto_.decls.58ebbdb1,"",%progbits
 213 0000 789CAD57 		.ascii	"x\234\255W{PT\327\031\277\337\275\273\013,\013\0304"
 213      7B5054D7 
 213      19BFDFBD 
 213      BB0B2C0B 
 213      1834
ARM GAS  C:\Users\Daniela\AppData\Local\Temp\ccdat0tl.s 			page 16


 214 0012 89ED6C1B 		.ascii	"\211\355l\033\264F\261\235\220\230\330\214\323Ng\322"
 214      B446B19D 
 214      9098D88C 
 214      D34E67D2 
 215 0022 2131EDB4 		.ascii	"!1\355\264\026\247F;\355\320:\353r\301\035a\027w\227"
 215      16A7463B 
 215      EDD03AEB 
 215      72C11D61 
 215      177797
 216 0035 4969FFC8 		.ascii	"Ii\377\310E\360\375Z\360\201(\012\370\300\007 \350\342"
 216      45F0FD5A 
 216      F081280A 
 216      F8C00720 
 216      E8E2
 217 0047 0382E96A 		.ascii	"\003\202\351j\224\340\203\210\017\336FPD\203JA!\"\022"
 217      94E08388 
 217      0FDE4650 
 217      44834A41 
 217      212212
 218 005a A4DF39E7 		.ascii	"\244\3379\347\336\335\275V\264\177\364\016\037\367\336"
 218      DEDDBD56 
 218      B47FF40E 
 218      1FF7DE
 219 0069 737EDFF7 		.ascii	"s~\337\367\375\276\307=\347\254\206\003\216\\U\257p"
 219      FDBEC73D 
 219      E7AC8603 
 219      8E5C55AF 
 219      70
 220 007a 5C2BCF71 		.ascii	"\\+\317q\247\361u\004/\015\216\315C\301!\256\004\245"
 220      A7F17504 
 220      2F0D8ECD 
 220      43C121AE 
 220      04A5
 221 008c 9C635710 		.ascii	"\234cW\020\312W(\027P\352P\032QZQ\332Pn\240t\240<F!"
 221      CA572817 
 221      50EA501A 
 221      515A51DA 
 221      506EA074 
 222 00a4 56438153 		.ascii	"VC\201S]D/\\\266;\005e,\316\277\2022\016\245\032\337"
 222      5D442F5C 
 222      B63B0565 
 222      2CCEBF82 
 222      320EA51A 
 223 00b9 5F05E6A7 		.ascii	"_\005\346\247\005\3455|\276\216\367\361x\177\035\345"
 223      05E5357C 
 223      BE8EF7F1 
 223      787F1DE5 
 224 00c9 07280DF8 		.ascii	"\007(\015\370\376C`|.\3126\003d\273\035\262\3776\231"
 224      FE43607C 
 224      2ECA3603 
 224      64BB1DB2 
 224      FF3699
 225 00dc 4FA3CCEF 		.ascii	"O\243\314\357\331\213\360\376\221\314\341\015\2645\033"
 225      D98BF0FE 
 225      91CCE10D 
 225      B4351B
 226 00eb EF735126 		.ascii	"\357sQ&\243\304\240\030\375x\021\216z\274\353\200\361"
ARM GAS  C:\Users\Daniela\AppData\Local\Temp\ccdat0tl.s 			page 17


 226      A3C4A018 
 226      FD78118E 
 226      7ABCEB80 
 226      F1
 227 00fc 1E871281 		.ascii	"\036\207\022\201\317\023PBP\014(\023Q~\202\322\215s"
 227      CF135042 
 227      500C2813 
 227      517E82D2 
 227      8D73
 228 010e 93F03E80 		.ascii	"\223\360>\200\367\237\342}*\312\317\210\015\277\370"
 228      F79FE27D 
 228      2ACACF88 
 228      0DBFF8
 229 011d 482E03F0 		.ascii	"H.\003\360Y\203\242\225\271\274\013,_$\206\351\360\374"
 229      5983A295 
 229      B9BC0B2C 
 229      5F2486E9 
 229      F0FC
 230 012f BC91778D 		.ascii	"\274\221w\215\314\221p5\310\376\375\355=\357\032\346"
 230      CC917035 
 230      C8FEFDED 
 230      3DEF1AE6 
 231 013f 61CF93A1 		.ascii	"a\317\223\241^\241\237\207\311z\030\031\021p\240\364"
 231      5EA19F87 
 231      C97A1819 
 231      1170A0F4 
 232 014f 7EC56008 		.ascii	"~\305`\010\033 \363m\203\373fF\025Kx\271$\211\347}\212"
 232      1B20F36D 
 232      83FB6646 
 232      154B78B9 
 232      2489E77D 
 233 0164 FB0AAADD 		.ascii	"\373\012\252\335z!\230\202\316\214\014x\302P'\\\017"
 233      7A219882 
 233      CE8C0C78 
 233      C250275C 
 233      0F
 234 0175 3CBE5EEE 		.ascii	"<\276^\356\275\260=\030_\307\351a\3140\317\347n<Y\242"
 234      BDB03D18 
 234      5FC7E961 
 234      CC30CFE7 
 234      6E3C59A2 
 235 0189 037DE40A 		.ascii	"\003}\344\012IZ\"I\351\222~_(\007\305`\204\"0rp\020"
 235      495A2249 
 235      E9927E5F 
 235      2807C560 
 235      84223072 
 236 019f 2289AFFD 		.ascii	"\"\211\257\375\020\305\301>\034\334\213\203\205\304"
 236      10C5C13E 
 236      1CDC8B83 
 236      85C4
 237 01ad 5F7B7DF1 		.ascii	"_{}\361\257*$i\014\224\200\036\016\200@!\030\377d=\371"
 237      AF2A2469 
 237      0C94801E 
 237      0E804021 
 237      18FF643D 
 238 01c2 8F83E8E9 		.ascii	"\217\203\350\351\233\232\375E\204\375\024\302~d$\314"
 238      9B9AFD45 
ARM GAS  C:\Users\Daniela\AppData\Local\Temp\ccdat0tl.s 			page 18


 238      84FD14C2 
 238      7E6424CC 
 239 01d2 8FFF14C6 		.ascii	"\217\377\024\306\377\\[\347\303 a:}\276\224Q\226+0\232"
 239      FF5C5BE7 
 239      C320613A 
 239      7DBE9451 
 239      962B309A 
 240 01e6 1A7C7D50 		.ascii	"\032|}P\273\265#\224\321\214@\232Gw\345\365i\025\232"
 240      BBB52394 
 240      D18C409A 
 240      4777E5F5 
 240      69159A
 241 01f9 AE7429BC 		.ascii	"\256t)\274\006i\272\221\321aB\363\010\322\234\"\323"
 241      0669BA91 
 241      D16142F3 
 241      08D29C22 
 241      D3
 242 020a 2CC3C152 		.ascii	",\303\301R\205\246\247\351\307\022\017\345\310\361\220"
 242      85A6A7E9 
 242      C7120FE5 
 242      C8F190
 243 0219 8FE314CA 		.ascii	"\217\343\024\312\261\234r\334w\245O\322\267B3\010\234"
 243      B19C72DC 
 243      77A54FD2 
 243      B7423308 
 243      9C
 244 022a FC297100 		.ascii	"\374)q\000\354?P\341\230\320W|\3409\366\240\014y/\016"
 244      EC3F50E1 
 244      98D0577C 
 244      E039F6A0 
 244      0C792F0E 
 245 023e D80C2F8F 		.ascii	"\330\014/\217r>c\364O\326\247\231\240\0275\342\263\016"
 245      723E63F4 
 245      4FD6A799 
 245      A01735E2 
 245      B30E
 246 0250 B2127819 		.ascii	"\262\022x\031\320i\246\004^\253\354\306\3734\374\354"
 246      D069A604 
 246      5EABECC6 
 246      FB34FCEC 
 247 0260 3DC348E1 		.ascii	"=\303H\341\254\270\341x\245;\216_j\235*\374\222f\275"
 247      ACB8E178 
 247      A53B8E5F 
 247      6A9D2AFC 
 247      9266BD
 248 0273 E8E89E4A 		.ascii	"\350\350\236J`Y\017\302\327\346\341\235\371\301\372"
 248      60590FC2 
 248      D7E6E19D 
 248      F9C1FA
 249 0282 15B4A368 		.ascii	"\025\264\243h\222\311\204\222f\016*\000S\007o\033\341"
 249      92C98492 
 249      660E2A00 
 249      53076F1B 
 249      E1
 250 0293 38BE227C 		.ascii	"8\276\"|\270\267n\330\300\264I2\257\334.\3100\260\232"
 250      B8B76ED8 
 250      C0B44932 
ARM GAS  C:\Users\Daniela\AppData\Local\Temp\ccdat0tl.s 			page 19


 250      AFDC2EC8 
 250      30B09A
 251 02a6 D591E9FA 		.ascii	"\325\221\351\372\307'\236\030\204\231\304\221\306\275"
 251      C7279E18 
 251      8499C491 
 251      C6BD
 252 02b4 A4AD2014 		.ascii	"\244\255 \024\"\215\200\306@_\250\364,\007\036,N\025"
 252      228D80C6 
 252      405FA8F4 
 252      2C071E2C 
 252      4E15
 253 02c6 493FBBB6 		.ascii	"I?\273\266J\350\275\36732\214\317\201\364N\213\336\273"
 253      4AE8BDF7 
 253      33328CCF 
 253      81F44E8B 
 253      DEBB
 254 02d8 53D28DE7 		.ascii	"S\322\215\347\340=#\274\203\025?\201\025'\232\264\344"
 254      E03D23BC 
 254      83153F81 
 254      15279AB4 
 254      E4
 255 02e9 FF429B5F 		.ascii	"\377B\233_0FK\266\224\017\360\341.\331\374\007@A\237"
 255      30464BB6 
 255      940FF0E1 
 255      2ED9FC07 
 255      40419F
 256 02fc E37C250D 		.ascii	"\343|%\015\340$\204+a\020\364\251\007O[C&\374.O\332"
 256      E024842B 
 256      6110F4A9 
 256      074F5B43 
 256      26FC2E4F 
 257 0311 1241A748 		.ascii	"\022A\247H\337\335\315<\034\240\301T\301)\230@A\235"
 257      DFDDCD3C 
 257      1CA0C154 
 257      C1299840 
 257      419D
 258 0323 69D5D921 		.ascii	"i\325\331!\302<\232\256M\025;\367jq\026Nc;}\011\032"
 258      C23C9AAE 
 258      4D153BF7 
 258      6A71164E 
 258      633B7D09 
 259 0338 0A183EBB 		.ascii	"\012\030>\273m+?~\263\234\264\010\015\314{\315/g\325"
 259      6D2B3F7E 
 259      B39CB408 
 259      0DCC7BCD 
 259      2F67D5
 260 034b 301EFF2F 		.ascii	"0\036\377/\3200\217\205\367\362\247L\314\227<eR\373"
 260      D0308F85 
 260      F7F2A74C 
 260      CC973C65 
 260      52FB
 261 035d 7075D2E5 		.ascii	"pu\322\345]\313$W\032\362\24408\246\364(\234\001\015"
 261      5DCB2457 
 261      1AF2A430 
 261      38A6F428 
 261      9C010D
 262 0370 7923B53B 		.ascii	"y#\265;\012\255X\277\257`\"j\267,_w\025\204\245\000"
ARM GAS  C:\Users\Daniela\AppData\Local\Temp\ccdat0tl.s 			page 20


 262      0AAD58BF 
 262      AF60226A 
 262      B72C5F77 
 262      1584A500 
 263 0384 2F257F56 		.ascii	"/%\177V&\257\"|N&|\320\2652W\217,\362\313$\217;K\310"
 263      26AF227C 
 263      4E267CD0 
 263      B532578F 
 263      2CF2CB24 
 264 039c 913C19C8 		.ascii	"\221<\031\310\235\247\034j\274\034\316#\207\032\177"
 264      9DA71C6A 
 264      BC1CCE23 
 264      871A7F
 265 03ab 0E172887 		.ascii	"\016\027(\207\203-\307\312\203\205,\306a\363\225\376"
 265      832DC7CA 
 265      83852CC6 
 265      61F395FE 
 266 03bb 41A00EC9 		.ascii	"A\240\016\311:\200A\342\330\362\364\243\225\302\250"
 266      3A8041E2 
 266      D8F2F4A3 
 266      95C2A8
 267 03ca E9B848D3 		.ascii	"\351\270H\323\3615\310\371\270\337tc8\014\251\264\343"
 267      F135C8F9 
 267      B8DF7463 
 267      380CA9B4 
 267      E3
 268 03db 9232B8EA 		.ascii	"\2222\270\352\257}\207\245\214 \202\201Z\337\367Z+w"
 268      AF7D87A5 
 268      8C208281 
 268      5ADFF75A 
 268      2B77
 269 03ed 07D45102 		.ascii	"\007\324Q\002[:\333\233\203\205*F\240\273'\257\226E"
 269      5B3ADB9B 
 269      83852A46 
 269      A0BB27AF 
 269      9645
 270 03ff 5CEE2550 		.ascii	"\\\356%P\177t\351\375`\241\226\002\370\222\2025\245"
 270      7F74E9FD 
 270      60A19602 
 270      F8928235 
 270      A5
 271 0410 BA51178E 		.ascii	"\272Q\027\216\372\321\026\216\366\372\262\230C\313I"
 271      FAD1168E 
 271      F6FAB298 
 271      43CB49
 272 041f 52AEA2DD 		.ascii	"R\256\242\335+\317,\036\350\244\362T\341\034\377 \011"
 272      2BCF2C1E 
 272      E8A4F254 
 272      E11CFF20 
 272      09
 273 0430 CC176503 		.ascii	"\314\027e\003\215\362\262\022\245\273\263\342\264\306"
 273      8DF2B212 
 273      A5BBB3E2 
 273      B4C6
 274 043e 1BE5CC9B 		.ascii	"\033\345\314\233\273\226y\\@Qp\311g\372\222\022g#\215"
 274      BB96795C 
 274      405170C9 
ARM GAS  C:\Users\Daniela\AppData\Local\Temp\ccdat0tl.s 			page 21


 274      67FA9212 
 274      67238D
 275 0451 F38BEFBB 		.ascii	"\363\213\357\273\326\203\3200z\234\337\365\345\337\015"
 275      D683D030 
 275      7A9CDFF5 
 275      E5DF0D
 276 0460 1C35D12D 		.ascii	"\0345\321-\224B\263Ba\335\272\253\335A\214\202\247b"
 276      9442B342 
 276      61DDBAAB 
 276      DD418C82 
 276      A762
 277 0472 39D6FC94 		.ascii	"9\326\374\224\206@\240\311\347\277I\361\337J\375\017"
 277      8640A0C9 
 277      E7BF49F1 
 277      DF4AFD0F 
 278 0482 5D3B33A0 		.ascii	"];3\240\021\356\215\356?\313\345\276\257*t\271*\007"
 278      11EE8DEE 
 278      3FCBE5BE 
 278      AF2A74B9 
 278      2A07
 279 0494 D729816F 		.ascii	"\327)\201o\024\002\253\316\324\334\0059\007\331Y\237"
 279      1402ABCE 
 279      D4DC0539 
 279      07D9599F 
 280 04a4 9C947380 		.ascii	"\234\224s\200(\270\346\343pM\341\320F9\344\255\334\365"
 280      28B8E6E3 
 280      704DE1D0 
 280      4639E4AD 
 280      DCF5
 281 04b6 5423ECE1 		.ascii	"T#\354\341)\207\363\271\215\267\014\336,\376\215\365"
 281      2987F3B9 
 281      8DB70CDE 
 281      2CFE8DF5 
 282 04c6 0A89A1DD 		.ascii	"\012\211\241\335\247\337\256\350\337\240\372\305\017"
 282      A7DFAEE8 
 282      DFA0FAC5 
 282      0F
 283 04d3 1FF50A82 		.ascii	"\037\365\012\202\233\351w=m\234\344%\020\243\020 M\177"
 283      9BE9773D 
 283      6D9CE425 
 283      10A31020 
 283      4D7F
 284 04e5 D367E0A6 		.ascii	"\323g\340\246b\240\203\032(=V\265V+\234f\006jK\273V"
 284      62A0831A 
 284      283D56B5 
 284      562B9C66 
 284      066A4BBB 
 285 04fa EB84F3EC 		.ascii	"\353\204\363\354\245l\333\355s$#\320I5\310H\232go\210"
 285      A56CDBED 
 285      732423D0 
 285      4935C848 
 285      9A676F88 
 286 050e 50C7A677 		.ascii	"P\307\246w\356\331q9\210L\337\301i\270\0154c\312\216"
 286      EED97139 
 286      884CDFC1 
 286      69B80D34 
 286      63CA8E
ARM GAS  C:\Users\Daniela\AppData\Local\Temp\ccdat0tl.s 			page 22


 287 0521 18F3DF3B 		.ascii	"\030\363\337;b\014\333\021w\017\366\0343\010M\324\006"
 287      620CDB11 
 287      770FF61C 
 287      33084DD4 
 287      06
 288 0532 9FBFB6A4 		.ascii	"\237\277\266\244K\013\221l\265l\037\331\034\333\267"
 288      4B0B916C 
 288      B56C1FD9 
 288      1CDBB7
 289 0541 94746437 		.ascii	"\224td7\246\371\236\217q\014\351\310\347\267\367}l\357"
 289      A6F99E8F 
 289      710CE9C8 
 289      E7B7F77D 
 289      6CEF
 290 0553 18B9BDEF 		.ascii	"\030\271\275\357\342`\027[$\233\252.\364\013\264\230"
 290      E260175B 
 290      249BAA2E 
 290      F40BB498 
 291 0563 DDDE6236 		.ascii	"\335\336b6\3358\325\245\241c\263\365\360oF\267\247\345"
 291      DD38D5A5 
 291      A163B3F5 
 291      F06F46B7 
 291      A7E5
 292 0575 F4084FC7 		.ascii	"\364\010O\307\346\032\240\207\2155\244\257y\024:\241"
 292      E61AA087 
 292      8D35A4AF 
 292      79143AA1 
 293 0585 4DC89302 		.ascii	"M\310\223\002i\320'r\272\334L\357\201\274\344<\272\271"
 293      69D02772 
 293      BADC4CEF 
 293      81BCE43C 
 293      BAB9
 294 0597 76438070 		.ascii	"vC\200pC\240\361<\310\353+\324\2214\364!\341\207\362"
 294      43A0F13C 
 294      C8EB2BD4 
 294      9134F421 
 294      E187F2
 295 05aa FAD37F2D 		.ascii	"\372\323\177-\247J+t1DQ\366\356:\232\307\357H\242\372"
 295      A74A2B74 
 295      314451F6 
 295      EE3A9AC7 
 295      EF48A2FA 
 296 05be 99978103 		.ascii	"\231\227\201\003\325\217\203\374[\013\011\310Q\301#"
 296      D58F83FC 
 296      5B0B09C8 
 296      51C123
 297 05cd 84C0006D 		.ascii	"\204\300\000m\256^\245\271\326\273G\326\321\356vI\355"
 297      AE5EA5B9 
 297      D6BB47D6 
 297      D1EE7649 
 297      ED
 298 05de 57DA8CD9 		.ascii	"W\332\214\331\351\3715\222\007\256\363\004\007\267\274"
 298      E9F93592 
 298      07AEF304 
 298      07B7BC
 299 05ed 4BDAB7B8 		.ascii	"K\332\267\270\244\335R\012\374\230\026\370l\317\215"
 299      A4DD520A 
ARM GAS  C:\Users\Daniela\AppData\Local\Temp\ccdat0tl.s 			page 23


 299      FC9816F8 
 299      6CCF8D
 300 05fc 21103A34 		.ascii	"!\020:4\224\313\320\267\033\233\345\335\320@6\223\317"
 300      94CBD0B7 
 300      1B9BE5DD 
 300      D0403693 
 300      CF
 301 060d 9B33C3D8 		.ascii	"\2333\303\330~\326N\246\253\372\257\205\011\217\031"
 301      7ED64EA6 
 301      ABFAAF85 
 301      098F19
 302 061c F4C8F686 		.ascii	"\364\310\366\206\035/\330)\207\225\235\362\035\232\361"
 302      1D2FD829 
 302      87959DF2 
 302      1D9AF1
 303 062b AB877ABE 		.ascii	"\253\207z\276\346\205\025Z\252z\370\313\201\026\203"
 303      E685155A 
 303      AA7AF8CB 
 303      811683
 304 063a E0622F65 		.ascii	"\340b/e9\003\337\350I\370#J\033\335\032*\251\014e$t"
 304      3903DFE8 
 304      49F8234A 
 304      1BDD1A2A 
 304      A90C6524 
 305 064f F8FAF9B1 		.ascii	"\370\372\371\261\252j-#\361\016\351\253\264\372\363"
 305      AA6A2D23 
 305      F10EE9AB 
 305      B4FAF3
 306 065e 21423655 		.ascii	"!B6U\326\254Y\277\2510\030&E\216\235\264\223\324\277"
 306      D6AC59BF 
 306      A9301826 
 306      458E9DB4 
 306      93D4BF
 307 0671 7D78D9BC 		.ascii	"}x\331\274\362\364eRY\034]\216\323y\001\226\361c}\247"
 307      F2F46552 
 307      591C5D8E 
 307      D3790196 
 307      F1637DA7 
 308 0685 B9B70933 		.ascii	"\271\267\01137\341'\237\216\352\263^\223p\217E\020]"
 308      37E1279F 
 308      8EEAB35E 
 308      93708F45 
 308      105D
 309 0697 DDE52D38 		.ascii	"\335\345-8\223\355\236+$X\314\301\022\336\010i(\022"
 309      93ED9E2B 
 309      2458CCC1 
 309      12DE0869 
 309      2812
 310 06a9 8F5927D6 		.ascii	"\217Y'\326\020\007K\371HX\316O\202\014~\022\325\240"
 310      10074BF9 
 310      4858CE4F 
 310      820C7E12 
 310      D5A0
 311 06bb DE3D8D59 		.ascii	"\336=\215Y\343p+\311\024H\261\236\002\363\355mE\352"
 311      E3702BC9 
 311      1448B19E 
 311      02F3ED6D 
ARM GAS  C:\Users\Daniela\AppData\Local\Temp\ccdat0tl.s 			page 24


 311      45EA
 312 06cd 7B9A9185 		.ascii	"{\232\221\205xvsG\206V\310\245A\360\313\3336$@\344X"
 312      78767347 
 312      8656C8A5 
 312      41F0CBDB 
 312      362440E4 
 313 06e2 C6A8F5F2 		.ascii	"\306\250\365\362\253\204\321*T]\201\364\031)Jpt^\260"
 313      AB84D12A 
 313      545D81F4 
 313      19294A70 
 313      745EB0
 314 06f5 12E98C46 		.ascii	"\022\351\214F\015\275\225\254y\232\246\361\235\011\026"
 314      0DBD95AC 
 314      799AA6F1 
 314      9D0916
 315 0704 53EB4348 		.ascii	"S\353CH\354\011-\325j>\\)\030\335\034k\017\271\203\307"
 315      EC092DD5 
 315      6A3E5C29 
 315      18DD1C6B 
 315      0FB983C7 
 316 0718 CABE6A5E 		.ascii	"\312\276j^\344\213{\326\321\332\312\354t\203\277\243"
 316      E48B7BD6 
 316      D1DACAEC 
 316      7483BFA3 
 317 0728 352F7254 		.ascii	"5/rT\320|\373\256\376\315]R\035\036\007\332\262&\247"
 317      D07CFBAE 
 317      FECD5D52 
 317      1D1E07DA 
 317      B226A7
 318 073b E12E1C01 		.ascii	"\341.\034\001k\371p\370\036h\340~\232\2038\362\011\366"
 318      6BF970F8 
 318      1E68E07E 
 318      9A8338F2 
 318      09F6
 319 074d C83AFE4D 		.ascii	"\310:\376M\262\365\024\227n\021H\353\245\377o'a\242"
 319      B2F51497 
 319      6E1148EB 
 319      A5FF6F27 
 319      61A2
 320 075f 725DCAD5 		.ascii	"r]\312\325\012\373Y\302+\216\337+\016e[\342s,d\361\243"
 320      0AFB59C2 
 320      2B8EDF2B 
 320      0E655BE2 
 320      732C64F1 
 321 0774 6E898F63 		.ascii	"n\211\217c2W\222\005(\223\327\203\213\367.@\353y9\242"
 321      32579205 
 321      2893D783 
 321      8BF72E40 
 321      EB7939A2 
 322 0788 A335978E 		.ascii	"\2435\227\216\004\030V\371\226\"\212\364}\024\033x\003"
 322      041856F9 
 322      96228AF4 
 322      7D141B78 
 322      03
 323 0799 FDF2F04E 		.ascii	"\375\362\360N>\266\316\322;\006\025\232,\305>\364F\336"
 323      3EB6CED2 
 323      3B06159A 
ARM GAS  C:\Users\Daniela\AppData\Local\Temp\ccdat0tl.s 			page 25


 323      2CC53EF4 
 323      46DE
 324 07ab A078D848 		.ascii	"\240x\330H\025\006\276\350\354U\233oQ)l\222\315o\242"
 324      1506BEE8 
 324      EC559B6F 
 324      51296C92 
 324      CD6FA2
 325 07be E8ACFEEF 		.ascii	"\350\254\376\357V\004\252\320\327U\350\3152z3Eo\350"
 325      5604AAD0 
 325      D755E8CD 
 325      327A3345 
 325      6FE8
 326 07d0 79B0D69B 		.ascii	"y\260\326\233S\327\3133\202*_\356\330\335\030\242r\220"
 326      53D7CB33 
 326      822A5FEE 
 326      D8DD18A2 
 326      7290
 327 07e2 AD8A768B 		.ascii	"\255\212v\213\354`\013uPY\333\267UP\241\033Ttrdt\016"
 327      EC600B75 
 327      5059DBB7 
 327      5550A11B 
 327      54747264 
 328 07f8 455F28DE 		.ascii	"E_(\336\177G\215\276\250Bo\225\321[)\272t\351\255\375"
 328      7F478DBE 
 328      A8426F95 
 328      D15B29BA 
 328      74E9ADFD 
 329 080c 81B84418 		.ascii	"\201\270D\030q[\001\277=\305\310\366\224\234\314\216"
 329      715B01BF 
 329      3DC5C8F6 
 329      949CCC8E 
 330 081c A7C14229 		.ascii	"\247\301B)+\376\225\216\242.\215\262\247x\352\257\033"
 330      2BFE958E 
 330      A22E8DB2 
 330      A778EAAF 
 330      1B
 331 082d C9E79687 		.ascii	"\311\347\226\207\304\267\373\012j\364\356(\352C\367"
 331      C4B7FB0A 
 331      6AF4EE28 
 331      EA43F7
 332 083c 0E4C8451 		.ascii	"\016L\204QND.~\017\333x\034D]\364\261\367\311\375\241"
 332      4E442E7E 
 332      0FDB781C 
 332      445DF4B1 
 332      F7C9FDA1 
 333 0850 3015E135 		.ascii	"0\025\3415~_?\007\3712\341|J\270\373n\357\006\235\012"
 333      7E5F3F07 
 333      F932E17C 
 333      4AB8FB6E 
 333      EF069D0A 
 334 0864 4DFADE87 		.ascii	"M\372\336\207.\220\321\005\024\375\325\352\312%A\012"
 334      2E90D105 
 334      14FDD5EA 
 334      CA25410A 
 335 0874 9AD4467D 		.ascii	"\232\324F}\320\231\353m\223\235\024\276\276\270l\033"
 335      D099EB6D 
 335      939D14BE 
ARM GAS  C:\Users\Daniela\AppData\Local\Temp\ccdat0tl.s 			page 26


 335      BEB86C1B 
 336 0884 E8E5DFB3 		.ascii	"\350\345\337\263\256\227\377\236\205]4\202\272\342\223"
 336      AE97FF9E 
 336      855D3482 
 336      BAE293
 337 0893 4DEA761C 		.ascii	"M\352v\034P\245|\267\314i7u\322\237\321\327\240c\375"
 337      50A57CB7 
 337      CC693775 
 337      D29FD1D7 
 337      A063FD
 338 08a6 F2F21C91 		.ascii	"\362\362\034\221\243CW\301H\200p\204\325\300\275)gS"
 338      A34357C1 
 338      48807084 
 338      D5C0BD29 
 338      6753
 339 08b8 80F201AA 		.ascii	"\200\362\001\252\325\367=G\235\225j\360\316o\360\224"
 339      D5F73D47 
 339      9D956AF0 
 339      CE6FF094 
 340 08c8 0EB0176B 		.ascii	"\016\260\027kU\350\253\325\036\345\343+\330v\357f\260"
 340      55E8ABD5 
 340      1EE5E32B 
 340      D876EF66 
 340      B0
 341 08d9 C2C8F512 		.ascii	"\302\310\365\022\223\344@\270\275\376a\250*\336\375"
 341      93E440B8 
 341      BDFE61A8 
 341      2ADEFD
 342 08e8 AAF63D20 		.ascii	"\252\366= \307{\200\306[^\327]\252U\241\367\252\320"
 342      C77B80C6 
 342      5B5ED75D 
 342      AA55A1F7 
 342      AAD0
 343 08fa 4532BA88 		.ascii	"E2\272\210\242\327\355\371\366j\240P\311v\270\232\023"
 343      A2D7EDF9 
 343      F66AA050 
 343      C976B89A 
 343      13
 344 090b B5FF144E 		.ascii	"\265\377\024N\263\347s\035\267\217\323\343@\011/\357"
 344      B3E7731D 
 344      B78FD3E3 
 344      40092FEF 
 345 091b 762F3E8B 		.ascii	"v/>\213`mKy:v\346\334\216\356\220Q\017\273\207xr\034"
 345      606D4B79 
 345      3A76E6DC 
 345      8EEE9051 
 345      0FBB8778 
 346 0931 28E3E5E3 		.ascii	"(\343\345\343\300\306\301\312\207Z\345g\326\262Y\227"
 346      C0C6C1CA 
 346      875AE567 
 346      D6B25997 
 347 0941 D8CFACFC 		.ascii	"\330\317\254\374\017(\020\212\225\354\301A\\\320\213"
 347      0F28108A 
 347      95ECC141 
 347      5CD08B
 348 0950 79BF9F38 		.ascii	"y\277\2378\207yr&h\253\\z8X8\317(w\254\316k\3260[\236"
 348      87797226 
ARM GAS  C:\Users\Daniela\AppData\Local\Temp\ccdat0tl.s 			page 27


 348      68AB5C7A 
 348      385838CF 
 348      2877ACCE 
 349 0969 AA8B0666 		.ascii	"\252\213\006f\210-U\276*\270\375\215\224\363\023\271"
 349      882D55BE 
 349      2AB8FD8D 
 349      94F313B9 
 350 0979 C08FFF30 		.ascii	"\300\217\37707\"z\3324N\227b\261:\247\275?\341c\321"
 350      37227ADA 
 350      344E9762 
 350      B13AA7BD 
 350      3FE163D1 
 351 098d 2ADA4D4E 		.ascii	"*\332MN1n\376\034[\212\335,\306\316\236c\213\236\036"
 351      316EFE1C 
 351      5B8ADD2C 
 351      C6CE9E63 
 351      8B9E1E
 352 09a0 6B4E75A6 		.ascii	"kNu\246&\213\216\250\205\014\370\336\273\372\350D\233"
 352      268B8EA8 
 352      850CF8DE 
 352      BBFAE844 
 352      9B
 353 09b1 79D11CD1 		.ascii	"y\321\034\321\231\222\2541/4\331\365Q\311\016\233\331"
 353      9992AC31 
 353      2F34D9F5 
 353      51C90E9B 
 353      D9
 354 09c2 62B538B9 		.ascii	"b\2658\271\000\207hvZl\326\311\243\332\212\2678\235"
 354      00876876 
 354      5A6CD6C9 
 354      A3DA8AB7 
 354      389D
 355 09d4 A27DBE39 		.ascii	"\242}\2769>!\312\314\031\374\337\203\242S?\024\023M"
 355      3E21CACC 
 355      19FCDF83 
 355      A2533F14 
 355      134D
 356 09e6 A9731D6F 		.ascii	"\251s\035o\214\242\035\235\372{\313\002\3441&:uN\252"
 356      8CA21D9D 
 356      FA7BCB02 
 356      E431263A 
 356      754EAA
 357 09f9 233A71D1 		.ascii	"#:q\321Gf\333\034\247\311\356\0144\247:\234&g\212c\234"
 357      4766DB1C 
 357      A7C9EE0C 
 357      34A73A9C 
 357      26678A63 
 358 0a0e 32F327BB 		.ascii	"2\363'\273\305)\3766\3116\323..~\335;\210p\3219\333"
 358      C529FE36 
 358      C936D32E 
 358      2E7EDD3B 
 358      8870D139 
 359 0a23 F6A9689F 		.ascii	"\366\251h\237e\213\023G\013\030\335\314D4:\012\221)"
 359      658B1347 
 359      0B18DDCC 
 359      44343A0A 
 359      9129
ARM GAS  C:\Users\Daniela\AppData\Local\Temp\ccdat0tl.s 			page 28


 360 0a35 45A79A13 		.ascii	"E\247\232\023E\307\030\177;\304\255.ILr\210NM\242h\212"
 360      45C7187F 
 360      3BC4AD2E 
 360      494C7288 
 360      4E4DA268 
 361 0a4a 0FB0DA9C 		.ascii	"\017\260\332\234\013\355\266Ou\016\313?\304\371\316"
 361      0BEDB64F 
 361      750ECB3F 
 361      C4F9CE
 362 0a59 CFCCBF88 		.ascii	"\317\314\277\210M\266\333\022\354\246\244\210x\013*"
 362      4DB6DB12 
 362      ECA6A488 
 362      780B2A
 363 0a68 4744FE7D 		.ascii	"GD\376}\306\373S1\001\311v\321\341\210%\031\2130\333"
 363      C6FB5331 
 363      01C976D1 
 363      E1882519 
 363      8B30DB
 364 0a7b 4593D366 		.ascii	"E\223\323f\217\235\0365M=`IJ\266\331\235\261\011\326"
 364      8F9D1E35 
 364      4D3D6049 
 364      4AB6D99D 
 364      B109D6
 365 0a8e 9458933D 		.ascii	"\224X\223=)\366\347Q\004\221hY\020\233`6\223\221\267"
 365      29F6E751 
 365      04916859 
 365      109B6036 
 365      9391B7
 366 0aa1 AC36ABF8 		.ascii	"\2546\253\370\226hZ`\221\347,VsbJ\234\030\353p\306\305"
 366      96685A60 
 366      91E72C56 
 366      73624A9C 
 366      18EB70C6 
 367 0ab6 89F1C81C 		.ascii	"\211\361\310\034\246\005\304[#\034\311\242\031\211Y"
 367      A605C45B 
 367      231CC9A2 
 367      198959
 368 0ac5 AD298989 		.ascii	"\255)\211\211\213\377\377\214\324L|\034\354\026k\002"
 368      8BFFFF8C 
 368      D44C7C1C 
 368      EC166B02 
 369 0ad5 72188745 		.ascii	"r\030\207E\235\317R4?\321\342pFM\2371cz\3303\203\001"
 369      9DCF5234 
 369      3FD1E270 
 369      464D9F31 
 369      637AD833 
 370 0aeb A6B838E2 		.ascii	"\246\2708\342_\227l2/\022\3434$}\006?\214Sk\027\023"
 370      5F976C32 
 370      2F12E334 
 370      247D063F 
 370      8C536B17 
 371 0b00 DE7B574B 		.ascii	"\336{WKZo\206\006\237g\004E\377y\326G\263\376\362\321"
 371      5A6F8606 
 371      9F670445 
 371      FF79D647 
 371      B3FEF2D1 
 372 0b14 1F637429 		.ascii	"\037ct)\326\024\207\0307\346\327VS\242-\001K\373\241"
ARM GAS  C:\Users\Daniela\AppData\Local\Temp\ccdat0tl.s 			page 29


 372      D6148718 
 372      37E6D756 
 372      53A22D01 
 372      4BFBA1
 373 0b27 186F4A49 		.ascii	"\030oJIt\376\007r\377K\311"
 373      74FE0772 
 373      FF4BC9
 374              		.text
 375              		.section	.gnu.lto_.symtab.58ebbdb1,"",%progbits
 376 0000 63796669 		.ascii	"cyfitter_cfg\000"
 376      74746572 
 376      5F636667 
 376      00
 377 000d 00       		.ascii	"\000"
 378 000e 00       		.ascii	"\000"
 379 000f 00       		.ascii	"\000"
 380 0010 00000000 		.ascii	"\000\000\000\000\000\000\000\000"
 380      00000000 
 381 0018 CC000000 		.ascii	"\314\000\000\000"
 382 001c 43794465 		.ascii	"CyDelayUs\000"
 382      6C617955 
 382      7300
 383 0026 00       		.ascii	"\000"
 384 0027 02       		.ascii	"\002"
 385 0028 00       		.ascii	"\000"
 386 0029 00000000 		.ascii	"\000\000\000\000\000\000\000\000"
 386      00000000 
 387 0031 D0000000 		.ascii	"\320\000\000\000"
 388 0035 43795379 		.ascii	"CySysClkEcoStart\000"
 388      73436C6B 
 388      45636F53 
 388      74617274 
 388      00
 389 0046 00       		.ascii	"\000"
 390 0047 02       		.ascii	"\002"
 391 0048 00       		.ascii	"\000"
 392 0049 00000000 		.ascii	"\000\000\000\000\000\000\000\000"
 392      00000000 
 393 0051 D7000000 		.ascii	"\327\000\000\000"
 394 0055 43795379 		.ascii	"CySysClkWriteImoFreq\000"
 394      73436C6B 
 394      57726974 
 394      65496D6F 
 394      46726571 
 395 006a 00       		.ascii	"\000"
 396 006b 02       		.ascii	"\002"
 397 006c 00       		.ascii	"\000"
 398 006d 00000000 		.ascii	"\000\000\000\000\000\000\000\000"
 398      00000000 
 399 0075 DB000000 		.ascii	"\333\000\000\000"
 400 0079 43795379 		.ascii	"CySysClkWcoSetPowerMode\000"
 400      73436C6B 
 400      57636F53 
 400      6574506F 
 400      7765724D 
 401 0091 00       		.ascii	"\000"
 402 0092 02       		.ascii	"\002"
ARM GAS  C:\Users\Daniela\AppData\Local\Temp\ccdat0tl.s 			page 30


 403 0093 00       		.ascii	"\000"
 404 0094 00000000 		.ascii	"\000\000\000\000\000\000\000\000"
 404      00000000 
 405 009c DF000000 		.ascii	"\337\000\000\000"
 406 00a0 43794465 		.ascii	"CyDelayCycles\000"
 406      6C617943 
 406      79636C65 
 406      7300
 407 00ae 00       		.ascii	"\000"
 408 00af 02       		.ascii	"\002"
 409 00b0 00       		.ascii	"\000"
 410 00b1 00000000 		.ascii	"\000\000\000\000\000\000\000\000"
 410      00000000 
 411 00b9 E1000000 		.ascii	"\341\000\000\000"
 412 00bd 43795379 		.ascii	"CySysClkWcoStart\000"
 412      73436C6B 
 412      57636F53 
 412      74617274 
 412      00
 413 00ce 00       		.ascii	"\000"
 414 00cf 02       		.ascii	"\002"
 415 00d0 00       		.ascii	"\000"
 416 00d1 00000000 		.ascii	"\000\000\000\000\000\000\000\000"
 416      00000000 
 417 00d9 E3000000 		.ascii	"\343\000\000\000"
 418              		.text
 419              		.section	.gnu.lto_.opts,"",%progbits
 420 0000 272D666D 		.ascii	"'-fmath-errno' '-fsigned-zeros' '-ftrapping-math' '"
 420      6174682D 
 420      6572726E 
 420      6F272027 
 420      2D667369 
 421 0033 2D666E6F 		.ascii	"-fno-trapv' '-fno-openmp' '-fno-openacc' '-mcpu=cor"
 421      2D747261 
 421      70762720 
 421      272D666E 
 421      6F2D6F70 
 422 0066 7465782D 		.ascii	"tex-m0' '-mthumb' '-g' '-O3' '-ffunction-sections' "
 422      6D302720 
 422      272D6D74 
 422      68756D62 
 422      2720272D 
 423 0099 272D6666 		.ascii	"'-ffat-lto-objects' '-finline-functions' '-flto'\000"
 423      61742D6C 
 423      746F2D6F 
 423      626A6563 
 423      74732720 
 424              		.text
 425              		.cfi_sections	.debug_frame
 426              		.section	.psocinit,"ax",%progbits
 427              		.align	2
 428              		.global	cyfitter_cfg
 429              		.code	16
 430              		.thumb_func
 431              		.type	cyfitter_cfg, %function
 432              	cyfitter_cfg:
 433              	.LFB7:
ARM GAS  C:\Users\Daniela\AppData\Local\Temp\ccdat0tl.s 			page 31


 434              		.file 1 "Generated_Source\\PSoC4\\cyfitter_cfg.c"
   1:Generated_Source\PSoC4/cyfitter_cfg.c **** 
   2:Generated_Source\PSoC4/cyfitter_cfg.c **** /*******************************************************************************
   3:Generated_Source\PSoC4/cyfitter_cfg.c **** * File Name: cyfitter_cfg.c
   4:Generated_Source\PSoC4/cyfitter_cfg.c **** * 
   5:Generated_Source\PSoC4/cyfitter_cfg.c **** * PSoC Creator  4.1 Update 1
   6:Generated_Source\PSoC4/cyfitter_cfg.c **** *
   7:Generated_Source\PSoC4/cyfitter_cfg.c **** * Description:
   8:Generated_Source\PSoC4/cyfitter_cfg.c **** * This file contains device initialization code.
   9:Generated_Source\PSoC4/cyfitter_cfg.c **** * Except for the user defined sections in CyClockStartupError(), this file should not be modified.
  10:Generated_Source\PSoC4/cyfitter_cfg.c **** * This file is automatically generated by PSoC Creator.
  11:Generated_Source\PSoC4/cyfitter_cfg.c **** *
  12:Generated_Source\PSoC4/cyfitter_cfg.c **** ********************************************************************************
  13:Generated_Source\PSoC4/cyfitter_cfg.c **** * Copyright (c) 2007-2017 Cypress Semiconductor.  All rights reserved.
  14:Generated_Source\PSoC4/cyfitter_cfg.c **** * You may use this file only in accordance with the license, terms, conditions, 
  15:Generated_Source\PSoC4/cyfitter_cfg.c **** * disclaimers, and limitations in the end user license agreement accompanying 
  16:Generated_Source\PSoC4/cyfitter_cfg.c **** * the software package with which this file was provided.
  17:Generated_Source\PSoC4/cyfitter_cfg.c **** ********************************************************************************/
  18:Generated_Source\PSoC4/cyfitter_cfg.c **** 
  19:Generated_Source\PSoC4/cyfitter_cfg.c **** #include <string.h>
  20:Generated_Source\PSoC4/cyfitter_cfg.c **** #include "cytypes.h"
  21:Generated_Source\PSoC4/cyfitter_cfg.c **** #include "cydevice_trm.h"
  22:Generated_Source\PSoC4/cyfitter_cfg.c **** #include "cyfitter.h"
  23:Generated_Source\PSoC4/cyfitter_cfg.c **** #include "CyLib.h"
  24:Generated_Source\PSoC4/cyfitter_cfg.c **** #include "cyfitter_cfg.h"
  25:Generated_Source\PSoC4/cyfitter_cfg.c **** 
  26:Generated_Source\PSoC4/cyfitter_cfg.c **** 
  27:Generated_Source\PSoC4/cyfitter_cfg.c **** #if defined(__GNUC__) || defined(__ARMCC_VERSION)
  28:Generated_Source\PSoC4/cyfitter_cfg.c ****     #define CYPACKED 
  29:Generated_Source\PSoC4/cyfitter_cfg.c ****     #define CYPACKED_ATTR __attribute__ ((packed))
  30:Generated_Source\PSoC4/cyfitter_cfg.c ****     #define CYALIGNED __attribute__ ((aligned))
  31:Generated_Source\PSoC4/cyfitter_cfg.c ****     #define CY_CFG_UNUSED __attribute__ ((unused))
  32:Generated_Source\PSoC4/cyfitter_cfg.c ****     #ifndef CY_CFG_SECTION
  33:Generated_Source\PSoC4/cyfitter_cfg.c ****         #define CY_CFG_SECTION __attribute__ ((section(".psocinit")))
  34:Generated_Source\PSoC4/cyfitter_cfg.c ****     #endif
  35:Generated_Source\PSoC4/cyfitter_cfg.c ****     
  36:Generated_Source\PSoC4/cyfitter_cfg.c ****     #if defined(__ARMCC_VERSION)
  37:Generated_Source\PSoC4/cyfitter_cfg.c ****         #define CY_CFG_MEMORY_BARRIER() __memory_changed()
  38:Generated_Source\PSoC4/cyfitter_cfg.c ****     #else
  39:Generated_Source\PSoC4/cyfitter_cfg.c ****         #define CY_CFG_MEMORY_BARRIER() __sync_synchronize()
  40:Generated_Source\PSoC4/cyfitter_cfg.c ****     #endif
  41:Generated_Source\PSoC4/cyfitter_cfg.c ****     
  42:Generated_Source\PSoC4/cyfitter_cfg.c **** #elif defined(__ICCARM__)
  43:Generated_Source\PSoC4/cyfitter_cfg.c ****     #include <intrinsics.h>
  44:Generated_Source\PSoC4/cyfitter_cfg.c **** 
  45:Generated_Source\PSoC4/cyfitter_cfg.c ****     #define CYPACKED __packed
  46:Generated_Source\PSoC4/cyfitter_cfg.c ****     #define CYPACKED_ATTR 
  47:Generated_Source\PSoC4/cyfitter_cfg.c ****     #define CYALIGNED _Pragma("data_alignment=4")
  48:Generated_Source\PSoC4/cyfitter_cfg.c ****     #define CY_CFG_UNUSED _Pragma("diag_suppress=Pe177")
  49:Generated_Source\PSoC4/cyfitter_cfg.c ****     #define CY_CFG_SECTION _Pragma("location=\".psocinit\"")
  50:Generated_Source\PSoC4/cyfitter_cfg.c ****     
  51:Generated_Source\PSoC4/cyfitter_cfg.c ****     #define CY_CFG_MEMORY_BARRIER() __DMB()
  52:Generated_Source\PSoC4/cyfitter_cfg.c ****     
  53:Generated_Source\PSoC4/cyfitter_cfg.c **** #else
  54:Generated_Source\PSoC4/cyfitter_cfg.c ****     #error Unsupported toolchain
  55:Generated_Source\PSoC4/cyfitter_cfg.c **** #endif
  56:Generated_Source\PSoC4/cyfitter_cfg.c **** 
ARM GAS  C:\Users\Daniela\AppData\Local\Temp\ccdat0tl.s 			page 32


  57:Generated_Source\PSoC4/cyfitter_cfg.c **** #ifndef CYCODE
  58:Generated_Source\PSoC4/cyfitter_cfg.c ****     #define CYCODE
  59:Generated_Source\PSoC4/cyfitter_cfg.c **** #endif
  60:Generated_Source\PSoC4/cyfitter_cfg.c **** #ifndef CYDATA
  61:Generated_Source\PSoC4/cyfitter_cfg.c ****     #define CYDATA
  62:Generated_Source\PSoC4/cyfitter_cfg.c **** #endif
  63:Generated_Source\PSoC4/cyfitter_cfg.c **** #ifndef CYFAR
  64:Generated_Source\PSoC4/cyfitter_cfg.c ****     #define CYFAR
  65:Generated_Source\PSoC4/cyfitter_cfg.c **** #endif
  66:Generated_Source\PSoC4/cyfitter_cfg.c **** #ifndef CYXDATA
  67:Generated_Source\PSoC4/cyfitter_cfg.c ****     #define CYXDATA
  68:Generated_Source\PSoC4/cyfitter_cfg.c **** #endif
  69:Generated_Source\PSoC4/cyfitter_cfg.c **** 
  70:Generated_Source\PSoC4/cyfitter_cfg.c **** 
  71:Generated_Source\PSoC4/cyfitter_cfg.c **** CY_CFG_UNUSED
  72:Generated_Source\PSoC4/cyfitter_cfg.c **** static void CYMEMZERO(void *s, size_t n);
  73:Generated_Source\PSoC4/cyfitter_cfg.c **** CY_CFG_UNUSED
  74:Generated_Source\PSoC4/cyfitter_cfg.c **** static void CYMEMZERO(void *s, size_t n)
  75:Generated_Source\PSoC4/cyfitter_cfg.c **** {
  76:Generated_Source\PSoC4/cyfitter_cfg.c **** 	(void)memset(s, 0, n);
  77:Generated_Source\PSoC4/cyfitter_cfg.c **** }
  78:Generated_Source\PSoC4/cyfitter_cfg.c **** CY_CFG_UNUSED
  79:Generated_Source\PSoC4/cyfitter_cfg.c **** static void CYCONFIGCPY(void *dest, const void *src, size_t n);
  80:Generated_Source\PSoC4/cyfitter_cfg.c **** CY_CFG_UNUSED
  81:Generated_Source\PSoC4/cyfitter_cfg.c **** static void CYCONFIGCPY(void *dest, const void *src, size_t n)
  82:Generated_Source\PSoC4/cyfitter_cfg.c **** {
  83:Generated_Source\PSoC4/cyfitter_cfg.c **** 	(void)memcpy(dest, src, n);
  84:Generated_Source\PSoC4/cyfitter_cfg.c **** }
  85:Generated_Source\PSoC4/cyfitter_cfg.c **** CY_CFG_UNUSED
  86:Generated_Source\PSoC4/cyfitter_cfg.c **** static void CYCONFIGCPYCODE(void *dest, const void *src, size_t n);
  87:Generated_Source\PSoC4/cyfitter_cfg.c **** CY_CFG_UNUSED
  88:Generated_Source\PSoC4/cyfitter_cfg.c **** static void CYCONFIGCPYCODE(void *dest, const void *src, size_t n)
  89:Generated_Source\PSoC4/cyfitter_cfg.c **** {
  90:Generated_Source\PSoC4/cyfitter_cfg.c **** 	(void)memcpy(dest, src, n);
  91:Generated_Source\PSoC4/cyfitter_cfg.c **** }
  92:Generated_Source\PSoC4/cyfitter_cfg.c **** 
  93:Generated_Source\PSoC4/cyfitter_cfg.c **** 
  94:Generated_Source\PSoC4/cyfitter_cfg.c **** 
  95:Generated_Source\PSoC4/cyfitter_cfg.c **** 
  96:Generated_Source\PSoC4/cyfitter_cfg.c **** /* Clock startup error codes                                                   */
  97:Generated_Source\PSoC4/cyfitter_cfg.c **** #define CYCLOCKSTART_NO_ERROR    0u
  98:Generated_Source\PSoC4/cyfitter_cfg.c **** #define CYCLOCKSTART_XTAL_ERROR  1u
  99:Generated_Source\PSoC4/cyfitter_cfg.c **** #define CYCLOCKSTART_32KHZ_ERROR 2u
 100:Generated_Source\PSoC4/cyfitter_cfg.c **** #define CYCLOCKSTART_PLL_ERROR   3u
 101:Generated_Source\PSoC4/cyfitter_cfg.c **** #define CYCLOCKSTART_FLL_ERROR   4u
 102:Generated_Source\PSoC4/cyfitter_cfg.c **** 
 103:Generated_Source\PSoC4/cyfitter_cfg.c **** 
 104:Generated_Source\PSoC4/cyfitter_cfg.c **** #ifdef CY_NEED_CYCLOCKSTARTUPERROR
 105:Generated_Source\PSoC4/cyfitter_cfg.c **** /*******************************************************************************
 106:Generated_Source\PSoC4/cyfitter_cfg.c **** * Function Name: CyClockStartupError
 107:Generated_Source\PSoC4/cyfitter_cfg.c **** ********************************************************************************
 108:Generated_Source\PSoC4/cyfitter_cfg.c **** * Summary:
 109:Generated_Source\PSoC4/cyfitter_cfg.c **** *  If an error is encountered during clock configuration (crystal startup error,
 110:Generated_Source\PSoC4/cyfitter_cfg.c **** *  PLL lock error, etc.), the system will end up here.  Unless reimplemented by
 111:Generated_Source\PSoC4/cyfitter_cfg.c **** *  the customer, this function will stop in an infinite loop.
 112:Generated_Source\PSoC4/cyfitter_cfg.c **** *
 113:Generated_Source\PSoC4/cyfitter_cfg.c **** * Parameters:
ARM GAS  C:\Users\Daniela\AppData\Local\Temp\ccdat0tl.s 			page 33


 114:Generated_Source\PSoC4/cyfitter_cfg.c **** *   void
 115:Generated_Source\PSoC4/cyfitter_cfg.c **** *
 116:Generated_Source\PSoC4/cyfitter_cfg.c **** * Return:
 117:Generated_Source\PSoC4/cyfitter_cfg.c **** *   void
 118:Generated_Source\PSoC4/cyfitter_cfg.c **** *
 119:Generated_Source\PSoC4/cyfitter_cfg.c **** *******************************************************************************/
 120:Generated_Source\PSoC4/cyfitter_cfg.c **** CY_CFG_UNUSED
 121:Generated_Source\PSoC4/cyfitter_cfg.c **** static void CyClockStartupError(uint8 errorCode);
 122:Generated_Source\PSoC4/cyfitter_cfg.c **** CY_CFG_UNUSED
 123:Generated_Source\PSoC4/cyfitter_cfg.c **** static void CyClockStartupError(uint8 errorCode)
 124:Generated_Source\PSoC4/cyfitter_cfg.c **** {
 125:Generated_Source\PSoC4/cyfitter_cfg.c ****     /* To remove the compiler warning if errorCode not used. */
 126:Generated_Source\PSoC4/cyfitter_cfg.c **** #if defined(CY_PSOC3) && (CY_PSOC3)
 127:Generated_Source\PSoC4/cyfitter_cfg.c ****     errorCode = errorCode;
 128:Generated_Source\PSoC4/cyfitter_cfg.c **** #else
 129:Generated_Source\PSoC4/cyfitter_cfg.c ****     (void)errorCode;
 130:Generated_Source\PSoC4/cyfitter_cfg.c **** #endif /* CY_PSOC3 */
 131:Generated_Source\PSoC4/cyfitter_cfg.c **** 
 132:Generated_Source\PSoC4/cyfitter_cfg.c ****     /* If we have a clock startup error (bad MHz crystal, PLL lock, etc.),  */
 133:Generated_Source\PSoC4/cyfitter_cfg.c ****     /* we will end up here to allow the customer to implement something to  */
 134:Generated_Source\PSoC4/cyfitter_cfg.c ****     /* deal with the clock condition.                                       */
 135:Generated_Source\PSoC4/cyfitter_cfg.c **** 
 136:Generated_Source\PSoC4/cyfitter_cfg.c **** #ifdef CY_CFG_CLOCK_STARTUP_ERROR_CALLBACK
 137:Generated_Source\PSoC4/cyfitter_cfg.c ****     CY_CFG_Clock_Startup_ErrorCallback();
 138:Generated_Source\PSoC4/cyfitter_cfg.c **** #else
 139:Generated_Source\PSoC4/cyfitter_cfg.c ****     /*  If not using CY_CFG_CLOCK_STARTUP_ERROR_CALLBACK, place your clock startup code here. */
 140:Generated_Source\PSoC4/cyfitter_cfg.c ****     /* `#START CyClockStartupError` */
 141:Generated_Source\PSoC4/cyfitter_cfg.c **** 
 142:Generated_Source\PSoC4/cyfitter_cfg.c **** 
 143:Generated_Source\PSoC4/cyfitter_cfg.c **** 
 144:Generated_Source\PSoC4/cyfitter_cfg.c ****     /* `#END` */
 145:Generated_Source\PSoC4/cyfitter_cfg.c **** 
 146:Generated_Source\PSoC4/cyfitter_cfg.c ****     while(1) {}
 147:Generated_Source\PSoC4/cyfitter_cfg.c **** #endif /* CY_CFG_CLOCK_STARTUP_ERROR_CALLBACK */
 148:Generated_Source\PSoC4/cyfitter_cfg.c **** }
 149:Generated_Source\PSoC4/cyfitter_cfg.c **** #endif
 150:Generated_Source\PSoC4/cyfitter_cfg.c **** 
 151:Generated_Source\PSoC4/cyfitter_cfg.c **** 
 152:Generated_Source\PSoC4/cyfitter_cfg.c **** 
 153:Generated_Source\PSoC4/cyfitter_cfg.c **** /*******************************************************************************
 154:Generated_Source\PSoC4/cyfitter_cfg.c **** * Function Name: ClockSetup
 155:Generated_Source\PSoC4/cyfitter_cfg.c **** ********************************************************************************
 156:Generated_Source\PSoC4/cyfitter_cfg.c **** *
 157:Generated_Source\PSoC4/cyfitter_cfg.c **** * Summary:
 158:Generated_Source\PSoC4/cyfitter_cfg.c **** *   Performs the initialization of all of the clocks in the device based on the
 159:Generated_Source\PSoC4/cyfitter_cfg.c **** *   settings in the Clock tab of the DWR.  This includes enabling the requested
 160:Generated_Source\PSoC4/cyfitter_cfg.c **** *   clocks and setting the necessary dividers to produce the desired frequency. 
 161:Generated_Source\PSoC4/cyfitter_cfg.c **** *
 162:Generated_Source\PSoC4/cyfitter_cfg.c **** * Parameters:
 163:Generated_Source\PSoC4/cyfitter_cfg.c **** *   void
 164:Generated_Source\PSoC4/cyfitter_cfg.c **** *
 165:Generated_Source\PSoC4/cyfitter_cfg.c **** * Return:
 166:Generated_Source\PSoC4/cyfitter_cfg.c **** *   void
 167:Generated_Source\PSoC4/cyfitter_cfg.c **** *
 168:Generated_Source\PSoC4/cyfitter_cfg.c **** *******************************************************************************/
 169:Generated_Source\PSoC4/cyfitter_cfg.c **** static void ClockSetup(void);
 170:Generated_Source\PSoC4/cyfitter_cfg.c **** CY_CFG_SECTION
ARM GAS  C:\Users\Daniela\AppData\Local\Temp\ccdat0tl.s 			page 34


 171:Generated_Source\PSoC4/cyfitter_cfg.c **** static void ClockSetup(void)
 172:Generated_Source\PSoC4/cyfitter_cfg.c **** {
 173:Generated_Source\PSoC4/cyfitter_cfg.c **** 
 174:Generated_Source\PSoC4/cyfitter_cfg.c **** 	/* Set Flash Cycles based on max possible frequency in case a glitch occurs during ClockSetup(). *
 175:Generated_Source\PSoC4/cyfitter_cfg.c **** 	CY_SET_REG32((void CYXDATA *)(CYREG_CPUSS_FLASH_CTL), (0x0012u));
 176:Generated_Source\PSoC4/cyfitter_cfg.c **** 
 177:Generated_Source\PSoC4/cyfitter_cfg.c **** 	/* Start the WCO */
 178:Generated_Source\PSoC4/cyfitter_cfg.c **** 	CySysClkWcoStart();
 179:Generated_Source\PSoC4/cyfitter_cfg.c **** 	CyDelayCycles(12000000u); /* WCO may take up to 500ms to start */
 180:Generated_Source\PSoC4/cyfitter_cfg.c **** 	(void)CySysClkWcoSetPowerMode(CY_SYS_CLK_WCO_LPM);    /* Switch to the low power mode */
 181:Generated_Source\PSoC4/cyfitter_cfg.c **** 
 182:Generated_Source\PSoC4/cyfitter_cfg.c **** 	/* Setup and trim IMO based on desired frequency. */
 183:Generated_Source\PSoC4/cyfitter_cfg.c **** 	CySysClkWriteImoFreq(48u);
 184:Generated_Source\PSoC4/cyfitter_cfg.c **** 	/* CYDEV_CLK_ILO_CONFIG Starting address: CYDEV_CLK_ILO_CONFIG */
 185:Generated_Source\PSoC4/cyfitter_cfg.c **** 	CY_SET_REG32((void *)(CYREG_CLK_ILO_CONFIG), 0x80000006u);
 186:Generated_Source\PSoC4/cyfitter_cfg.c **** 
 187:Generated_Source\PSoC4/cyfitter_cfg.c **** 	/* CYDEV_WDT_CONFIG Starting address: CYDEV_WDT_CONFIG */
 188:Generated_Source\PSoC4/cyfitter_cfg.c **** 	CY_SET_REG32((void *)(CYREG_WDT_CONFIG), 0x40000000u);
 189:Generated_Source\PSoC4/cyfitter_cfg.c **** 
 190:Generated_Source\PSoC4/cyfitter_cfg.c **** 
 191:Generated_Source\PSoC4/cyfitter_cfg.c **** 	/* Enable fast start mode for XO */
 192:Generated_Source\PSoC4/cyfitter_cfg.c **** 	CY_SET_REG32((void*)CYREG_BLE_BLERD_BB_XO, CY_GET_REG32((void*)CYREG_BLE_BLERD_BB_XO) | (uint32)0x
 193:Generated_Source\PSoC4/cyfitter_cfg.c **** 	CY_SET_REG32((void *)(CYREG_BLE_BLERD_BB_XO_CAPTRIM), 0x00003E2Du);
 194:Generated_Source\PSoC4/cyfitter_cfg.c **** 	/*Set XTAL(ECO) divider*/
 195:Generated_Source\PSoC4/cyfitter_cfg.c **** 	CY_SET_REG32((void *)(CYREG_BLE_BLESS_XTAL_CLK_DIV_CONFIG), 0x00000000u);
 196:Generated_Source\PSoC4/cyfitter_cfg.c **** 	/* Disable Crystal Stable Interrupt before enabling ECO */
 197:Generated_Source\PSoC4/cyfitter_cfg.c **** 	CY_SET_REG32((void*)CYREG_BLE_BLESS_LL_DSM_CTRL, CY_GET_REG32((void*)CYREG_BLE_BLESS_LL_DSM_CTRL) 
 198:Generated_Source\PSoC4/cyfitter_cfg.c **** 	/* Start the ECO and do not check status since it is not needed for HFCLK */
 199:Generated_Source\PSoC4/cyfitter_cfg.c **** 	(void)CySysClkEcoStart(2000u);
 200:Generated_Source\PSoC4/cyfitter_cfg.c **** 	CyDelayUs(1500u); /* Wait to stabilize */
 201:Generated_Source\PSoC4/cyfitter_cfg.c **** 
 202:Generated_Source\PSoC4/cyfitter_cfg.c **** 	/* Setup phase aligned clocks */
 203:Generated_Source\PSoC4/cyfitter_cfg.c **** 	CY_SET_REG32((void *)CYREG_PERI_DIV_16_CTL0, 0x00002200u);
 204:Generated_Source\PSoC4/cyfitter_cfg.c **** 	CY_SET_REG32((void *)CYREG_PERI_DIV_CMD, 0x8000FF40u);
 205:Generated_Source\PSoC4/cyfitter_cfg.c **** 
 206:Generated_Source\PSoC4/cyfitter_cfg.c **** 	/* CYDEV_CLK_IMO_CONFIG Starting address: CYDEV_CLK_IMO_CONFIG */
 207:Generated_Source\PSoC4/cyfitter_cfg.c **** 	CY_SET_REG32((void *)(CYREG_CLK_IMO_CONFIG), 0x80000000u);
 208:Generated_Source\PSoC4/cyfitter_cfg.c **** 
 209:Generated_Source\PSoC4/cyfitter_cfg.c **** 	/* CYDEV_CLK_SELECT Starting address: CYDEV_CLK_SELECT */
 210:Generated_Source\PSoC4/cyfitter_cfg.c **** 	CY_SET_REG32((void *)(CYREG_CLK_SELECT), 0x00040000u);
 211:Generated_Source\PSoC4/cyfitter_cfg.c **** 
 212:Generated_Source\PSoC4/cyfitter_cfg.c **** 	/* CYDEV_PERI_PCLK_CTL1 Starting address: CYDEV_PERI_PCLK_CTL1 */
 213:Generated_Source\PSoC4/cyfitter_cfg.c **** 	CY_SET_REG32((void *)(CYREG_PERI_PCLK_CTL1), 0x00000040u);
 214:Generated_Source\PSoC4/cyfitter_cfg.c **** 
 215:Generated_Source\PSoC4/cyfitter_cfg.c **** 	CY_SET_REG32((void *)(CYREG_WDT_CONFIG), 0x40000000u);
 216:Generated_Source\PSoC4/cyfitter_cfg.c **** }
 217:Generated_Source\PSoC4/cyfitter_cfg.c **** 
 218:Generated_Source\PSoC4/cyfitter_cfg.c **** 
 219:Generated_Source\PSoC4/cyfitter_cfg.c **** /* Analog API Functions */
 220:Generated_Source\PSoC4/cyfitter_cfg.c **** 
 221:Generated_Source\PSoC4/cyfitter_cfg.c **** 
 222:Generated_Source\PSoC4/cyfitter_cfg.c **** /*******************************************************************************
 223:Generated_Source\PSoC4/cyfitter_cfg.c **** * Function Name: AnalogSetDefault
 224:Generated_Source\PSoC4/cyfitter_cfg.c **** ********************************************************************************
 225:Generated_Source\PSoC4/cyfitter_cfg.c **** *
 226:Generated_Source\PSoC4/cyfitter_cfg.c **** * Summary:
 227:Generated_Source\PSoC4/cyfitter_cfg.c **** *  Sets up the analog portions of the chip to default values based on chip
ARM GAS  C:\Users\Daniela\AppData\Local\Temp\ccdat0tl.s 			page 35


 228:Generated_Source\PSoC4/cyfitter_cfg.c **** *  configuration options from the project.
 229:Generated_Source\PSoC4/cyfitter_cfg.c **** *
 230:Generated_Source\PSoC4/cyfitter_cfg.c **** * Parameters:
 231:Generated_Source\PSoC4/cyfitter_cfg.c **** *  void
 232:Generated_Source\PSoC4/cyfitter_cfg.c **** *
 233:Generated_Source\PSoC4/cyfitter_cfg.c **** * Return:
 234:Generated_Source\PSoC4/cyfitter_cfg.c **** *  void
 235:Generated_Source\PSoC4/cyfitter_cfg.c **** *
 236:Generated_Source\PSoC4/cyfitter_cfg.c **** *******************************************************************************/
 237:Generated_Source\PSoC4/cyfitter_cfg.c **** static void AnalogSetDefault(void);
 238:Generated_Source\PSoC4/cyfitter_cfg.c **** static void AnalogSetDefault(void)
 239:Generated_Source\PSoC4/cyfitter_cfg.c **** {
 240:Generated_Source\PSoC4/cyfitter_cfg.c **** 	CY_SET_XTND_REG32((void CYFAR *)CYREG_CTBM0_DFT_CTRL, 0x00000003u);
 241:Generated_Source\PSoC4/cyfitter_cfg.c **** 	CY_SET_XTND_REG32((void CYFAR *)CYREG_CTBM1_DFT_CTRL, 0x00000003u);
 242:Generated_Source\PSoC4/cyfitter_cfg.c **** 	CY_SET_XTND_REG32((void CYFAR *)CYREG_PASS_DSAB_DSAB_CTRL, 0x00000000u);
 243:Generated_Source\PSoC4/cyfitter_cfg.c **** }
 244:Generated_Source\PSoC4/cyfitter_cfg.c **** 
 245:Generated_Source\PSoC4/cyfitter_cfg.c **** 
 246:Generated_Source\PSoC4/cyfitter_cfg.c **** 
 247:Generated_Source\PSoC4/cyfitter_cfg.c **** 
 248:Generated_Source\PSoC4/cyfitter_cfg.c **** /*******************************************************************************
 249:Generated_Source\PSoC4/cyfitter_cfg.c **** * Function Name: cyfitter_cfg
 250:Generated_Source\PSoC4/cyfitter_cfg.c **** ********************************************************************************
 251:Generated_Source\PSoC4/cyfitter_cfg.c **** * Summary:
 252:Generated_Source\PSoC4/cyfitter_cfg.c **** *  This function is called by the start-up code for the selected device. It
 253:Generated_Source\PSoC4/cyfitter_cfg.c **** *  performs all of the necessary device configuration based on the design
 254:Generated_Source\PSoC4/cyfitter_cfg.c **** *  settings.  This includes settings from the Design Wide Resources (DWR) such
 255:Generated_Source\PSoC4/cyfitter_cfg.c **** *  as Clocks and Pins as well as any component configuration that is necessary.
 256:Generated_Source\PSoC4/cyfitter_cfg.c **** *
 257:Generated_Source\PSoC4/cyfitter_cfg.c **** * Parameters:
 258:Generated_Source\PSoC4/cyfitter_cfg.c **** *   void
 259:Generated_Source\PSoC4/cyfitter_cfg.c **** *
 260:Generated_Source\PSoC4/cyfitter_cfg.c **** * Return:
 261:Generated_Source\PSoC4/cyfitter_cfg.c **** *   void
 262:Generated_Source\PSoC4/cyfitter_cfg.c **** *
 263:Generated_Source\PSoC4/cyfitter_cfg.c **** *******************************************************************************/
 264:Generated_Source\PSoC4/cyfitter_cfg.c **** CY_CFG_SECTION
 265:Generated_Source\PSoC4/cyfitter_cfg.c **** void cyfitter_cfg(void)
 266:Generated_Source\PSoC4/cyfitter_cfg.c **** {
 435              		.loc 1 266 0
 436              		.cfi_startproc
 437              		@ args = 0, pretend = 0, frame = 0
 438              		@ frame_needed = 0, uses_anonymous_args = 0
 439 0000 F8B5     		push	{r3, r4, r5, r6, r7, lr}
 440              		.cfi_def_cfa_offset 24
 441              		.cfi_offset 3, -24
 442              		.cfi_offset 4, -20
 443              		.cfi_offset 5, -16
 444              		.cfi_offset 6, -12
 445              		.cfi_offset 7, -8
 446              		.cfi_offset 14, -4
 267:Generated_Source\PSoC4/cyfitter_cfg.c **** 	/* Disable interrupts by default. Let user enable if/when they want. */
 268:Generated_Source\PSoC4/cyfitter_cfg.c **** 	CyGlobalIntDisable;
 447              		.loc 1 268 0
 448              		.syntax divided
 449              	@ 268 "Generated_Source\PSoC4\cyfitter_cfg.c" 1
 450 0002 72B6     		CPSID   i
ARM GAS  C:\Users\Daniela\AppData\Local\Temp\ccdat0tl.s 			page 36


 451              	@ 0 "" 2
 452              		.thumb
 453              		.syntax unified
 454              	.LBB16:
 455              	.LBB17:
 456              	.LBB18:
 457              	.LBB19:
  76:Generated_Source\PSoC4/cyfitter_cfg.c **** }
 458              		.loc 1 76 0
 459 0004 8026     		movs	r6, #128
 460              	.LBE19:
 461              	.LBE18:
 462              	.LBE17:
 463              	.LBE16:
 269:Generated_Source\PSoC4/cyfitter_cfg.c **** 
 270:Generated_Source\PSoC4/cyfitter_cfg.c **** 	CY_SET_REG32((void *)(CYREG_BLE_BLESS_LL_DSM_CTRL), 0x00000000u);
 464              		.loc 1 270 0
 465 0006 0024     		movs	r4, #0
 466 0008 374D     		ldr	r5, .L2
 467              	.LBB26:
 468              	.LBB24:
 469              	.LBB22:
 470              	.LBB20:
  76:Generated_Source\PSoC4/cyfitter_cfg.c **** }
 471              		.loc 1 76 0
 472 000a F600     		lsls	r6, r6, #3
 473              	.LBE20:
 474              	.LBE22:
 475              	.LBE24:
 476              	.LBE26:
 477              		.loc 1 270 0
 478 000c 2C60     		str	r4, [r5]
 479              	.LVL0:
 480              	.LBB27:
 481              	.LBB25:
 482              	.LBB23:
 483              	.LBB21:
  76:Generated_Source\PSoC4/cyfitter_cfg.c **** }
 484              		.loc 1 76 0
 485 000e 3200     		movs	r2, r6
 486 0010 0021     		movs	r1, #0
 487 0012 3648     		ldr	r0, .L2+4
 488 0014 FFF7FEFF 		bl	memset
 489              	.LVL1:
 490 0018 3200     		movs	r2, r6
 491 001a 0021     		movs	r1, #0
 492 001c 3448     		ldr	r0, .L2+8
 493 001e FFF7FEFF 		bl	memset
 494              	.LVL2:
 495              	.LBE21:
 496              	.LBE23:
 497              	.LBE25:
 271:Generated_Source\PSoC4/cyfitter_cfg.c **** 
 272:Generated_Source\PSoC4/cyfitter_cfg.c **** 	{
 273:Generated_Source\PSoC4/cyfitter_cfg.c **** 
 274:Generated_Source\PSoC4/cyfitter_cfg.c **** 		CYPACKED typedef struct {
 275:Generated_Source\PSoC4/cyfitter_cfg.c **** 			void CYFAR *address;
ARM GAS  C:\Users\Daniela\AppData\Local\Temp\ccdat0tl.s 			page 37


 276:Generated_Source\PSoC4/cyfitter_cfg.c **** 			uint16 size;
 277:Generated_Source\PSoC4/cyfitter_cfg.c **** 		} CYPACKED_ATTR cfg_memset_t;
 278:Generated_Source\PSoC4/cyfitter_cfg.c **** 
 279:Generated_Source\PSoC4/cyfitter_cfg.c **** 		static const cfg_memset_t CYCODE cfg_memset_list[] = {
 280:Generated_Source\PSoC4/cyfitter_cfg.c **** 			/* address, size */
 281:Generated_Source\PSoC4/cyfitter_cfg.c **** 			{(void CYFAR *)(CYDEV_UDB_P0_U0_BASE), 1024u},
 282:Generated_Source\PSoC4/cyfitter_cfg.c **** 			{(void CYFAR *)(CYDEV_UDB_DSI0_BASE), 1024u},
 283:Generated_Source\PSoC4/cyfitter_cfg.c **** 		};
 284:Generated_Source\PSoC4/cyfitter_cfg.c **** 
 285:Generated_Source\PSoC4/cyfitter_cfg.c **** 		uint8 CYDATA i;
 286:Generated_Source\PSoC4/cyfitter_cfg.c **** 
 287:Generated_Source\PSoC4/cyfitter_cfg.c **** 		/* Zero out critical memory blocks before beginning configuration */
 288:Generated_Source\PSoC4/cyfitter_cfg.c **** 		for (i = 0u; i < (sizeof(cfg_memset_list)/sizeof(cfg_memset_list[0])); i++)
 289:Generated_Source\PSoC4/cyfitter_cfg.c **** 		{
 290:Generated_Source\PSoC4/cyfitter_cfg.c **** 			const cfg_memset_t CYCODE * CYDATA ms = &cfg_memset_list[i];
 291:Generated_Source\PSoC4/cyfitter_cfg.c **** 			CYMEMZERO(ms->address, (size_t)(uint32)(ms->size));
 292:Generated_Source\PSoC4/cyfitter_cfg.c **** 		}
 293:Generated_Source\PSoC4/cyfitter_cfg.c **** 
 294:Generated_Source\PSoC4/cyfitter_cfg.c **** 		/* HSIOM Starting address: CYDEV_HSIOM_BASE */
 295:Generated_Source\PSoC4/cyfitter_cfg.c **** 		CY_SET_REG32((void *)(CYDEV_HSIOM_BASE), 0xEE000000u);
 498              		.loc 1 295 0
 499 0022 EE22     		movs	r2, #238
 500 0024 334B     		ldr	r3, .L2+12
 501 0026 1206     		lsls	r2, r2, #24
 502 0028 1A60     		str	r2, [r3]
 296:Generated_Source\PSoC4/cyfitter_cfg.c **** 		CY_SET_REG32((void *)(CYREG_HSIOM_PORT_SEL1), 0x00990000u);
 503              		.loc 1 296 0
 504 002a 9923     		movs	r3, #153
 505 002c 324A     		ldr	r2, .L2+16
 506 002e 1B04     		lsls	r3, r3, #16
 507 0030 1360     		str	r3, [r2]
 297:Generated_Source\PSoC4/cyfitter_cfg.c **** 
 298:Generated_Source\PSoC4/cyfitter_cfg.c **** 		/* UDB_PA_0 Starting address: CYDEV_UDB_PA0_BASE */
 299:Generated_Source\PSoC4/cyfitter_cfg.c **** 		CY_SET_REG32((void *)(CYDEV_UDB_PA0_BASE), 0x00990000u);
 508              		.loc 1 299 0
 509 0032 324A     		ldr	r2, .L2+20
 510              	.LBE27:
 511              	.LBB28:
 512              	.LBB29:
 188:Generated_Source\PSoC4/cyfitter_cfg.c **** 
 513              		.loc 1 188 0
 514 0034 8027     		movs	r7, #128
 515              	.LBE29:
 516              	.LBE28:
 517              	.LBB34:
 518              		.loc 1 299 0
 519 0036 1360     		str	r3, [r2]
 300:Generated_Source\PSoC4/cyfitter_cfg.c **** 
 301:Generated_Source\PSoC4/cyfitter_cfg.c **** 		/* UDB_PA_1 Starting address: CYDEV_UDB_PA1_BASE */
 302:Generated_Source\PSoC4/cyfitter_cfg.c **** 		CY_SET_REG32((void *)(CYDEV_UDB_PA1_BASE), 0x00990000u);
 520              		.loc 1 302 0
 521 0038 314A     		ldr	r2, .L2+24
 522              	.LBE34:
 523              	.LBB35:
 524              	.LBB30:
 188:Generated_Source\PSoC4/cyfitter_cfg.c **** 
 525              		.loc 1 188 0
ARM GAS  C:\Users\Daniela\AppData\Local\Temp\ccdat0tl.s 			page 38


 526 003a 324E     		ldr	r6, .L2+28
 527              	.LBE30:
 528              	.LBE35:
 529              	.LBB36:
 530              		.loc 1 302 0
 531 003c 1360     		str	r3, [r2]
 303:Generated_Source\PSoC4/cyfitter_cfg.c **** 
 304:Generated_Source\PSoC4/cyfitter_cfg.c **** 		/* Enable digital routing */
 305:Generated_Source\PSoC4/cyfitter_cfg.c **** 		CY_SET_XTND_REG8((void *)CYREG_UDB_UDBIF_BANK_CTL, (uint8)(CY_GET_XTND_REG8((void *)CYREG_UDB_UDB
 532              		.loc 1 305 0
 533 003e 0623     		movs	r3, #6
 534 0040 314A     		ldr	r2, .L2+32
 535              	.LBE36:
 536              	.LBB37:
 537              	.LBB31:
 188:Generated_Source\PSoC4/cyfitter_cfg.c **** 
 538              		.loc 1 188 0
 539 0042 FF05     		lsls	r7, r7, #23
 540              	.LBE31:
 541              	.LBE37:
 542              	.LBB38:
 543              		.loc 1 305 0
 544 0044 1178     		ldrb	r1, [r2]
 545              	.LBE38:
 306:Generated_Source\PSoC4/cyfitter_cfg.c **** 	}
 307:Generated_Source\PSoC4/cyfitter_cfg.c **** 
 308:Generated_Source\PSoC4/cyfitter_cfg.c **** 	/* Perform second pass device configuration. These items must be configured in specific order afte
 309:Generated_Source\PSoC4/cyfitter_cfg.c **** 	/* IOPINS0_0 Starting address: CYDEV_GPIO_PRT0_BASE */
 310:Generated_Source\PSoC4/cyfitter_cfg.c **** 	CY_SET_REG32((void *)(CYREG_GPIO_PRT0_PC), 0x00D80000u);
 311:Generated_Source\PSoC4/cyfitter_cfg.c **** 
 312:Generated_Source\PSoC4/cyfitter_cfg.c **** 	/* IOPINS0_1 Starting address: CYDEV_GPIO_PRT1_BASE */
 313:Generated_Source\PSoC4/cyfitter_cfg.c **** 	CY_SET_REG32((void *)(CYDEV_GPIO_PRT1_BASE), 0x00000020u);
 314:Generated_Source\PSoC4/cyfitter_cfg.c **** 	CY_SET_REG32((void *)(CYREG_GPIO_PRT1_PC), 0x00031000u);
 315:Generated_Source\PSoC4/cyfitter_cfg.c **** 	CY_SET_REG32((void *)(CYREG_GPIO_PRT1_PC2), 0x00000020u);
 316:Generated_Source\PSoC4/cyfitter_cfg.c **** 
 317:Generated_Source\PSoC4/cyfitter_cfg.c **** 
 318:Generated_Source\PSoC4/cyfitter_cfg.c **** 	/* Setup clocks based on selections from Clock DWR */
 319:Generated_Source\PSoC4/cyfitter_cfg.c **** 	ClockSetup();
 320:Generated_Source\PSoC4/cyfitter_cfg.c **** 
 321:Generated_Source\PSoC4/cyfitter_cfg.c **** 	/* Perform basic analog initialization to defaults */
 322:Generated_Source\PSoC4/cyfitter_cfg.c **** 	AnalogSetDefault();
 323:Generated_Source\PSoC4/cyfitter_cfg.c **** 
 324:Generated_Source\PSoC4/cyfitter_cfg.c **** }
 546              		.loc 1 324 0
 547              		@ sp needed
 548              	.LBB39:
 305:Generated_Source\PSoC4/cyfitter_cfg.c **** 	}
 549              		.loc 1 305 0
 550 0046 0B43     		orrs	r3, r1
 551 0048 1370     		strb	r3, [r2]
 552              	.LBE39:
 310:Generated_Source\PSoC4/cyfitter_cfg.c **** 
 553              		.loc 1 310 0
 554 004a D822     		movs	r2, #216
 555 004c 2F4B     		ldr	r3, .L2+36
 556 004e 1204     		lsls	r2, r2, #16
 557 0050 1A60     		str	r2, [r3]
ARM GAS  C:\Users\Daniela\AppData\Local\Temp\ccdat0tl.s 			page 39


 313:Generated_Source\PSoC4/cyfitter_cfg.c **** 	CY_SET_REG32((void *)(CYREG_GPIO_PRT1_PC), 0x00031000u);
 558              		.loc 1 313 0
 559 0052 2023     		movs	r3, #32
 314:Generated_Source\PSoC4/cyfitter_cfg.c **** 	CY_SET_REG32((void *)(CYREG_GPIO_PRT1_PC2), 0x00000020u);
 560              		.loc 1 314 0
 561 0054 C421     		movs	r1, #196
 313:Generated_Source\PSoC4/cyfitter_cfg.c **** 	CY_SET_REG32((void *)(CYREG_GPIO_PRT1_PC), 0x00031000u);
 562              		.loc 1 313 0
 563 0056 2E4A     		ldr	r2, .L2+40
 314:Generated_Source\PSoC4/cyfitter_cfg.c **** 	CY_SET_REG32((void *)(CYREG_GPIO_PRT1_PC2), 0x00000020u);
 564              		.loc 1 314 0
 565 0058 8902     		lsls	r1, r1, #10
 313:Generated_Source\PSoC4/cyfitter_cfg.c **** 	CY_SET_REG32((void *)(CYREG_GPIO_PRT1_PC), 0x00031000u);
 566              		.loc 1 313 0
 567 005a 1360     		str	r3, [r2]
 314:Generated_Source\PSoC4/cyfitter_cfg.c **** 	CY_SET_REG32((void *)(CYREG_GPIO_PRT1_PC2), 0x00000020u);
 568              		.loc 1 314 0
 569 005c 2D4A     		ldr	r2, .L2+44
 570 005e 1160     		str	r1, [r2]
 315:Generated_Source\PSoC4/cyfitter_cfg.c **** 
 571              		.loc 1 315 0
 572 0060 2D4A     		ldr	r2, .L2+48
 573 0062 1360     		str	r3, [r2]
 574              	.LBB40:
 575              	.LBB32:
 175:Generated_Source\PSoC4/cyfitter_cfg.c **** 
 576              		.loc 1 175 0
 577 0064 1222     		movs	r2, #18
 578 0066 2D4B     		ldr	r3, .L2+52
 579 0068 1A60     		str	r2, [r3]
 178:Generated_Source\PSoC4/cyfitter_cfg.c **** 	CyDelayCycles(12000000u); /* WCO may take up to 500ms to start */
 580              		.loc 1 178 0
 581 006a FFF7FEFF 		bl	CySysClkWcoStart
 582              	.LVL3:
 179:Generated_Source\PSoC4/cyfitter_cfg.c **** 	(void)CySysClkWcoSetPowerMode(CY_SYS_CLK_WCO_LPM);    /* Switch to the low power mode */
 583              		.loc 1 179 0
 584 006e 2C48     		ldr	r0, .L2+56
 585 0070 FFF7FEFF 		bl	CyDelayCycles
 586              	.LVL4:
 180:Generated_Source\PSoC4/cyfitter_cfg.c **** 
 587              		.loc 1 180 0
 588 0074 0120     		movs	r0, #1
 589 0076 FFF7FEFF 		bl	CySysClkWcoSetPowerMode
 590              	.LVL5:
 183:Generated_Source\PSoC4/cyfitter_cfg.c **** 	/* CYDEV_CLK_ILO_CONFIG Starting address: CYDEV_CLK_ILO_CONFIG */
 591              		.loc 1 183 0
 592 007a 3020     		movs	r0, #48
 593 007c FFF7FEFF 		bl	CySysClkWriteImoFreq
 594              	.LVL6:
 185:Generated_Source\PSoC4/cyfitter_cfg.c **** 
 595              		.loc 1 185 0
 596 0080 284A     		ldr	r2, .L2+60
 597 0082 294B     		ldr	r3, .L2+64
 199:Generated_Source\PSoC4/cyfitter_cfg.c **** 	CyDelayUs(1500u); /* Wait to stabilize */
 598              		.loc 1 199 0
 599 0084 FA20     		movs	r0, #250
 185:Generated_Source\PSoC4/cyfitter_cfg.c **** 
ARM GAS  C:\Users\Daniela\AppData\Local\Temp\ccdat0tl.s 			page 40


 600              		.loc 1 185 0
 601 0086 1A60     		str	r2, [r3]
 192:Generated_Source\PSoC4/cyfitter_cfg.c **** 	CY_SET_REG32((void *)(CYREG_BLE_BLERD_BB_XO_CAPTRIM), 0x00003E2Du);
 602              		.loc 1 192 0
 603 0088 0223     		movs	r3, #2
 604 008a 284A     		ldr	r2, .L2+68
 188:Generated_Source\PSoC4/cyfitter_cfg.c **** 
 605              		.loc 1 188 0
 606 008c 3760     		str	r7, [r6]
 192:Generated_Source\PSoC4/cyfitter_cfg.c **** 	CY_SET_REG32((void *)(CYREG_BLE_BLERD_BB_XO_CAPTRIM), 0x00003E2Du);
 607              		.loc 1 192 0
 608 008e 1168     		ldr	r1, [r2]
 199:Generated_Source\PSoC4/cyfitter_cfg.c **** 	CyDelayUs(1500u); /* Wait to stabilize */
 609              		.loc 1 199 0
 610 0090 C000     		lsls	r0, r0, #3
 192:Generated_Source\PSoC4/cyfitter_cfg.c **** 	CY_SET_REG32((void *)(CYREG_BLE_BLERD_BB_XO_CAPTRIM), 0x00003E2Du);
 611              		.loc 1 192 0
 612 0092 0B43     		orrs	r3, r1
 613 0094 1360     		str	r3, [r2]
 193:Generated_Source\PSoC4/cyfitter_cfg.c **** 	/*Set XTAL(ECO) divider*/
 614              		.loc 1 193 0
 615 0096 264A     		ldr	r2, .L2+72
 616 0098 264B     		ldr	r3, .L2+76
 617 009a 1A60     		str	r2, [r3]
 197:Generated_Source\PSoC4/cyfitter_cfg.c **** 	/* Start the ECO and do not check status since it is not needed for HFCLK */
 618              		.loc 1 197 0
 619 009c 0822     		movs	r2, #8
 195:Generated_Source\PSoC4/cyfitter_cfg.c **** 	/* Disable Crystal Stable Interrupt before enabling ECO */
 620              		.loc 1 195 0
 621 009e 264B     		ldr	r3, .L2+80
 622 00a0 1C60     		str	r4, [r3]
 197:Generated_Source\PSoC4/cyfitter_cfg.c **** 	/* Start the ECO and do not check status since it is not needed for HFCLK */
 623              		.loc 1 197 0
 624 00a2 2B68     		ldr	r3, [r5]
 625 00a4 9343     		bics	r3, r2
 626 00a6 2B60     		str	r3, [r5]
 199:Generated_Source\PSoC4/cyfitter_cfg.c **** 	CyDelayUs(1500u); /* Wait to stabilize */
 627              		.loc 1 199 0
 628 00a8 FFF7FEFF 		bl	CySysClkEcoStart
 629              	.LVL7:
 200:Generated_Source\PSoC4/cyfitter_cfg.c **** 
 630              		.loc 1 200 0
 631 00ac 2348     		ldr	r0, .L2+84
 632 00ae FFF7FEFF 		bl	CyDelayUs
 633              	.LVL8:
 203:Generated_Source\PSoC4/cyfitter_cfg.c **** 	CY_SET_REG32((void *)CYREG_PERI_DIV_CMD, 0x8000FF40u);
 634              		.loc 1 203 0
 635 00b2 8822     		movs	r2, #136
 636 00b4 224B     		ldr	r3, .L2+88
 637 00b6 9201     		lsls	r2, r2, #6
 638 00b8 1A60     		str	r2, [r3]
 204:Generated_Source\PSoC4/cyfitter_cfg.c **** 
 639              		.loc 1 204 0
 640 00ba 224A     		ldr	r2, .L2+92
 641 00bc 224B     		ldr	r3, .L2+96
 642 00be 1A60     		str	r2, [r3]
 207:Generated_Source\PSoC4/cyfitter_cfg.c **** 
ARM GAS  C:\Users\Daniela\AppData\Local\Temp\ccdat0tl.s 			page 41


 643              		.loc 1 207 0
 644 00c0 8022     		movs	r2, #128
 645 00c2 224B     		ldr	r3, .L2+100
 646 00c4 1206     		lsls	r2, r2, #24
 647 00c6 1A60     		str	r2, [r3]
 210:Generated_Source\PSoC4/cyfitter_cfg.c **** 
 648              		.loc 1 210 0
 649 00c8 8022     		movs	r2, #128
 650 00ca 214B     		ldr	r3, .L2+104
 651 00cc D202     		lsls	r2, r2, #11
 652 00ce 1A60     		str	r2, [r3]
 213:Generated_Source\PSoC4/cyfitter_cfg.c **** 
 653              		.loc 1 213 0
 654 00d0 4022     		movs	r2, #64
 655 00d2 204B     		ldr	r3, .L2+108
 656 00d4 1A60     		str	r2, [r3]
 657              	.LBE32:
 658              	.LBE40:
 659              	.LBB41:
 660              	.LBB42:
 240:Generated_Source\PSoC4/cyfitter_cfg.c **** 	CY_SET_XTND_REG32((void CYFAR *)CYREG_CTBM1_DFT_CTRL, 0x00000003u);
 661              		.loc 1 240 0
 662 00d6 0323     		movs	r3, #3
 663 00d8 1F4A     		ldr	r2, .L2+112
 664              	.LBE42:
 665              	.LBE41:
 666              	.LBB44:
 667              	.LBB33:
 215:Generated_Source\PSoC4/cyfitter_cfg.c **** }
 668              		.loc 1 215 0
 669 00da 3760     		str	r7, [r6]
 670              	.LBE33:
 671              	.LBE44:
 672              	.LBB45:
 673              	.LBB43:
 240:Generated_Source\PSoC4/cyfitter_cfg.c **** 	CY_SET_XTND_REG32((void CYFAR *)CYREG_CTBM1_DFT_CTRL, 0x00000003u);
 674              		.loc 1 240 0
 675 00dc 1360     		str	r3, [r2]
 241:Generated_Source\PSoC4/cyfitter_cfg.c **** 	CY_SET_XTND_REG32((void CYFAR *)CYREG_PASS_DSAB_DSAB_CTRL, 0x00000000u);
 676              		.loc 1 241 0
 677 00de 1F4A     		ldr	r2, .L2+116
 678 00e0 1360     		str	r3, [r2]
 242:Generated_Source\PSoC4/cyfitter_cfg.c **** }
 679              		.loc 1 242 0
 680 00e2 1F4B     		ldr	r3, .L2+120
 681 00e4 1C60     		str	r4, [r3]
 682              	.LBE43:
 683              	.LBE45:
 684              		.loc 1 324 0
 685 00e6 F8BD     		pop	{r3, r4, r5, r6, r7, pc}
 686              	.L3:
 687              		.align	2
 688              	.L2:
 689 00e8 6CF02E40 		.word	1076818028
 690 00ec 00300F40 		.word	1074737152
 691 00f0 00400F40 		.word	1074741248
 692 00f4 00000240 		.word	1073872896
ARM GAS  C:\Users\Daniela\AppData\Local\Temp\ccdat0tl.s 			page 42


 693 00f8 00010240 		.word	1073873152
 694 00fc 00500F40 		.word	1074745344
 695 0100 10500F40 		.word	1074745360
 696 0104 0C020B40 		.word	1074463244
 697 0108 00700F40 		.word	1074753536
 698 010c 08000440 		.word	1074003976
 699 0110 00010440 		.word	1074004224
 700 0114 08010440 		.word	1074004232
 701 0118 18010440 		.word	1074004248
 702 011c 30001040 		.word	1074790448
 703 0120 001BB700 		.word	12000000
 704 0124 06000080 		.word	-2147483642
 705 0128 04010B40 		.word	1074462980
 706 012c 78002E40 		.word	1076756600
 707 0130 2D3E0000 		.word	15917
 708 0134 7C002E40 		.word	1076756604
 709 0138 64F02E40 		.word	1076818020
 710 013c DC050000 		.word	1500
 711 0140 00030140 		.word	1073808128
 712 0144 40FF0080 		.word	-2147418304
 713 0148 00000140 		.word	1073807360
 714 014c 08010B40 		.word	1074462984
 715 0150 00010B40 		.word	1074462976
 716 0154 04010140 		.word	1073807620
 717 0158 30003040 		.word	1076887600
 718 015c 30003140 		.word	1076953136
 719 0160 000E3F40 		.word	1077874176
 720              		.cfi_endproc
 721              	.LFE7:
 722              		.size	cyfitter_cfg, .-cyfitter_cfg
 723              		.text
 724              	.Letext0:
 725              		.file 2 "c:\\program files (x86)\\cypress\\psoc creator\\4.1\\psoc creator\\import\\gnu\\arm\\5.4.
 726              		.file 3 "Generated_Source\\PSoC4\\cytypes.h"
 727              		.file 4 "Generated_Source\\PSoC4\\CyLFClk.h"
 728              		.file 5 "Generated_Source\\PSoC4\\CyLib.h"