ARM GAS  C:\Users\Daniela\AppData\Local\Temp\ccWaZ5AR.s 			page 1


   1              		.syntax unified
   2              		.cpu cortex-m0
   3              		.fpu softvfp
   4              		.eabi_attribute 20, 1
   5              		.eabi_attribute 21, 1
   6              		.eabi_attribute 23, 3
   7              		.eabi_attribute 24, 1
   8              		.eabi_attribute 25, 1
   9              		.eabi_attribute 26, 1
  10              		.eabi_attribute 30, 2
  11              		.eabi_attribute 34, 0
  12              		.eabi_attribute 18, 4
  13              		.thumb
  14              		.syntax unified
  15              		.file	"UART_SPI_UART.c"
  16              		.text
  17              	.Ltext0:
  18              		.section	.gnu.lto_.profile.58eb9d7f,"",%progbits
  19 0000 789C6361 		.ascii	"x\234ca`d`a`\000\222f\272\000\001\003\000n"
  19      60646061 
  19      60009266 
  19      BA000103 
  19      006E
  20              		.text
  21              		.section	.gnu.lto_.icf.58eb9d7f,"",%progbits
  22 0000 789C6361 		.ascii	"x\234ca`d\000\001s\006\004\340dx\271i\372JN\306;\037"
  22      60640001 
  22      730604E0 
  22      6478B969 
  22      FA4A4EC6 
  23 0016 662DE167 		.ascii	"f-\341g:\177c\305)\026\346\335\377\256\335\341d\351"
  23      3A7F63C5 
  23      2916E6DD 
  23      FFAEDDE1 
  23      64E9
  24 0028 3E7BBB87 		.ascii	">{\273\207\223\365\352\317\276B\266c\347w]gd\237\324"
  24      93F5EACF 
  24      BE42B663 
  24      E7775D67 
  24      649FD4
  25 003b B6613233 		.ascii	"\266a23\307\306\011'O\2620\000\000\010\273\032\351"
  25      C7C60927 
  25      4FB23000 
  25      0008BB1A 
  25      E9
  26              		.text
  27              		.section	.gnu.lto_.jmpfuncs.58eb9d7f,"",%progbits
  28 0000 789C4589 		.ascii	"x\234E\211\261\021\000 \010\304\362\200\242s8(\253\213"
  28      B1110020 
  28      08C4F280 
  28      A2733828 
  28      AB8B
  29 0012 95B94B93 		.ascii	"\225\271K\223\004\342q\370\354\266\253\201K\2520\311"
  29      04E271F8 
  29      ECB6AB81 
  29      4BAA30C9 
  30 0022 AB064C48 		.ascii	"\253\006LHX\275/$<\001\335"
ARM GAS  C:\Users\Daniela\AppData\Local\Temp\ccWaZ5AR.s 			page 2


  30      58BD2F24 
  30      3C01DD
  31              		.text
  32              		.section	.gnu.lto_.inline.58eb9d7f,"",%progbits
  33 0000 789C6361 		.ascii	"x\234ca`d\000\201m\014\010\300\311\300\300\302\314\310"
  33      60640081 
  33      6D0C08C0 
  33      C9C0C0C2 
  33      CCC8
  34 0012 C0C47481 		.ascii	"\300\304t\201\237\201m\201<\023H\214\221\201\225\005"
  34      9F816D81 
  34      3C13488C 
  34      91819505 
  35 0022 28C4B240 		.ascii	"(\304\262@\036.\304\304\300\311\001\024\342y\020\013"
  35      1E2EC4C4 
  35      C0C90114 
  35      E279100B 
  36 0032 176266E0 		.ascii	"\027bf\340\320\007\012qu\034c\205\213\2610\360^dfdd"
  36      D0070A71 
  36      751C6385 
  36      8BB130F0 
  36      5E646664 
  37 0047 54005AC4 		.ascii	"T\000Z\304$\262`\257\005D\206\005(\305\212i(\033\246"
  37      24B260AF 
  37      05448605 
  37      28C58A69 
  37      281BA6
  38 005a A1EC98AA 		.ascii	"\241\354\230\25280\205\030\000-\306\023\024"
  38      38308518 
  38      002DC613 
  38      14
  39              		.text
  40              		.section	.gnu.lto_.pureconst.58eb9d7f,"",%progbits
  41 0000 789C6361 		.ascii	"x\234ca`d\020f``\340d\220b\224b\222b\226b\221b\225b"
  41      60641066 
  41      6060E064 
  41      90629462 
  41      92629662 
  42 0018 936297E2 		.ascii	"\223b\227\342\220\002\000\014*\0010"
  42      9002000C 
  42      2A0130
  43              		.text
  44              		.section	.gnu.lto_UART_SpiUartReadRxData.58eb9d7f,"",%progbits
  45 0000 789C5550 		.ascii	"x\234UP\277K\202Q\024}\367=\371\024!'\267\034\\$l\210"
  45      BF4B8251 
  45      147DF73D 
  45      F9142127 
  45      B71C5C24 
  46 0016 86FE8128 		.ascii	"\206\376\201(\2506\321\202\002\303\304\2765A\014\334"
  46      A836D182 
  46      02C3C4BE 
  46      35410CDC 
  47 0026 7CFEF8C4 		.ascii	"|\376\370\304l\321!)\177\340\320\240\225\245\375\005"
  47      6CD12129 
  47      7FE0D0A0 
  47      95A5FD05 
  48 0036 7D088D29 		.ascii	"}\010\215)\265EK\030\0258)\344\022\224\335k\005\365"
ARM GAS  C:\Users\Daniela\AppData\Local\Temp\ccWaZ5AR.s 			page 3


  48      B5454B18 
  48      153829E4 
  48      1294DD6B 
  48      05F5
  49 0048 E071EF7D 		.ascii	"\340q\357}\234s\3179\317\300\200\321\211`\231\305:\211"
  49      9C73CF39 
  49      CFC080D1 
  49      896099C5 
  49      3A89
  50 005a 1704039E 		.ascii	"\027\004\003\236m3\0263q\000j\244\011X\224C\024\206"
  50      6D331633 
  50      71006AA4 
  50      09589443 
  50      1486
  51 006c FC83C36D 		.ascii	"\374\203\303m\262Y\022o\\C\230\001\307\301M\341\311"
  51      B259126F 
  51      5C439801 
  51      C7C14DE1 
  51      C9
  52 007d 4223801D 		.ascii	"B#\200\035\307\242\274\3333:\253R\306\345\343so+\227"
  52      C7A2BCDB 
  52      333AAB52 
  52      C6E5E373 
  52      6F2B97
  53 0090 D09635C1 		.ascii	"\320\2265\301\331\2103\250\201\015\252`#\211\023p2\004"
  53      D98833A8 
  53      810DAA60 
  53      23891370 
  53      3204
  54 00a2 775A79DD 		.ascii	"wZy\335\"\246\201\372\334\353~\332\3408&\242\376\220"
  54      22A681FA 
  54      DCEB7EDA 
  54      E03826A2 
  54      FE90
  55 00b4 B21E493D 		.ascii	"\262\036I=iG&\234\202\370Of\204\356^~\036L(I\211\307"
  55      6947269C 
  55      82F84F66 
  55      84EE5E7E 
  55      1E4C2849 
  56 00ca 0E67E020 		.ascii	"\016g\340 \001\334[\007\005\223\000\2754\334\272\034"
  56      01DC5B07 
  56      059300BD 
  56      34DCBA1C 
  57 00da 8D1252BF 		.ascii	"\215\022R\277W\256Kf\2640\206\261>\342(\323\200s\252"
  57      57AE4B66 
  57      B43086B1 
  57      3EE228D3 
  57      8073AA
  58 00ed A20B7192 		.ascii	"\242\013q\222\0333\021\200\253\363Z\253c\244@\034\030"
  58      1B331180 
  58      ABF35AAB 
  58      63A4401C 
  58      18
  59 00fe 9CA3E40B 		.ascii	"\234\243\344\013\264\3363\355\332:a\022\202\377\205"
  59      B4DE33ED 
  59      DA3A6112 
  59      82FF85
ARM GAS  C:\Users\Daniela\AppData\Local\Temp\ccWaZ5AR.s 			page 4


  60 010d 88B1F5F4 		.ascii	"\210\261\365\364\260\3207}\217z*\033\243_)_\325\017"
  60      B0D0377D 
  60      8F7A2A1B 
  60      A35F295F 
  60      D50F
  61 011f CD1528C7 		.ascii	"\315\025(\307\2221)7\231&\014\320\300\004\027\224\000"
  61      92312937 
  61      99260CD0 
  61      C0041794 
  61      00
  62 0130 9A500186 		.ascii	"\232P\001\206\302r\343W\026\327\262\036:)f\254?*\224"
  62      C272E357 
  62      16D7B21E 
  62      3A2966AC 
  62      3F2A94
  63 0143 B38F0ED0 		.ascii	"\263\217\016\320#\366SK\352\216\032\362\207\325m\237"
  63      23F6534B 
  63      EA8E1AF2 
  63      87D56D9F 
  64 0153 27B81B0A 		.ascii	"'\270\033\012\250^\227'\2700\347]\233w\257\372<\256"
  64      A85E9727 
  64      B830E75D 
  64      9B77AFFA 
  64      3CAE
  65 0165 151F3533 		.ascii	"\025\03753\001\246\204\"\213\376\260\377\013V\333\220"
  65      01A68422 
  65      8BFEB0FF 
  65      0B56DB90 
  66 0175 A6       		.ascii	"\246"
  67              		.text
  68              		.section	.gnu.lto_UART_SpiUartGetRxBufferSize.58eb9d7f,"",%progbits
  69 0000 789C554F 		.ascii	"x\234UO9K\203A\020\335\267\373\231\210\022\253t\006"
  69      394B8341 
  69      10DDB7FB 
  69      998812AB 
  69      7406
  70 0012 4C23A285 		.ascii	"L#\242\205\225\177@,\324N\022\005\213@\020\375\012\033"
  70      957F402C 
  70      D44E1205 
  70      8B4010FD 
  70      0A1B
  71 0024 031E8536 		.ascii	"\003\036\2056n\216/x4\021Q\360\"\340\201w\242\245\335"
  71      6E8E2F78 
  71      341151F0 
  71      22E08177 
  71      A2A5DD
  72 0037 47401044 		.ascii	"G@\020DE\321VE%\210U\002\012*\3068cl\034Xffy\357\315"
  72      45D15645 
  72      25885502 
  72      0A2AC638 
  72      636C1C58 
  73 0050 7B8680E0 		.ascii	"{\206\200\340\032\245\326H\275\232\036\224\200L\234"
  73      1AA5D648 
  73      BD9A1E94 
  73      804C9C
  74 005f 0B112E97 		.ascii	"\013\021.\227\000\017\272\034b\\b\034o\262 q\031;XV"
  74      000FBA1C 
ARM GAS  C:\Users\Daniela\AppData\Local\Temp\ccWaZ5AR.s 			page 5


  74      625C621C 
  74      6FB22071 
  74      193B5856 
  75 0073 AFD22298 		.ascii	"\257\322\"\230Ak\376l\361\261\212W\300K\353\222\276"
  75      416BFE6C 
  75      F1B18A57 
  75      C04BEB92 
  75      BE
  76 0084 9A74D66F 		.ascii	"\232t\326oj\035\321\367\033\351\236\231\250\325f))\212"
  76      6A1DD1F7 
  76      1BE99E99 
  76      A8D56629 
  76      298A
  77 0096 52600B1E 		.ascii	"R`\013\036l\302\303'\266Q/\010\274\032\2769u\251\006"
  77      6CC2C327 
  77      B6512F08 
  77      BC1ABE39 
  77      75A906
  78 00a9 F03CFFFC 		.ascii	"\360<\377\374\376\355\254]c\242]\234r/h;\346%&v\240"
  78      FEEDAC5D 
  78      63A25D9C 
  78      722F683B 
  78      E6252676 
  79 00be FE9305A3 		.ascii	"\376\223\005\243\037\016\277\347\\\216\230\246\362b"
  79      1F0EBFE7 
  79      5C8E98A6 
  79      F262
  80 00cc 17B57C80 		.ascii	"\027\265|\200t\367\340\240$\340\237\264\317\326\305"
  80      74F7E0A0 
  80      24E09FB4 
  80      CFD6C5
  81 00db 6254DB85 		.ascii	"bT\333\205\212\343\\\245!\205\245\024Yf\254\310\021"
  81      8AE35CA5 
  81      2185A514 
  81      5966ACC8 
  81      11
  82 00ec 9883E5A5 		.ascii	"\230\203\345\245\344\256\262\310|N\335\246\272\231\037"
  82      E4AEB2C8 
  82      7C4EDDA6 
  82      BA991F
  83 00fb 551C72DE 		.ascii	"U\034r\336\312\\89\225\361k\356\351c\361P\225\326\211"
  83      CA5C3839 
  83      95F16BEE 
  83      E963F150 
  83      95D689
  84 010e 7822CCB9 		.ascii	"x\"\314\271\257\364\311\271#\211\225p\014\226*C\212"
  84      AFF4C9B9 
  84      23899570 
  84      0C962A43 
  84      8A
  85 011f FCEDB33F 		.ascii	"\374\355\263?\244\221\204\310\"\372\025\277\226%AU\322"
  85      A49184C8 
  85      22FA15BF 
  85      96254155 
  85      D2
  86 0130 9C5D4F1D 		.ascii	"\234]O\035\271XD\241\006\007\204}\300/\200=\021H\274"
  86      B95844A1 
ARM GAS  C:\Users\Daniela\AppData\Local\Temp\ccWaZ5AR.s 			page 6


  86      0607847D 
  86      C02F803D 
  86      1148BC
  87 0143 2062DF4D 		.ascii	" b\337M\273\3778\0344'\301\376\310m]\2539`\016\366\014"
  87      BBFF381C 
  87      3427C1FE 
  87      C86D5DAB 
  87      39600EF6 
  88 0158 9B7D417F 		.ascii	"\233}A\177hd\260\327\014t\370C-M\201\256f_g\320\337"
  88      6864B0D7 
  88      0C74F843 
  88      2D4D81AE 
  88      665F67D0 
  89 016d D11EE4A1 		.ascii	"\321\036\344\241\261W\030C\375c\346\017\305y\217L"
  89      B1571843 
  89      FD63E60F 
  89      C5798F4C 
  90              		.text
  91              		.section	.gnu.lto_UART_SpiUartClearRxBuffer.58eb9d7f,"",%progbits
  92 0000 789C8D91 		.ascii	"x\234\215\221?HBQ\024\306\317\271W\237\022\245k\220"
  92      3F484251 
  92      14C6CFB9 
  92      579F12A5 
  92      6B90
  93 0012 435BB834 		.ascii	"C[\27045\265EC\264\231\326&H\330[\023\244f\357\363\371"
  93      35B54543 
  93      B499D626 
  93      48D85B13 
  93      A466EFF3 
  94 0027 12A2C125 		.ascii	"\022\242\301%\227(G\255,\215&\241A\204\332\312\271%"
  94      972847AD 
  94      2C8D26A1 
  94      4184DACA 
  94      B925
  95 0039 A2E1050D 		.ascii	"\242\341\005\015a\220\020V\276\316y\317Y\272p\317\271"
  95      61901056 
  95      BECE79CF 
  95      59BA70CF 
  95      B9
  96 004a 7FBEFBFB 		.ascii	"\177\276\373\373\016\347\372\000\201G\213R\224\362\014"
  96      0EE7FA00 
  96      81478B52 
  96      94F20C
  97 0059 4D9480A2 		.ascii	"M\224\200\242\364\000`\004\005\"/T\020!'0\207}\361+"
  97      F4006004 
  97      05222F54 
  97      10212730 
  97      877DF12B 
  98 006d B053B45B 		.ascii	"\260S\264[\"ZU4\236-{\315P\326\264%\001\034\341\222"
  98      225A5534 
  98      9E2D7BCD 
  98      50D6B425 
  98      011CE192 
  99 0081 00AB1805 		.ascii	"\000\253\030\005\222\275\\\015\017\247\264\002\313f"
  99      92BD5C0D 
  99      0FA7B402 
  99      CB66
ARM GAS  C:\Users\Daniela\AppData\Local\Temp\ccWaZ5AR.s 			page 7


 100 008f BD4BACA1 		.ascii	"\275K\254\241\306v\215x[9\216\251\332\327\241\333\223"
 100      C6768D78 
 100      5B398EA9 
 100      DAD7A1DB 
 100      93
 101 00a0 70508025 		.ascii	"pP\200%\311\223\202\237\203\306\001\240G/\330\373C\010"
 101      C993829F 
 101      83C601A0 
 101      472FD8FB 
 101      4308
 102 00b2 CED2C6CE 		.ascii	"\316\322\306\316`\337\276Yd\210)\271\216\262\325\351"
 102      60DFBE59 
 102      648829B9 
 102      8EB2D5E9 
 103 00c2 063E8525 		.ascii	"\006>\205%\005\262\337Sq\250&\275ma\257d\370\350\350"
 103      05B2DF53 
 103      71A826BD 
 103      6D61AF64 
 103      F8E8E8
 104 00d5 F1A85F0B 		.ascii	"\361\250_\013T\360\330(\240%%\236a\004O1B\205\234c\005"
 104      54F0D828 
 104      A025259E 
 104      61044F31 
 104      42859C63 
 105 00ea C146F34B 		.ascii	"\301F\363K\363p\322#\276\276\327\017\\\"\242R>\254\223"
 105      F370D223 
 105      BEBED70F 
 105      5C22A252 
 105      3EAC93
 106 00fd 966CCBC8 		.ascii	"\226l\313\310\242q\270\013\302\021\204\305\203\011\217"
 106      A271B80B 
 106      C21184C5 
 106      83098F
 107 010c E81FA7BF 		.ascii	"\350\037\247\277\034\331\377\214\354G\372\374}\363."
 107      1CD9FF8C 
 107      EC47FAFC 
 107      7DF32E
 108 011b E4D93BCE 		.ascii	"\344\331;\316\267\023\306\306\177\013h\272\005h\360"
 108      B713C6C6 
 108      7F0B68BA 
 108      0568F0
 109 012a 86F976A5 		.ascii	"\206\371v\245+X\356\376E\217ZC\315\243V\316\255\350"
 109      2B58EEFE 
 109      458F5A43 
 109      CDA356CE 
 109      ADE8
 110 013c DB7A7673 		.ascii	"\333zvsG\337J%2\273\331\264\236\214%2\313\013\311\215"
 110      47DF4A25 
 110      32BBD9B4 
 110      9E8C2532 
 110      CB0BC98D 
 111 0150 A5F87A2A 		.ascii	"\245\370z*\021[M\361b>\015\177\005\373\236\275"
 111      115B4DF1 
 111      623E0D7F 
 111      05FB9EBD 
 112              		.text
 113              		.section	.gnu.lto_UART_SpiUartWriteTxData.58eb9d7f,"",%progbits
ARM GAS  C:\Users\Daniela\AppData\Local\Temp\ccWaZ5AR.s 			page 8


 114 0000 789C3D51 		.ascii	"x\234=QMHTQ\024>\337\275\357=gD]\344\246\205\220\273"
 114      4D485451 
 114      143EDFBD 
 114      EF3D6744 
 114      5DE4A685 
 115 0016 C116D1A2 		.ascii	"\301\026\321\242]+)\012w2c;a\030\354m\023d\202v\335"
 115      5D2B290A 
 115      7732633B 
 115      6118EC6D 
 115      13648276 
 116 002b E77B2F23 		.ascii	"\347{/#Z\030\245\213\241\020B3\373\231\031\223@)\342"
 116      5A18A58B 
 116      A1104233 
 116      FB991993 
 116      4029E2
 117 003e 315091D0 		.ascii	"1P\221\320\224\264k\323\037\314\"0\234P\372\301\234"
 117      94B46BD3 
 117      1FCC2230 
 117      9C50FAC1 
 117      9C
 118 004f CEF10E1E 		.ascii	"\316\361\016\036\270\367\234s\371\316w\276\357=\207"
 118      B8F79C73 
 118      F9CE77BE 
 118      EF3D87
 119 005e 40129F38 		.ascii	"@\022\2378\035\347|\206\017<\202\232\256\023\005)\005"
 119      1DE77C86 
 119      0F3C829A 
 119      AE130529 
 119      05
 120 006f 6D0BADDC 		.ascii	"m\013\255\334\353\257\211L\247\023u\220\351r\355\373"
 120      EBAF894C 
 120      A7137590 
 120      E972EDFB 
 121 007f A0034836 		.ascii	"\240\003H6)\320e\245]\007|\223\215\035\365O\2416\325"
 121      29D065A5 
 121      5D077C93 
 121      8D1DF54F 
 121      A136D5
 122 0092 5853038B 		.ascii	"XS\003\213\206\343\363\302\335l`\342\3031\003Z\312b"
 122      86E3F3C2 
 122      DD6C60E2 
 122      C331035A 
 122      CA62
 123 00a4 B0880146 		.ascii	"\260\210\001FmD\325\333z[\305\032p\270m\276-}\353\221"
 123      6D44D5DB 
 123      7A5BC51A 
 123      70B86DBE 
 123      2D7DEB91 
 124 00b8 56A19FDB 		.ascii	"V\241\237\333d\263z\317\323GA\\\357<\255Oy\231\005c"
 124      64B37ACF 
 124      D347415C 
 124      EF3CAD4F 
 124      79990563 
 125 00cc 268D59F1 		.ascii	"&\215Y\361M:\326\032\017\240\231\017K\350\303}\364\021"
 125      4D3AD61A 
 125      0FA0990F 
 125      4BE8C37D 
ARM GAS  C:\Users\Daniela\AppData\Local\Temp\ccWaZ5AR.s 			page 9


 125      F411
 126 00de 3F111E22 		.ascii	"?\021\036\"#\360\257\313{3\335^$\353\373\355R<\202'"
 126      23F0AFCB 
 126      7B33DD5E 
 126      24EBFBED 
 126      523C8227 
 127 00f2 8E2BD9C4 		.ascii	"\216+\331\304\264Z\241If\016\275\374\335\353)\036s\264"
 127      B45AA149 
 127      660EBDFC 
 127      DDEB291E 
 127      73B4
 128 0104 5CEC4886 		.ascii	"\\\354H\206i\213\321luK)N\272\311\266\330\250n\240\366"
 128      698BD16C 
 128      754B294E 
 128      BAC9B6D8 
 128      A86EA0F6 
 129 0118 F7DA8FFA 		.ascii	"\367\332\217\372\013\010O\250\305\342l\\{\327!j\335"
 129      0B084FA8 
 129      C5E26C5C 
 129      7BD7216A 
 129      DD
 130 0129 7D85EFDF 		.ascii	"}\205\357\337\334\370\325i\333\253\321t ~~.\255n\244"
 130      DCF8D569 
 130      DBABD174 
 130      207E7E2E 
 130      AD6EA4
 131 013c E7702788 		.ascii	"\347p'\210\020k\017e\026\372\230\205\022*\230\0035\020"
 131      106B0F65 
 131      16FA9885 
 131      122A9803 
 131      3510
 132 014e EE7A964E 		.ascii	"\356z\226N[\306\233\363\345\265n\241pp\004UF~A\3641"
 132      5BC69BF3 
 132      E5B56EA1 
 132      70700455 
 132      467E41F4 
 133 0163 2CB7776A 		.ascii	",\267wjF\224\236m\257\273\026\221\302\262p\221(v\211"
 133      46949E6D 
 133      AFBB1691 
 133      C2B27091 
 133      287689
 134 0176 FF119ACA 		.ascii	"\377\021\232\312\021\311,\265\324\334\275\225\226)\036"
 134      11C92CB5 
 134      D4DCBD95 
 134      96291E
 135 0185 79756575 		.ascii	"yueu\257\307\352J\332\272*\233\353\317\273\366u\005"
 135      AFC7EA4A 
 135      DABA2A9B 
 135      EBCFBBF6 
 135      7505
 136 0197 C69C24D1 		.ascii	"\306\234$\321\366\344@\333\012k\013\265C\3371\231\374"
 136      F6E440DB 
 136      0A6B0BB5 
 136      43DF3199 
 136      FC
 137 01a8 F9A084A5 		.ascii	"\371\240\204\245\275\005\314\316\037's\326\277\340O"
 137      BD05CCCE 
ARM GAS  C:\Users\Daniela\AppData\Local\Temp\ccWaZ5AR.s 			page 10


 137      1F2773D6 
 137      BFE04F
 138 01b7 148AFEF9 		.ascii	"\024\212\376\371|n\374\342\304\230?:\234\033?ub\364"
 138      7C6EFCE2 
 138      C4983F3A 
 138      9C1B3F75 
 138      62F4
 139 01c9 DC607624 		.ascii	"\334`v$\237\033\036\312Kql\214\274\342\245\323\205b"
 139      9F1B1ECA 
 139      4B716C8C 
 139      BCE2A5D3 
 139      8562
 140 01db E13F1D46 		.ascii	"\341?\035F\267\215"
 140      B78D
 141              		.text
 142              		.section	.gnu.lto_UART_SpiUartPutArray.58eb9d7f,"",%progbits
 143 0000 789C6553 		.ascii	"x\234eSMhTW\024>\337\275\357o\306\231\321\205h\027\226"
 143      4D685457 
 143      143EDFBD 
 143      EF6FC699 
 143      D1856817 
 144 0015 6613825D 		.ascii	"f\023\202]\224.\212\270\022\324B\351N\222v'\204\220"
 144      942E8AB8 
 144      12D442E9 
 144      4E927627 
 144      8490
 145 0027 8ED08D81 		.ascii	"\216\320\215\201\220\240t\343\233\2377\011\352\"Z\015"
 145      90A074E3 
 145      9B9F3709 
 145      EA225A0D 
 146 0037 744871D1 		.ascii	"tHq\321ZkS'I[kR5\235FT\232\266i\263\031\320\340_\204"
 146      5A6B5327 
 146      495B6B52 
 146      359D4654 
 146      9AB669B3 
 147 0050 2CFCC389 		.ascii	",\374\303\211JbH3=\347\336Q\242\275\314\334w\357y\337"
 147      4A624833 
 147      3DE7DE51 
 147      A2BDCCDC 
 147      77EF79DF 
 148 0064 F7DDEF9C 		.ascii	"\367\335\357\234{\236C \031\033\035\242m\374\374\214"
 148      7B9E4320 
 148      191B1DA2 
 148      6DFCFC8C 
 149 0074 FF881154 		.ascii	"\377\210\021T\337\024Q&P\360\354B\303\261\013G\005\207"
 149      DF145126 
 149      50F0EC42 
 149      C3B10B47 
 149      0587
 150 0086 AF128571 		.ascii	"\257\022\205q7\357S\230\010l|\273k\201\277\005\236\322"
 150      37EF5398 
 150      086C7CBB 
 150      6B81BF05 
 150      9ED2
 151 0098 F6BD6FDE 		.ascii	"\366\275o\336\373\200\304\303\000t@i'p=\037\007\264"
 151      FB80C4C3 
 151      00744069 
ARM GAS  C:\Users\Daniela\AppData\Local\Temp\ccWaZ5AR.s 			page 11


 151      27703D1F 
 151      07B4
 152 00aa 47283BA8 		.ascii	"G(;\250\361XkNw\310\216g\352_\205\211\236\2711\265\371"
 152      F1586B4E 
 152      77C88E67 
 152      EA5F8589 
 152      9EB931B5 
 153 00bf 54C8E376 		.ascii	"T\310\343vt\2779\023FoD\232\250\246,\006\247\260\231"
 153      74BF3913 
 153      466F449A 
 153      A8A62C06 
 153      A7B099
 154 00d2 51D3F9E1 		.ascii	"Q\323\371\341\001\375TE\032px[\375\253x7%[\205\006\336"
 154      01FD5445 
 154      1A70785B 
 154      FDAB7837 
 154      255B8506 
 155 00e7 96660696 		.ascii	"\226f\006\226\223\372m\020\257\243\342\305[\251\246"
 155      93FA6D10 
 155      AFA3E2C5 
 155      5BA9A6
 156 00f6 9361980D 		.ascii	"\223a\230\015\303s\3510\026i\215\357\240Y\017\247\261"
 156      C373E930 
 156      16698DEF 
 156      A0590FA7 
 156      B1
 157 0107 09DF6213 		.ascii	"\011\337b\023q\2100\210&FgW\012\323J\277k\230\207\006"
 157      71883088 
 157      26466757 
 157      0AD34ABF 
 157      6B988706 
 158 011b 174BF13A 		.ascii	"\027K\361:s\3010\035|\377:\323!\234A\223\300O\376qi"
 158      73C1301D 
 158      7CFF3AD3 
 158      219C4193 
 158      C04FFE71 
 159 0130 3CA5B718 		.ascii	"<\245\267\030\352\321\233\331A\325\370\225P\3137\372"
 159      EAD19BD9 
 159      41D5F895 
 159      50CB37FA 
 160 0140 D77F1196 		.ascii	"\327\177\021\226\363\015B/\275J\227\301\350\331\221"
 160      F30D422F 
 160      BD4A97C1 
 160      E8D991
 161 014f 95E3492F 		.ascii	"\225\343I//)7`\010\2156Y\014\303\343\333\201D\206\232"
 161      2F293760 
 161      088D3659 
 161      0CC3E3DB 
 161      8144869A 
 162 0163 CB61AD96 		.ascii	"\313a\255\226\013\3133\033./nH\202$\350@\216v!\326="
 162      0BCB331B 
 162      2E2F6E48 
 162      8224E840 
 162      8E7621D6 
 163 0178 49C2E7C9 		.ascii	"I\302\347\311\015x\362\342\006\260F\226\011\231\210"
 163      0D78F2E2 
 163      06B04696 
ARM GAS  C:\Users\Daniela\AppData\Local\Temp\ccWaZ5AR.s 			page 12


 163      099988
 164 0187 1EB3E435 		.ascii	"\036\263\3445\242\252R\374\320\263\310\226\253\225\265"
 164      A2AA52FC 
 164      D0B3C896 
 164      AB95B5
 165 0196 E60806B2 		.ascii	"\346\010\006\262\207\376h\342o_*\350\260\370\210\361"
 165      87FE68E2 
 165      6F5F2AE8 
 165      B0F888F1 
 166 01a6 56559AF2 		.ascii	"VU\232\362\276\236Cn\240P\231\251@\3209\315?7\247As"
 166      BE9E436E 
 166      A05099A9 
 166      40D039CD 
 166      3F37A741 
 167 01bb C82EC56D 		.ascii	"\310.\305m\310_\315\327\246\000\013W'{\023'\360%\"\355"
 167      C85FCDD7 
 167      A6000B57 
 167      277B1327 
 167      F02522ED 
 168 01cf 33073F88 		.ascii	"3\007?\210\"~\304\011C\234\357yPW\013\230M\263P\262"
 168      227EC409 
 168      439CEF79 
 168      50570B98 
 168      4DB350B2 
 169 01e3 635AF9E1 		.ascii	"cZ\371\341\3607\236\336j$\226\212O\226\275z\015\257"
 169      F0379EDE 
 169      6A24968A 
 169      4F96BD7A 
 169      0DAF
 170 01f5 F5275FD6 		.ascii	"\365'_\326\360\247\377\327\020g\321\310Z\306\263C\334"
 170      F0A7FFD7 
 170      1067D1C8 
 170      5AC6B343 
 170      DC
 171 0206 716C7A62 		.ascii	"qlzb\351\340\243\251q\274Z\336\360\376\2317\005l\212"
 171      E9E0A3A9 
 171      71BC5ADE 
 171      F0FE9937 
 171      056C8A
 172 0219 5B5378BD 		.ascii	"[Sx\275\372\204\237\301\305\3029\361\266fuZ\201\301"
 172      FA849FC1 
 172      C5C239F1 
 172      B666755A 
 172      81C1
 173 022b FEF3FB91 		.ascii	"\376\363\373\221\205\270\335\366\346\3732\322z\363\247"
 173      85B8DDF6 
 173      E6FB32D2 
 173      7AF3A7
 174 023a 47A7639C 		.ascii	"G\247c\234i&\237\011\327E:\206166j\322\375\305\246\233"
 174      69269F09 
 174      D7453A86 
 174      3136366A 
 174      D2FDC5A6 
 175 024f 5B2E8813 		.ascii	"[.\210\023+\232\260\272\237\177]\032K\212\220\207\267"
 175      2B9AB0BA 
 175      9F7F5D1A 
 175      4B8A9087 
ARM GAS  C:\Users\Daniela\AppData\Local\Temp\ccWaZ5AR.s 			page 13


 175      B7
 176 0260 709ED177 		.ascii	"p\236\321w\220\277\236+\275\0001\242x\376\351\244k\021"
 176      90BF9E2B 
 176      BD0031A2 
 176      78FEE9A4 
 176      6B11
 177 0272 012ED413 		.ascii	"\001.\324\023}\254\002\342\357\013U\345\332\253\231"
 177      7DAC02E2 
 177      EF0B55E5 
 177      DAAB99
 178 0281 2856978F 		.ascii	"(V\227\217\305\204\305\224+\205\321\225\224uW\256\273"
 178      C584C594 
 178      2B85D195 
 178      947557AE 
 178      BB
 179 0292 1B7A3879 		.ascii	"\033z8y!\261\332\335\305\227\356\306\331\235\024Mz\341"
 179      21B1DADD 
 179      C597EEC6 
 179      D99D144D 
 179      7AE1
 180 02a4 5925657A 		.ascii	"Y%ezAJ#\216\373\013Wf\372\352W\024\347\333f\245\263"
 180      414A238E 
 180      FB0B5766 
 180      FAEA5714 
 180      E7DB66A5 
 181 02b9 3D7F8EC4 		.ascii	"=\177\216\304m\203\000\277\262B\375\326\244\177\030"
 181      6D8300BF 
 181      B242FDD6 
 181      A47F18
 182 02c8 646AEFD1 		.ascii	"dj\357\321\015_zk\035\331($\255\251\334\036+\304\247"
 182      0D5F7A6B 
 182      1DD92824 
 182      ADA9DC1E 
 182      2BC4A7
 183 02db 992F7D9E 		.ascii	"\231/}\236\005\270\303\324\242f\236\333\033c\242/My"
 183      05B8C3D4 
 183      A2669EDB 
 183      1B63A22F 
 183      4D79
 184 02ed 8F8D3CAF 		.ascii	"\217\215<\257\030\321z\262\3400\367m\323\007\351\275"
 184      18D17AB2 
 184      E030F76D 
 184      D307E9BD 
 185 02fd E9CEB6AE 		.ascii	"\351\316\266\256\364'\255-\035\335\235\355\351\335\273"
 185      F427AD2D 
 185      1DDD9DED 
 185      E9DDBB
 186 030c 5A3A76BE 		.ascii	"Z:v\276\267\373\343\355\315\037\265\266\354\372\260"
 186      B7FBE3ED 
 186      CD1FB5B6 
 186      ECFAB0
 187 031b 5516EFB4 		.ascii	"U\026\357\264\223\273\257sG\367\036\267\275\243{o\027"
 187      93BBAF73 
 187      47F71EB7 
 187      BDA37B6F 
 187      17
 188 032c 3EF5BAF6 		.ascii	">\365\272\366\277\337\326\325\366\037\012\325s\200"
ARM GAS  C:\Users\Daniela\AppData\Local\Temp\ccWaZ5AR.s 			page 14


 188      BFDFD6D5 
 188      F61F0AD5 
 188      7380
 189              		.text
 190              		.section	.gnu.lto_UART_SpiUartGetTxBufferSize.58eb9d7f,"",%progbits
 191 0000 789C554F 		.ascii	"x\234UOK+\204a\024~\237\367\375\030\324X)\2052\233I"
 191      4B2B8461 
 191      147E9FF7 
 191      FD18D458 
 191      2985329B 
 192 0015 2CACFC01 		.ascii	",\254\374\001Y`'CY\250\211\361-l(\227\005\233y\307|"
 192      59602743 
 192      59A889F1 
 192      2D6C2897 
 192      059B79C7 
 193 002a 9FB02219 		.ascii	"\237\260\"\031\031\244\\r\277\355\330})\013\311e\304"
 193      19A45C72 
 193      BFEDD87D 
 193      290BC965 
 193      C4
 194 003b 52346AC2 		.ascii	"R4j\302\012\021\271\215s\214\215So\347\234\267\347y"
 194      0A11B98D 
 194      738C8D53 
 194      6FE79CB7 
 194      E779
 195 004d CEF31802 		.ascii	"\316\363\030\002\202\253\207Z)\365|zP\002r\370X\210"
 195      82AB875A 
 195      29F57C7A 
 195      500272F8 
 195      5888
 196 005f 50860478 		.ascii	"P\206\004x\320\031\020A\211 ^\344\227D\314\332\232R"
 196      D0191041 
 196      89205EE4 
 196      9744CCDA 
 196      9A52
 197 0071 CFD22698 		.ascii	"\317\322&\230A\353\343Q\364&\233W\300C\353\244>\033"
 197      41EBE351 
 197      F4269B57 
 197      C043EBA4 
 197      3E1B
 198 0083 74152F6A 		.ascii	"t\025/j\335\247\257\027>\232G\302v\225\255\244HJ\201"
 198      DDA7AF17 
 198      3E9A47C2 
 198      7695ADA4 
 198      484A81
 199 0096 25146011 		.ascii	"%\024`\021\005|b\031\305\202\300\263\241\213C\267*\001"
 199      057C6219 
 199      C582C0B3 
 199      A18B43B7 
 199      2A01
 200 00a8 CF91DBB7 		.ascii	"\317\221\333\267o\227w\216\211\316\325x\316\204v,\017"
 200      6F97778E 
 200      89CED578 
 200      CE84762C 
 200      0F
 201 00b9 31B102F5 		.ascii	"1\261\002\365\237,\030\035\337\376\036s\247[\232\312"
 201      9F2C181D 
ARM GAS  C:\Users\Daniela\AppData\Local\Temp\ccWaZ5AR.s 			page 15


 201      DFFE1E73 
 201      A75B9ACA 
 202 00c9 835578F9 		.ascii	"\203Ux\371\000\351\256!\235\222\200\1776k\035\235L\206"
 202      00E9AE21 
 202      9D92807F 
 202      366B1D9D 
 202      4C86
 203 00db B57399BB 		.ascii	"\265s\231\273\177\226gHa+E\226\031+\036\010\314\301"
 203      7F966748 
 203      612B4596 
 203      192B1E08 
 203      CCC1
 204 00ed 1EA5E4AE 		.ascii	"\036\245\344\256\022\330{\037J\33450?\2548d\304\336"
 204      12D87B1F 
 204      4ADC3530 
 204      3FAC3864 
 204      C4DE
 205 00ff 3B71712A 		.ascii	";qq*\343\327\334\351\301\310kVj\035\260\206C\234\373"
 205      E3D7DCE9 
 205      C1C86B56 
 205      6A1DB086 
 205      439CFB
 206 0112 69792796 		.ascii	"iy'\2269\203\351\220\005[\245a\203\374\255\263?lb\006"
 206      3983E990 
 206      055BA561 
 206      83FCADB3 
 206      3F6C6206 
 207 0126 2281F067 		.ascii	"\"\201\360g\377\271L\011\252\224\346\350\374\306\256"
 207      FFB94C09 
 207      AA94E6E8 
 207      FCC6AE
 208 0135 9B45140A 		.ascii	"\233E\024\012\261E\3308~\001\354\211@\342\036}N,\232"
 208      B145D838 
 208      7E01EC89 
 208      40E21E7D 
 208      4E2C9A
 209 0148 F3C7E1A0 		.ascii	"\363\307\341\240\017\022\354\217\334\026U\232mfGS\227"
 209      0F12EC8F 
 209      DC16559A 
 209      6D664753 
 209      97
 210 0159 D9E2F7B5 		.ascii	"\331\342\367\265ww\004\314\306\032_{EYc}ym\235\337W"
 210      777704CC 
 210      C61A5F7B 
 210      4559637D 
 210      796D9DDF 
 211 016e 53EDE7A1 		.ascii	"S\355\347\2414 \214\316\326^\363\007Wu\217\345"
 211      34208CCE 
 211      D65EF307 
 211      57758FE5 
 212              		.text
 213              		.section	.gnu.lto_UART_SpiUartClearTxBuffer.58eb9d7f,"",%progbits
 214 0000 789C8D91 		.ascii	"x\234\215\221\273K\303P\024\207\317\271\267\215EPW\241"
 214      BB4BC350 
 214      1487CFB9 
 214      B78D4550 
 214      57A1
ARM GAS  C:\Users\Daniela\AppData\Local\Temp\ccWaZ5AR.s 			page 16


 215 0012 1DDCA48B 		.ascii	"\035\334\244\213\223\223\2338\210[it+\004\251Y-\024"
 215      93939B38 
 215      885B6974 
 215      2B04A959 
 215      2D14
 216 0024 1D9C9AB4 		.ascii	"\035\234\232\264\011\202\210ti7\351$\365Qm+8\270\225"
 216      09828874 
 216      6937E924 
 216      F5516D2B 
 216      38B895
 217 0037 8082E0E3 		.ascii	"\200\202\340\343\017\260\2508Dp(\025\024\244>\3429I"
 217      0FB0A838 
 217      44702815 
 217      14A43EE2 
 217      3949
 218 0049 E7E2859C 		.ascii	"\347\342\205\234s\223\374\362}\227\223\020 \360:\243"
 218      7393FCF2 
 218      7D979310 
 218      20F03AA3 
 219 0059 16A71EA5 		.ascii	"\026\247\036\245\013%\240(\336\002\230\021\201\310\033"
 219      0B25A028 
 219      DE029811 
 219      81C81B
 220 0068 23829013 		.ascii	"#\202\220\023\230\303\017\361#\320\331t\317E\274j\320"
 220      98C30FF1 
 220      23D0D974 
 220      CF45BC6A 
 220      D0
 221 0079 7ADA3B55 		.ascii	"z\332;UM\303\036\267%\200'|\022`\025\343@\261\347\346"
 221      4DC31EB7 
 221      2580277C 
 221      126015E3 
 221      40B1E7E6 
 222 008d 6F6944B1 		.ascii	"oiD\26186\021\274\304}TXWO\266\014\317+\030\255R\364"
 222      383611BC 
 222      C47D5458 
 222      574FB60C 
 222      CF2B18AD 
 223 00a3 E2211A11 		.ascii	"\342!\032\021`KrR\011sQ\270\000t\351\013v\277\011\301"
 223      604B7252 
 223      097351B8 
 223      0074E90B 
 223      76BF09C1 
 224 00b7 5DBAE8F4 		.ascii	"]\272\350\364\266\334\316\014C\012\222\317Q\266\235"
 224      B6DCCE0C 
 224      430A92CF 
 224      51B69D
 225 00c6 BBA17761 		.ascii	"\273\241waK\201\354s\332\327M\021\334ZV\321\014\321"
 225      4B81EC73 
 225      DAD74D11 
 225      DC5A56D1 
 225      0CD1
 226 00d8 A3F6CED5 		.ascii	"\243\366\316\325F\005wM\013m)\361\020cx\2001:\307\021"
 226      4605774D 
 226      0B6D29F1 
 226      10637880 
 226      313AC711 
ARM GAS  C:\Users\Daniela\AppData\Local\Temp\ccWaZ5AR.s 			page 17


 227 00ec 56105C2C 		.ascii	"V\020\\,|*\001M\006\300\227Nm\333\007\"\032F\010k\224"
 227      7C2A014D 
 227      06C0974E 
 227      6DDB0722 
 227      1A46086B 
 228 0101 256B1939 		.ascii	"%k\03194\200vL4bp\2667\034\000\303\003\342'}\371w_\336"
 228      3480764C 
 228      346270B6 
 228      371C00C3 
 228      03E2277D 
 229 0119 8FE76F1A 		.ascii	"\217\347o\032\227\243\201\334\363\276\2741\254\377S"
 229      97A381DC 
 229      F3BEBC31 
 229      ACFF53
 230 0128 DFF0F50A 		.ascii	"\337\360\365\012\274b\276\365x/8\355\377\207.\215\205"
 230      BC62BEF5 
 230      782F38ED 
 230      FF872E8D 
 230      85
 231 0139 0647639C 		.ascii	"\006Gc\234\234\327W\365\354\362\232\276\242\251\231"
 231      9CD757F5 
 231      ECF29ABE 
 231      A2A999
 232 0148 F56C5A4F 		.ascii	"\365lZO%\324\314\334tji6\271\250\251\211\005\2157Si"
 232      25D4CCDC 
 232      746A6936 
 232      B9A8A989 
 232      058D3753 
 233 015d F803EB4E 		.ascii	"\370\003\353N\235\334"
 233      9DDC
 234              		.text
 235              		.section	.gnu.lto_UART_SpiUartDisableIntRx.58eb9d7f,"",%progbits
 236 0000 789C5550 		.ascii	"x\234UP=K\202Q\030\275\347^\313\202\264\037P\204K\204"
 236      3D4B8251 
 236      18BDE75E 
 236      CB82B41F 
 236      50844B84 
 237 0014 0D2D3517 		.ascii	"\015-5\027\321Pm\241E\213 Q\016-\012bs\327\217w(\010"
 237      D1506DA1 
 237      458B2051 
 237      0E2D0A62 
 237      73D78F77 
 238 002a 0A2AE84B 		.ascii	"\012*\350K\203\010\263/ul(\336\214\240\241\214\032\232"
 238      8308B32F 
 238      756C28DE 
 238      8CA0A18C 
 238      1A9A
 239 003c A3A0211A 		.ascii	"\243\240!\032\022\2140P{\036k\361\302\313\363u\316s"
 239      128C3050 
 239      7B1E6BF1 
 239      C2CBF375 
 239      CE73
 240 004e CEF35A04 		.ascii	"\316\363Z\004\004\277U\012\275\024\333\350\203\022\220"
 240      04BF550A 
 240      BD14DBE8 
 240      831290
 241 005d CB7921C2 		.ascii	"\313y!\302M\022\340D7A\314K\314\343K\226%\036b\231m"
ARM GAS  C:\Users\Daniela\AppData\Local\Temp\ccWaZ5AR.s 			page 18


 241      4D12E044 
 241      3741CC4B 
 241      CCE34B96 
 241      251E6299 
 242 0072 559406C1 		.ascii	"U\224\006\301,T\026\3566_\355\\\002\016*\267\364\343"
 242      2C5416EE 
 242      365FED5C 
 242      020E2AB7 
 242      F4E3
 243 0084 82D599D4 		.ascii	"\202\325\231\324:\242\237\257_\207V\242\306\210\241"
 243      3AA29FAF 
 243      5F8756A2 
 243      C688A1
 244 0093 A4A84A81 		.ascii	"\244\250J\201\003\264#\211v\226H\301)\010\\9\326\311"
 244      03B42389 
 244      769648C1 
 244      29085C39 
 244      D6C9
 245 00a5 56D50DCE 		.ascii	"V\325\015\316\367W\277\257\254\235{L4\263q\373\2066"
 245      F757BFAF 
 245      AC9D7B4C 
 245      34B371FB 
 245      8636
 246 00b7 630E62E2 		.ascii	"c\016b\342\020\252\236,\030\375\222\255\254\331\032"
 246      10AA9E2C 
 246      18FD92AD 
 246      ACD91A
 247 00c6 639A9E03 		.ascii	"c\232\236\003G\350d\001\332{\214F\272\004\334I\273L"
 247      47E86401 
 247      DA7B8C46 
 247      BA04DC49 
 247      BB4C
 248 00d8 5DAD46B5 		.ascii	"]\255F\265\231\350\270\274\350\260\320\012\206\211O"
 248      99E8B8BC 
 248      E8B0D00A 
 248      86894F
 249 00e7 C2F14D05 		.ascii	"\302\361M\005)9\2527\344~\026\237J\375L\215*\276o\335"
 249      2939AA37 
 249      E47E169F 
 249      4AFD4C8D 
 249      2ABE6FDD 
 250 00fb C8DD5BF9 		.ascii	"\310\335[\371 U\363\265\233*\237\266\374\2257\211\345"
 250      2055F3B5 
 250      9B2A9FB6 
 250      FC953789 
 250      E5
 251 010c 309F1CBD 		.ascii	"0\237\034\275M,!\201\235p,\254\265[\030\312\202S\262"
 251      4D2C2181 
 251      9D702CAC 
 251      B55B18CA 
 251      8253B2
 252 011f 77C2F690 		.ascii	"w\302\366\220\246\211xAD\017\324\334\220(\255\025$S"
 252      A6897841 
 252      440FD4DC 
 252      9028AD15 
 252      2453
 253 0131 CCE427B9 		.ascii	"\314\344'\271U\267\000\365\344\014ui\236\3768+\331X"
ARM GAS  C:\Users\Daniela\AppData\Local\Temp\ccWaZ5AR.s 			page 19


 253      55B700F5 
 253      E40C7569 
 253      9EFE382B 
 253      D958
 254 0143 B3010259 		.ascii	"\263\001\002Y\232\274#b\236\307\355\377&\371\037|J\260"
 254      9ABC2362 
 254      9EC7EDFF 
 254      26F91F7C 
 254      4AB0
 255 0155 7FCABB86 		.ascii	"\177\312\273\206}~_p*\344\233\361\272\003s\301i\237"
 255      7D7E5F70 
 255      2AE49BF1 
 255      BA0373C1 
 255      699F
 256 0167 67CC1D18 		.ascii	"g\314\035\030\352\363L\014\272\306\275\356\261Q/'=\323"
 256      EAF34C0C 
 256      BAC6BDEE 
 256      B1512F27 
 256      3DD3
 257 0179 A279D61F 		.ascii	"\242y\326\037\372\003\374\002\334\251\234?"
 257      FA03FC02 
 257      DCA99C3F 
 258              		.text
 259              		.section	.gnu.lto_UART_SpiUartDisableIntTx.58eb9d7f,"",%progbits
 260 0000 789C5550 		.ascii	"x\234UP\271JCA\024\2353\363L\002\222\374\200\242iD\264"
 260      B94A4341 
 260      149D33F3 
 260      4C0292FC 
 260      80A26944 
 261 0015 B012ACC5 		.ascii	"\260\022\254\305B-\004I\\\012\205 1\205\010\011\270"
 261      422D0449 
 261      5C0A8520 
 261      31850809 
 261      B8
 262 0026 D44E9627 		.ascii	"\324N\226'*\010\021TH\\^a\341\236\304F\260\020\236\026"
 262      2A081154 
 262      485C5E61 
 262      E19EC446 
 262      B0109E16 
 263 003a 5AA9E817 		.ascii	"Z\251\350\027\210\242\240\010F\320\3025\336\033m2\360"
 263      88A2A008 
 263      46D0C235 
 263      DE1B6D32 
 263      F0
 264 004b B8F7CE9C 		.ascii	"\270\367\316\234s\3179\317\020\020|\346\2514Q\255\240"
 264      73CF39CF 
 264      10107CE6 
 264      A93451AD 
 264      A0
 265 005c 0F4A4026 		.ascii	"\017J@&\317\205\210\272$\300\215vALHL\340M~K\\&r\313"
 265      CF8588BA 
 265      24C08D76 
 265      414C484C 
 265      E04D7E4B 
 266 0074 EA559A04 		.ascii	"\352U\232\0043h|9K\337zx\004\2744.\351\253ig\335\272"
 266      33687C39 
 266      4BDF7A78 
ARM GAS  C:\Users\Daniela\AppData\Local\Temp\ccWaZ5AR.s 			page 20


 266      04BC342E 
 266      E9AB6967 
 267 008a D6317D6D 		.ascii	"\3261}m>\267\314\305\3156SIQ\220\002\033\250\304:*Y"
 267      3EB7CCC5 
 267      CD365349 
 267      5190021B 
 267      A8C43A2A 
 268 009f 62137582 		.ascii	"b\023u\202\300\231\207\311Y\207\252\007\367\247z\363"
 268      C09987C9 
 268      5987AA07 
 268      F7A77AF3 
 269 00af DD55B3C6 		.ascii	"\335U\263\306D\373{\325\223\322v\302KLlA\225\222\005"
 269      44FB7BD5 
 269      93D276C2 
 269      4B4C6C41 
 269      959205
 270 00c2 A36FF67E 		.ascii	"\243o\366~\026\334\216\204\246\343\3056jX\200\366\356"
 270      16DC8E84 
 270      A6E3C536 
 270      6A5880F6 
 270      EE
 271 00d3 C04149C0 		.ascii	"\300AI\3007Y\237\255\013\205\270\266?\253\216\322\325"
 271      37599FAD 
 271      0B85B8B6 
 271      3FAB8ED2 
 271      D5
 272 00e4 06AD6098 		.ascii	"\006\255`\230\310\023\2163\275H\311U\335\343\370c\346"
 272      C8138E33 
 272      BD48C955 
 272      DDE3F863 
 272      E6
 273 00f5 E4AB87A9 		.ascii	"\344\253\207\251q\305\371\026\315\343\013'\007RE_\261"
 273      71C5F916 
 273      CDE30B27 
 273      0752455F 
 273      B1
 274 0106 FCBE69FC 		.ascii	"\374\276i\374\215SV2\312\221\255C{\272\334\302J4\021"
 274      8D535632 
 274      CA91AD43 
 274      7BBADCC2 
 274      4A3411
 275 0119 D5BA4F98 		.ascii	"\325\272O\230\312@\206\354\355\262=daA\334 \246{\213"
 275      CA4086EC 
 275      EDB23D64 
 275      6141DC20 
 275      A67B8B
 276 012c 6E4894D6 		.ascii	"nH\224\326\012\222y\315\335\025\257J\026\240\224\234"
 276      0A9279CD 
 276      DD15AF4A 
 276      16A0949C 
 277 013c 2332BD67 		.ascii	"#2\275g\237\016\336\335\254Y\006\201=zyD\314NY\236\177"
 277      9F0EDEDD 
 277      AC590681 
 277      3D7A7944 
 277      CC4E599E 
 278 0151 93FC0FF2 		.ascii	"\223\374\017\362\022\354\237\372\332\326P8420\026\032"
 278      12EC9FFA 
ARM GAS  C:\Users\Daniela\AppData\Local\Temp\ccWaZ5AR.s 			page 21


 278      DAD65038 
 278      34323016 
 278      1A
 279 0162 0CF823E3 		.ascii	"\014\370#\343#\301P\177\247?\322\322\330\337\335\354"
 279      23C1507F 
 279      A73FD2D2 
 279      D8DFDDEC 
 280 0172 EB0AF83B 		.ascii	"\353\012\370;\333\003\3344\004\205{(<\366\007\350\030"
 280      DB03DC34 
 280      04857B28 
 280      3CF607E8 
 280      18
 281 0183 181DFE05 		.ascii	"\030\035\376\005G\242\235\343"
 281      47A29DE3 
 282              		.text
 283              		.section	.gnu.lto_.symbol_nodes.58eb9d7f,"",%progbits
 284 0000 789C55C8 		.ascii	"x\234U\310\273\021\000!\014\003Qa\314\267\013*\325\225"
 284      BB110021 
 284      0C035161 
 284      CCB70B2A 
 284      D595
 285 0012 70399D50 		.ascii	"p9\235P\0045\341T\233\354\314s$lDf\004\376\013\304\316"
 285      0435E154 
 285      9BECCC73 
 285      246C4466 
 285      04FE0BC4 
 286 0027 B7023293 		.ascii	"\267\0022\223\202\323\024\012\263B\245+4\026\205\316"
 286      82D3140A 
 286      B342A52B 
 286      341685CE 
 287 0037 AA30D814 		.ascii	"\2520\330\024&\273\000\036\254\214\"|"
 287      26BB001E 
 287      AC8C227C 
 288              		.text
 289              		.section	.gnu.lto_.refs.58eb9d7f,"",%progbits
 290 0000 789C6361 		.ascii	"x\234ca`\004B \000\000\0009\000\007"
 290      60044220 
 290      00000039 
 290      0007
 291              		.text
 292              		.section	.gnu.lto_.decls.58eb9d7f,"",%progbits
 293 0000 789C8D54 		.ascii	"x\234\215T]L\024W\024\276gfY`\200\305\022bi\272\017"
 293      5D4C1457 
 293      14BE6766 
 293      596080C5 
 293      126269BA 
 294 0015 941778A2 		.ascii	"\224\027x\242U\372\320>4\321bJx\261\204\277\276\230"
 294      55FAD03E 
 294      34D1624A 
 294      78B184BF 
 294      BE98
 295 0027 90154725 		.ascii	"\220\025G%1h\226%\201>\015\005MKC\005L\254\002\255\033"
 295      31689625 
 295      813E0D05 
 295      4D4B4305 
 295      4CAC02AD 
 296 003c 4165010B 		.ascii	"Ae\001\013\310?X\013\212\362\273R\300\030\015\255\320"
ARM GAS  C:\Users\Daniela\AppData\Local\Temp\ccWaZ5AR.s 			page 22


 296      C83F580B 
 296      8AF2BB52 
 296      C0180DAD 
 296      D0
 297 004d D0A681DA 		.ascii	"\320\246\201\332V\304\266\242\001z\356\235;\314\354"
 297      56C4B6A2 
 297      017AEE9D 
 297      3BCCEC
 298 005c 7628DCEC 		.ascii	"v(\334\354\231\275s\357\371\276\363\235;\337\214\205"
 298      99BD73EF 
 298      F9BEF39D 
 298      3BDF8C85 
 299 006c 00A1A3CF 		.ascii	"\000\241\243\317JH2N\217\012\204\254\343\220p-\223\350"
 299      4A48324E 
 299      8F0A84AC 
 299      E390702D 
 299      93E8
 300 007e 2318E31A 		.ascii	"#\030\343\032F;F\027\315\307\030\302\030\301\030\303"
 300      463B4617 
 300      CDC718C2 
 300      18C118C3 
 301 008e F0624C90 		.ascii	"\360bL\220\377\016\212\011\300\210\300\210\304h\306"
 301      FF0E8A09 
 301      C088C088 
 301      C468C6
 302 009d B88731C5 		.ascii	"\270\2071\305\367\201\347\370\017Z\307\352\207\2135"
 302      F781E7F8 
 302      0F5AC7EA 
 302      878B35
 303 00ac C1B69B60 		.ascii	"\301\266\233`\251>\013\327o\206\3512\301\320~\0029f"
 303      A93E0BD7 
 303      6F86E932 
 303      C1D07E02 
 303      3966
 304 00be AB9A7D26 		.ascii	"\253\232}&xz\026\222\037~\220s\3309\317-?.\201\343\314"
 304      787A1692 
 304      1F7E9073 
 304      D839CF2D 
 304      3F2E81E3 
 305 00d3 F846B6D9 		.ascii	"\370F\266\331\377\210\011vl\213\376\307L0^\223z\032"
 305      FF880976 
 305      6C8BFEC7 
 305      4C305E93 
 305      7A1A
 306 00e5 2ED680F5 		.ascii	".\326\200\365\232`'\266\2115\363\307\252\000\365\323"
 306      9A6027B6 
 306      8935F3C7 
 306      AA00F5D3 
 307 00f5 CB8A3403 		.ascii	"\313\2124\003\017A$\334\214\004@\275\002\013\242\006"
 307      0F4124DC 
 307      8C0440BD 
 307      020BA206 
 308 0105 BBC58940 		.ascii	"\273\305\211@\324\211\266\2641\010\250;\002_%:\031\373"
 308      D489B6B4 
 308      3108A83B 
 308      025F253A 
 308      19FB
ARM GAS  C:\Users\Daniela\AppData\Local\Temp\ccWaZ5AR.s 			page 23


 309 0117 713CAC6B 		.ascii	"q<\254k\203\221\350\354\300A\260\241\200m\253 \330`"
 309      8391E8EC 
 309      C041B0A1 
 309      806DAB20 
 309      D860
 310 0129 55FF041D 		.ascii	"U\377\004\035a\340\363S\244i\326\312\260G\316\232>W"
 310      61E0F353 
 310      A469D6CA 
 310      B047CE9A 
 310      3E57
 311 013b 36F43454 		.ascii	"6\3644T\024\200\316gW\352?\210oRp\224+\212\360\256~"
 311      1480CE67 
 311      57EA3F88 
 311      6F527094 
 311      2B8AF0AE 
 312 0150 3293252D 		.ascii	"2\223%-5\3423\001\"$\260\340\355\222\267j\336\206\267"
 312      35E23301 
 312      2224B0E0 
 312      ED92B76A 
 312      DE86B7
 313 0163 911244E3 		.ascii	"\221\022D\343\355\217\303\236F\272\033+\261\216\302"
 313      ED8FC39E 
 313      46BA1B2B 
 313      B18EC2
 314 0172 71A9F971 		.ascii	"q\251\371q\317J\230\272D\361\243\263\277<\015\026c\350"
 314      CF4A98BA 
 314      44F1A3B3 
 314      BF3C0D16 
 314      63E8
 315 0184 5CE8ACBD 		.ascii	"\\\350\254\275\260\034\000R\334\247\212\362\211R^\254"
 315      B01C0052 
 315      DCA78AF2 
 315      89525EAC 
 316 0194 440CDB08 		.ascii	"D\014\333\0104\202\035\032\300N\240\005\342(\310\003"
 316      34821D1A 
 316      C04EA005 
 316      E228C803 
 317 01a4 F104AEE2 		.ascii	"\361\004\256\342b\023.^\246\212\346\332Z\337\353Q\224"
 317      62132E5E 
 317      A68AE6DA 
 317      5ADFEB51 
 317      94
 318 01b5 1DD00C12 		.ascii	"\035\320\014\022|\003\"K\301vb%U\342\343\311\207\363"
 318      7C03224B 
 318      C1766225 
 318      55E2E3C9 
 318      87F3
 319 01c7 21516799 		.ascii	"!Qg\231\370b%\332\302\3624Z\002\255\020\205\327\203"
 319      F86225DA 
 319      C2F2345A 
 319      02AD1085 
 319      D783
 320 01d9 163579BD 		.ascii	"\0265y\275\345\327\223!1n\305\335\242\314u\335\311\030"
 320      E5D79321 
 320      316EC5DD 
 320      A2CC75DD 
 320      C918
ARM GAS  C:\Users\Daniela\AppData\Local\Temp\ccWaZ5AR.s 			page 24


 321 01eb A83DA594 		.ascii	"\250=\245\224\027)\312\036\226\007\365:{=\365\002\201"
 321      1729CA1E 
 321      9607F53A 
 321      7B3DF502 
 321      81
 322 01fc 2B3083E7 		.ascii	"+0\203\347v\015b\020\333?^\344\266\211y\254\257\213"
 322      760D6210 
 322      DB3F5EE4 
 322      B68979AC 
 322      AF8B
 323 020e 4B6B5738 		.ascii	"KkW8O\377\213\321P\225\204q\264\351\034mF\216v\306Q"
 323      4FFF8BD1 
 323      50958471 
 323      B4E91C6D 
 323      468E76C6 
 324 0223 F4F98317 		.ascii	"\364\371\203\027\242x\032\030\311\352Hu\225`T\236\271"
 324      A2781A18 
 324      C9EA4875 
 324      9560549E 
 324      B9
 325 0234 D320BCD3 		.ascii	"\323 \274\323Gx}m\305b /\330\372E\330y\245\277\004a"
 325      47787D6D 
 325      C562202F 
 325      D8FA45D8 
 325      79A5BF04 
 326 0249 02CD820E 		.ascii	"\002\315\202\016\275d\207\261d\027+\351\271YWl\025="
 326      BD6487B1 
 326      64172BE9 
 326      B959576C 
 326      153D
 327 025b 6AC9DFFF 		.ascii	"j\311\337\377\274\340\015\264\240\007\330)!9\256\375"
 327      BCE00DB4 
 327      A007D829 
 327      2139AEFD 
 328 026b B5EC5E0C 		.ascii	"\265\354^\014\332TF/\223\321\003\\\307\344\313\331J"
 328      DA54462F 
 328      93D1035C 
 328      C7E4CBD9 
 328      4A
 329 027c 1BEA9843 		.ascii	"\033\352\230C\035\225S\254q\367\036\232\004\335\272"
 329      1D9553AC 
 329      71F71E9A 
 329      04DDBA
 330 028b 8A6EA38A 		.ascii	"\212n\243\212>\246\242\346\364\331\375\342\300\346\""
 330      3EA6A2E6 
 330      F4D9FDE2 
 330      C0E622
 331 029a 9A4FFEEC 		.ascii	"\232O\376\354\011B\337\330\321J`\360\221]\365\321\371"
 331      0942DFD8 
 331      D14A60F0 
 331      915DF5D1 
 331      F9
 332 02ab 8AF9B510 		.ascii	"\212\371\265\020\361>\303\013\323\363\215\013\026\210"
 332      F13EC30B 
 332      D3F38D0B 
 332      1688
 333 02b9 93B83D3C 		.ascii	"\223\270=<\252=n\"W\277\256\301N\355\301\254\366\344"
ARM GAS  C:\Users\Daniela\AppData\Local\Temp\ccWaZ5AR.s 			page 25


 333      AA3D6E22 
 333      57BFAEC1 
 333      4EEDC1AC 
 333      F6E4
 334 02cb A2628D22 		.ascii	"\242b\215\"\220`\207\267\320g\003\3503;\367\331w\330"
 334      906087B7 
 334      D06703E8 
 334      333BF7D9 
 334      77D8
 335 02dd E50DEC12 		.ascii	"\345\015\354\022\013<\361\254?\013\227x~\371\326\371"
 335      0B3CF1AC 
 335      3F0B9778 
 335      7EF9D6F9 
 336 02ed 8B65EED9 		.ascii	"\213e\356\331\260\320R\335\312p\313\307v\203\020\312"
 336      B0D052DD 
 336      CA70CBC7 
 336      768310CA 
 337 02fd 5FA1C6D5 		.ascii	"_\241\306\325\373\013\002\353\026\327\340[`\355^n\250"
 337      FB0B02EB 
 337      16D7E05B 
 337      60ED5E6E 
 337      A8
 338 030e BA11B2E9 		.ascii	"\272\021\262\351\231\337ag~[;\363\336\376\227\177[5"
 338      99DF6167 
 338      7E5B3BF3 
 338      DEFE977F 
 338      5B35
 339 0320 D39ECABC 		.ascii	"\323\236\312\274\244\233\026\023\341\272\336\363u\343"
 339      A49B1613 
 339      E1BADEF3 
 339      75E3
 340 032e B90FB173 		.ascii	"\271\017\261s/\231+]\013\026\177P\017\376\247\253\312"
 340      2F992B5D 
 340      0B167F50 
 340      0FFEA7AB 
 340      CA
 341 033f 3FC04D34 		.ascii	"?\300M4\363\245m\303D\324\267\303:\315\260\221fD\365"
 341      F3A56DC3 
 341      44D4B7C3 
 341      3ACDB091 
 341      6644F5
 342 0352 FEDC83B2 		.ascii	"\376\334\203\2620\3619\177~\015gJ4/\236\251\366\365"
 342      30F1397F 
 342      7E0D674A 
 342      342F9EA9 
 342      F6F5
 343 0364 E2A84E33 		.ascii	"\342\250N3j\244\031c4\013u\325\245\341b\245\372\321"
 343      6AA41963 
 343      340B75D5 
 343      A5E162A5 
 343      FAD1
 344 0376 59B854B7 		.ascii	"Y\270T\267\252\275C_}\035\352\243f\\\247\0317\322x\031"
 344      AABD435F 
 344      7D1DEAA3 
 344      665CA719 
 344      37D27819 
 345 038a CD1F9D4B 		.ascii	"\315\037\235Kc 6\2524\325\336\276W8\313\363G\3067\361"
ARM GAS  C:\Users\Daniela\AppData\Local\Temp\ccWaZ5AR.s 			page 26


 345      632036AA 
 345      34D5DEBE 
 345      5738CBF3 
 345      47C637F1 
 346 039e AECE71D7 		.ascii	"\256\316q\327\3101\3018z\233\232\317\211\364\201\027"
 346      C831C138 
 346      7A9B9ACF 
 346      89F48117 
 347 03ae 6FEF5B44 		.ascii	"o\357[D!\217\224\232\000q\220\225\025z\272\177k\262"
 347      218F949A 
 347      00719095 
 347      157ABA7F 
 347      6BB2
 348 03c0 A95F3313 		.ascii	"\251_3\023\206\351\315\277f+\037V|F\333\234B\277L\352"
 348      86E9CDBF 
 348      662B1F56 
 348      7C46DB9C 
 348      42BF4CEA 
 349 03d4 12BF07FE 		.ascii	"\022\277\007\376=\353\034\236\354\010\364q\326\224\217"
 349      3DEB1C9E 
 349      EC08F471 
 349      D6948F
 350 03e3 B3EEA9CE 		.ascii	"\263\356\251\316b\377;3\366\246\246g\245\235\310\311"
 350      62FF3B33 
 350      F6A6A667 
 350      A59DC8C9 
 351 03f3 70385DA9 		.ascii	"p8]\251\262\343Pj\301>\207\313\021\224\264?#:q\327."
 351      B2E3506A 
 351      C13E87CB 
 351      1194B43F 
 351      233A71D7 
 352 0408 62CDCFC9 		.ascii	"b\315\317\311u%\354~#I\316\225\235\016\227|(+\355x\276"
 352      7525EC7E 
 352      2349CE95 
 352      9D0E977C 
 352      282BED78 
 353 041d 335B3E90 		.ascii	"3[>\220\222v<\361\3557\263\013]\205'\344\274\370\243"
 353      92763CF1 
 353      ED37B30B 
 353      5D8527E4 
 353      BCF8A3
 354 0430 24D63CE3 		.ascii	"$\326<\343\200\312\237\222\234E'\361\331\344uc\301$"
 354      80CA9F92 
 354      9C4527F1 
 354      D9E47563 
 354      C124
 355 0442 D9955AF0 		.ascii	"\331\225Z\360~\376\341\303\2623-\347c\3715\343^\342"
 355      7EFEE1C3 
 355      B2332DE7 
 355      63F935E3 
 355      5EE2
 356 0454 31D9E1D4 		.ascii	"1\331\341\324v_5\356|\344\314q\311\351Lg\244q=%\337"
 356      765F35EE 
 356      7CE4CC71 
 356      C9E94C67 
 356      A4713D25 
 357 0469 B5D7E974 		.ascii	"\265\327\351t\024\006P\315\357\370\027J\377\337B\332"
ARM GAS  C:\Users\Daniela\AppData\Local\Temp\ccWaZ5AR.s 			page 27


 357      140650CD 
 357      EFF8174A 
 357      FFDF42DA 
 358 0479 6E947167 		.ascii	"n\224qg_N\236\343\340199\027Un\262\221^\020\340\224"
 358      5F4E9EE3 
 358      E0313939 
 358      17556EB2 
 358      915E10E0 
 359 048e 8F24ECFE 		.ascii	"\217$\354\376\027\223G\2125"
 359      1793478A 
 359      35
 360              		.text
 361              		.section	.gnu.lto_.symtab.58eb9d7f,"",%progbits
 362 0000 55415254 		.ascii	"UART_SpiUartReadRxData\000"
 362      5F537069 
 362      55617274 
 362      52656164 
 362      52784461 
 363 0017 00       		.ascii	"\000"
 364 0018 00       		.ascii	"\000"
 365 0019 00       		.ascii	"\000"
 366 001a 00000000 		.ascii	"\000\000\000\000\000\000\000\000"
 366      00000000 
 367 0022 B2000000 		.ascii	"\262\000\000\000"
 368 0026 55415254 		.ascii	"UART_SpiUartGetRxBufferSize\000"
 368      5F537069 
 368      55617274 
 368      47657452 
 368      78427566 
 369 0042 00       		.ascii	"\000"
 370 0043 00       		.ascii	"\000"
 371 0044 00       		.ascii	"\000"
 372 0045 00000000 		.ascii	"\000\000\000\000\000\000\000\000"
 372      00000000 
 373 004d B4000000 		.ascii	"\264\000\000\000"
 374 0051 55415254 		.ascii	"UART_SpiUartClearRxBuffer\000"
 374      5F537069 
 374      55617274 
 374      436C6561 
 374      72527842 
 375 006b 00       		.ascii	"\000"
 376 006c 00       		.ascii	"\000"
 377 006d 00       		.ascii	"\000"
 378 006e 00000000 		.ascii	"\000\000\000\000\000\000\000\000"
 378      00000000 
 379 0076 B7000000 		.ascii	"\267\000\000\000"
 380 007a 55415254 		.ascii	"UART_SpiUartWriteTxData\000"
 380      5F537069 
 380      55617274 
 380      57726974 
 380      65547844 
 381 0092 00       		.ascii	"\000"
 382 0093 00       		.ascii	"\000"
 383 0094 00       		.ascii	"\000"
 384 0095 00000000 		.ascii	"\000\000\000\000\000\000\000\000"
 384      00000000 
 385 009d BB000000 		.ascii	"\273\000\000\000"
ARM GAS  C:\Users\Daniela\AppData\Local\Temp\ccWaZ5AR.s 			page 28


 386 00a1 55415254 		.ascii	"UART_SpiUartPutArray\000"
 386      5F537069 
 386      55617274 
 386      50757441 
 386      72726179 
 387 00b6 00       		.ascii	"\000"
 388 00b7 00       		.ascii	"\000"
 389 00b8 00       		.ascii	"\000"
 390 00b9 00000000 		.ascii	"\000\000\000\000\000\000\000\000"
 390      00000000 
 391 00c1 C7000000 		.ascii	"\307\000\000\000"
 392 00c5 55415254 		.ascii	"UART_SpiUartGetTxBufferSize\000"
 392      5F537069 
 392      55617274 
 392      47657454 
 392      78427566 
 393 00e1 00       		.ascii	"\000"
 394 00e2 00       		.ascii	"\000"
 395 00e3 00       		.ascii	"\000"
 396 00e4 00000000 		.ascii	"\000\000\000\000\000\000\000\000"
 396      00000000 
 397 00ec C9000000 		.ascii	"\311\000\000\000"
 398 00f0 55415254 		.ascii	"UART_SpiUartClearTxBuffer\000"
 398      5F537069 
 398      55617274 
 398      436C6561 
 398      72547842 
 399 010a 00       		.ascii	"\000"
 400 010b 00       		.ascii	"\000"
 401 010c 00       		.ascii	"\000"
 402 010d 00000000 		.ascii	"\000\000\000\000\000\000\000\000"
 402      00000000 
 403 0115 CB000000 		.ascii	"\313\000\000\000"
 404 0119 55415254 		.ascii	"UART_SpiUartDisableIntRx\000"
 404      5F537069 
 404      55617274 
 404      44697361 
 404      626C6549 
 405 0132 00       		.ascii	"\000"
 406 0133 00       		.ascii	"\000"
 407 0134 00       		.ascii	"\000"
 408 0135 00000000 		.ascii	"\000\000\000\000\000\000\000\000"
 408      00000000 
 409 013d CD000000 		.ascii	"\315\000\000\000"
 410 0141 55415254 		.ascii	"UART_SpiUartDisableIntTx\000"
 410      5F537069 
 410      55617274 
 410      44697361 
 410      626C6549 
 411 015a 00       		.ascii	"\000"
 412 015b 00       		.ascii	"\000"
 413 015c 00       		.ascii	"\000"
 414 015d 00000000 		.ascii	"\000\000\000\000\000\000\000\000"
 414      00000000 
 415 0165 CF000000 		.ascii	"\317\000\000\000"
 416              		.text
 417              		.section	.gnu.lto_.opts,"",%progbits
ARM GAS  C:\Users\Daniela\AppData\Local\Temp\ccWaZ5AR.s 			page 29


 418 0000 272D666D 		.ascii	"'-fmath-errno' '-fsigned-zeros' '-ftrapping-math' '"
 418      6174682D 
 418      6572726E 
 418      6F272027 
 418      2D667369 
 419 0033 2D666E6F 		.ascii	"-fno-trapv' '-fno-openmp' '-fno-openacc' '-mcpu=cor"
 419      2D747261 
 419      70762720 
 419      272D666E 
 419      6F2D6F70 
 420 0066 7465782D 		.ascii	"tex-m0' '-mthumb' '-g' '-O3' '-ffunction-sections' "
 420      6D302720 
 420      272D6D74 
 420      68756D62 
 420      2720272D 
 421 0099 272D6666 		.ascii	"'-ffat-lto-objects' '-finline-functions' '-flto'\000"
 421      61742D6C 
 421      746F2D6F 
 421      626A6563 
 421      74732720 
 422              		.text
 423              		.cfi_sections	.debug_frame
 424              		.section	.text.UART_SpiUartReadRxData,"ax",%progbits
 425              		.align	2
 426              		.global	UART_SpiUartReadRxData
 427              		.code	16
 428              		.thumb_func
 429              		.type	UART_SpiUartReadRxData, %function
 430              	UART_SpiUartReadRxData:
 431              	.LFB2:
 432              		.file 1 "Generated_Source\\PSoC4\\UART_SPI_UART.c"
   1:Generated_Source\PSoC4/UART_SPI_UART.c **** /***************************************************************************//**
   2:Generated_Source\PSoC4/UART_SPI_UART.c **** * \file UART_SPI_UART.c
   3:Generated_Source\PSoC4/UART_SPI_UART.c **** * \version 4.0
   4:Generated_Source\PSoC4/UART_SPI_UART.c **** *
   5:Generated_Source\PSoC4/UART_SPI_UART.c **** * \brief
   6:Generated_Source\PSoC4/UART_SPI_UART.c **** *  This file provides the source code to the API for the SCB Component in
   7:Generated_Source\PSoC4/UART_SPI_UART.c **** *  SPI and UART modes.
   8:Generated_Source\PSoC4/UART_SPI_UART.c **** *
   9:Generated_Source\PSoC4/UART_SPI_UART.c **** * Note:
  10:Generated_Source\PSoC4/UART_SPI_UART.c **** *
  11:Generated_Source\PSoC4/UART_SPI_UART.c **** *******************************************************************************
  12:Generated_Source\PSoC4/UART_SPI_UART.c **** * \copyright
  13:Generated_Source\PSoC4/UART_SPI_UART.c **** * Copyright 2013-2017, Cypress Semiconductor Corporation.  All rights reserved.
  14:Generated_Source\PSoC4/UART_SPI_UART.c **** * You may use this file only in accordance with the license, terms, conditions,
  15:Generated_Source\PSoC4/UART_SPI_UART.c **** * disclaimers, and limitations in the end user license agreement accompanying
  16:Generated_Source\PSoC4/UART_SPI_UART.c **** * the software package with which this file was provided.
  17:Generated_Source\PSoC4/UART_SPI_UART.c **** *******************************************************************************/
  18:Generated_Source\PSoC4/UART_SPI_UART.c **** 
  19:Generated_Source\PSoC4/UART_SPI_UART.c **** #include "UART_PVT.h"
  20:Generated_Source\PSoC4/UART_SPI_UART.c **** #include "UART_SPI_UART_PVT.h"
  21:Generated_Source\PSoC4/UART_SPI_UART.c **** 
  22:Generated_Source\PSoC4/UART_SPI_UART.c **** /***************************************
  23:Generated_Source\PSoC4/UART_SPI_UART.c **** *        SPI/UART Private Vars
  24:Generated_Source\PSoC4/UART_SPI_UART.c **** ***************************************/
  25:Generated_Source\PSoC4/UART_SPI_UART.c **** 
  26:Generated_Source\PSoC4/UART_SPI_UART.c **** #if(UART_INTERNAL_RX_SW_BUFFER_CONST)
ARM GAS  C:\Users\Daniela\AppData\Local\Temp\ccWaZ5AR.s 			page 30


  27:Generated_Source\PSoC4/UART_SPI_UART.c ****     /* Start index to put data into the software receive buffer.*/
  28:Generated_Source\PSoC4/UART_SPI_UART.c ****     volatile uint32 UART_rxBufferHead;
  29:Generated_Source\PSoC4/UART_SPI_UART.c ****     /* Start index to get data from the software receive buffer.*/
  30:Generated_Source\PSoC4/UART_SPI_UART.c ****     volatile uint32 UART_rxBufferTail;
  31:Generated_Source\PSoC4/UART_SPI_UART.c ****     /**
  32:Generated_Source\PSoC4/UART_SPI_UART.c ****     * \addtogroup group_globals
  33:Generated_Source\PSoC4/UART_SPI_UART.c ****     * \{
  34:Generated_Source\PSoC4/UART_SPI_UART.c ****     */
  35:Generated_Source\PSoC4/UART_SPI_UART.c ****     /** Sets when internal software receive buffer overflow
  36:Generated_Source\PSoC4/UART_SPI_UART.c ****     *  was occurred.
  37:Generated_Source\PSoC4/UART_SPI_UART.c ****     */
  38:Generated_Source\PSoC4/UART_SPI_UART.c ****     volatile uint8  UART_rxBufferOverflow;
  39:Generated_Source\PSoC4/UART_SPI_UART.c ****     /** \} globals */
  40:Generated_Source\PSoC4/UART_SPI_UART.c **** #endif /* (UART_INTERNAL_RX_SW_BUFFER_CONST) */
  41:Generated_Source\PSoC4/UART_SPI_UART.c **** 
  42:Generated_Source\PSoC4/UART_SPI_UART.c **** #if(UART_INTERNAL_TX_SW_BUFFER_CONST)
  43:Generated_Source\PSoC4/UART_SPI_UART.c ****     /* Start index to put data into the software transmit buffer.*/
  44:Generated_Source\PSoC4/UART_SPI_UART.c ****     volatile uint32 UART_txBufferHead;
  45:Generated_Source\PSoC4/UART_SPI_UART.c ****     /* Start index to get data from the software transmit buffer.*/
  46:Generated_Source\PSoC4/UART_SPI_UART.c ****     volatile uint32 UART_txBufferTail;
  47:Generated_Source\PSoC4/UART_SPI_UART.c **** #endif /* (UART_INTERNAL_TX_SW_BUFFER_CONST) */
  48:Generated_Source\PSoC4/UART_SPI_UART.c **** 
  49:Generated_Source\PSoC4/UART_SPI_UART.c **** #if(UART_INTERNAL_RX_SW_BUFFER)
  50:Generated_Source\PSoC4/UART_SPI_UART.c ****     /* Add one element to the buffer to receive full packet. One byte in receive buffer is always e
  51:Generated_Source\PSoC4/UART_SPI_UART.c ****     volatile uint8 UART_rxBufferInternal[UART_INTERNAL_RX_BUFFER_SIZE];
  52:Generated_Source\PSoC4/UART_SPI_UART.c **** #endif /* (UART_INTERNAL_RX_SW_BUFFER) */
  53:Generated_Source\PSoC4/UART_SPI_UART.c **** 
  54:Generated_Source\PSoC4/UART_SPI_UART.c **** #if(UART_INTERNAL_TX_SW_BUFFER)
  55:Generated_Source\PSoC4/UART_SPI_UART.c ****     volatile uint8 UART_txBufferInternal[UART_TX_BUFFER_SIZE];
  56:Generated_Source\PSoC4/UART_SPI_UART.c **** #endif /* (UART_INTERNAL_TX_SW_BUFFER) */
  57:Generated_Source\PSoC4/UART_SPI_UART.c **** 
  58:Generated_Source\PSoC4/UART_SPI_UART.c **** 
  59:Generated_Source\PSoC4/UART_SPI_UART.c **** #if(UART_RX_DIRECTION)
  60:Generated_Source\PSoC4/UART_SPI_UART.c ****     /*******************************************************************************
  61:Generated_Source\PSoC4/UART_SPI_UART.c ****     * Function Name: UART_SpiUartReadRxData
  62:Generated_Source\PSoC4/UART_SPI_UART.c ****     ****************************************************************************//**
  63:Generated_Source\PSoC4/UART_SPI_UART.c ****     *
  64:Generated_Source\PSoC4/UART_SPI_UART.c ****     *  Retrieves the next data element from the receive buffer.
  65:Generated_Source\PSoC4/UART_SPI_UART.c ****     *   - RX software buffer is disabled: Returns data element retrieved from
  66:Generated_Source\PSoC4/UART_SPI_UART.c ****     *     RX FIFO. Undefined data will be returned if the RX FIFO is empty.
  67:Generated_Source\PSoC4/UART_SPI_UART.c ****     *   - RX software buffer is enabled: Returns data element from the software
  68:Generated_Source\PSoC4/UART_SPI_UART.c ****     *     receive buffer. Zero value is returned if the software receive buffer
  69:Generated_Source\PSoC4/UART_SPI_UART.c ****     *     is empty.
  70:Generated_Source\PSoC4/UART_SPI_UART.c ****     *
  71:Generated_Source\PSoC4/UART_SPI_UART.c ****     * \return
  72:Generated_Source\PSoC4/UART_SPI_UART.c ****     *  Next data element from the receive buffer. 
  73:Generated_Source\PSoC4/UART_SPI_UART.c ****     *  The amount of data bits to be received depends on RX data bits selection 
  74:Generated_Source\PSoC4/UART_SPI_UART.c ****     *  (the data bit counting starts from LSB of return value).
  75:Generated_Source\PSoC4/UART_SPI_UART.c ****     *
  76:Generated_Source\PSoC4/UART_SPI_UART.c ****     * \globalvars
  77:Generated_Source\PSoC4/UART_SPI_UART.c ****     *  UART_rxBufferHead - the start index to put data into the 
  78:Generated_Source\PSoC4/UART_SPI_UART.c ****     *  software receive buffer.
  79:Generated_Source\PSoC4/UART_SPI_UART.c ****     *  UART_rxBufferTail - the start index to get data from the 
  80:Generated_Source\PSoC4/UART_SPI_UART.c ****     *  software receive buffer.
  81:Generated_Source\PSoC4/UART_SPI_UART.c ****     *
  82:Generated_Source\PSoC4/UART_SPI_UART.c ****     *******************************************************************************/
  83:Generated_Source\PSoC4/UART_SPI_UART.c ****     uint32 UART_SpiUartReadRxData(void)
ARM GAS  C:\Users\Daniela\AppData\Local\Temp\ccWaZ5AR.s 			page 31


  84:Generated_Source\PSoC4/UART_SPI_UART.c ****     {
 433              		.loc 1 84 0
 434              		.cfi_startproc
 435              		@ args = 0, pretend = 0, frame = 0
 436              		@ frame_needed = 0, uses_anonymous_args = 0
 437              		@ link register save eliminated.
 438              	.LVL0:
  85:Generated_Source\PSoC4/UART_SPI_UART.c ****         uint32 rxData = 0u;
  86:Generated_Source\PSoC4/UART_SPI_UART.c **** 
  87:Generated_Source\PSoC4/UART_SPI_UART.c ****     #if (UART_INTERNAL_RX_SW_BUFFER_CONST)
  88:Generated_Source\PSoC4/UART_SPI_UART.c ****         uint32 locTail;
  89:Generated_Source\PSoC4/UART_SPI_UART.c ****     #endif /* (UART_INTERNAL_RX_SW_BUFFER_CONST) */
  90:Generated_Source\PSoC4/UART_SPI_UART.c **** 
  91:Generated_Source\PSoC4/UART_SPI_UART.c ****         #if (UART_CHECK_RX_SW_BUFFER)
  92:Generated_Source\PSoC4/UART_SPI_UART.c ****         {
  93:Generated_Source\PSoC4/UART_SPI_UART.c ****             if (UART_rxBufferHead != UART_rxBufferTail)
  94:Generated_Source\PSoC4/UART_SPI_UART.c ****             {
  95:Generated_Source\PSoC4/UART_SPI_UART.c ****                 /* There is data in RX software buffer */
  96:Generated_Source\PSoC4/UART_SPI_UART.c **** 
  97:Generated_Source\PSoC4/UART_SPI_UART.c ****                 /* Calculate index to read from */
  98:Generated_Source\PSoC4/UART_SPI_UART.c ****                 locTail = (UART_rxBufferTail + 1u);
  99:Generated_Source\PSoC4/UART_SPI_UART.c **** 
 100:Generated_Source\PSoC4/UART_SPI_UART.c ****                 if (UART_INTERNAL_RX_BUFFER_SIZE == locTail)
 101:Generated_Source\PSoC4/UART_SPI_UART.c ****                 {
 102:Generated_Source\PSoC4/UART_SPI_UART.c ****                     locTail = 0u;
 103:Generated_Source\PSoC4/UART_SPI_UART.c ****                 }
 104:Generated_Source\PSoC4/UART_SPI_UART.c **** 
 105:Generated_Source\PSoC4/UART_SPI_UART.c ****                 /* Get data from RX software buffer */
 106:Generated_Source\PSoC4/UART_SPI_UART.c ****                 rxData = UART_GetWordFromRxBuffer(locTail);
 107:Generated_Source\PSoC4/UART_SPI_UART.c **** 
 108:Generated_Source\PSoC4/UART_SPI_UART.c ****                 /* Change index in the buffer */
 109:Generated_Source\PSoC4/UART_SPI_UART.c ****                 UART_rxBufferTail = locTail;
 110:Generated_Source\PSoC4/UART_SPI_UART.c **** 
 111:Generated_Source\PSoC4/UART_SPI_UART.c ****                 #if (UART_CHECK_UART_RTS_CONTROL_FLOW)
 112:Generated_Source\PSoC4/UART_SPI_UART.c ****                 {
 113:Generated_Source\PSoC4/UART_SPI_UART.c ****                     /* Check if RX Not Empty is disabled in the interrupt */
 114:Generated_Source\PSoC4/UART_SPI_UART.c ****                     if (0u == (UART_INTR_RX_MASK_REG & UART_INTR_RX_NOT_EMPTY))
 115:Generated_Source\PSoC4/UART_SPI_UART.c ****                     {
 116:Generated_Source\PSoC4/UART_SPI_UART.c ****                         /* Enable RX Not Empty interrupt source to continue
 117:Generated_Source\PSoC4/UART_SPI_UART.c ****                         * receiving data into software buffer.
 118:Generated_Source\PSoC4/UART_SPI_UART.c ****                         */
 119:Generated_Source\PSoC4/UART_SPI_UART.c ****                         UART_INTR_RX_MASK_REG |= UART_INTR_RX_NOT_EMPTY;
 120:Generated_Source\PSoC4/UART_SPI_UART.c ****                     }
 121:Generated_Source\PSoC4/UART_SPI_UART.c ****                 }
 122:Generated_Source\PSoC4/UART_SPI_UART.c ****                 #endif
 123:Generated_Source\PSoC4/UART_SPI_UART.c **** 
 124:Generated_Source\PSoC4/UART_SPI_UART.c ****             }
 125:Generated_Source\PSoC4/UART_SPI_UART.c ****         }
 126:Generated_Source\PSoC4/UART_SPI_UART.c ****         #else
 127:Generated_Source\PSoC4/UART_SPI_UART.c ****         {
 128:Generated_Source\PSoC4/UART_SPI_UART.c ****             /* Read data from RX FIFO */
 129:Generated_Source\PSoC4/UART_SPI_UART.c ****             rxData = UART_RX_FIFO_RD_REG;
 439              		.loc 1 129 0
 440 0000 014B     		ldr	r3, .L2
 130:Generated_Source\PSoC4/UART_SPI_UART.c ****         }
 131:Generated_Source\PSoC4/UART_SPI_UART.c ****         #endif
 132:Generated_Source\PSoC4/UART_SPI_UART.c **** 
ARM GAS  C:\Users\Daniela\AppData\Local\Temp\ccWaZ5AR.s 			page 32


 133:Generated_Source\PSoC4/UART_SPI_UART.c ****         return (rxData);
 134:Generated_Source\PSoC4/UART_SPI_UART.c ****     }
 441              		.loc 1 134 0
 442              		@ sp needed
 129:Generated_Source\PSoC4/UART_SPI_UART.c ****         }
 443              		.loc 1 129 0
 444 0002 1868     		ldr	r0, [r3]
 445              	.LVL1:
 446              		.loc 1 134 0
 447 0004 7047     		bx	lr
 448              	.L3:
 449 0006 C046     		.align	2
 450              	.L2:
 451 0008 40032440 		.word	1076101952
 452              		.cfi_endproc
 453              	.LFE2:
 454              		.size	UART_SpiUartReadRxData, .-UART_SpiUartReadRxData
 455              		.section	.text.UART_SpiUartGetRxBufferSize,"ax",%progbits
 456              		.align	2
 457              		.global	UART_SpiUartGetRxBufferSize
 458              		.code	16
 459              		.thumb_func
 460              		.type	UART_SpiUartGetRxBufferSize, %function
 461              	UART_SpiUartGetRxBufferSize:
 462              	.LFB3:
 135:Generated_Source\PSoC4/UART_SPI_UART.c **** 
 136:Generated_Source\PSoC4/UART_SPI_UART.c **** 
 137:Generated_Source\PSoC4/UART_SPI_UART.c ****     /*******************************************************************************
 138:Generated_Source\PSoC4/UART_SPI_UART.c ****     * Function Name: UART_SpiUartGetRxBufferSize
 139:Generated_Source\PSoC4/UART_SPI_UART.c ****     ****************************************************************************//**
 140:Generated_Source\PSoC4/UART_SPI_UART.c ****     *
 141:Generated_Source\PSoC4/UART_SPI_UART.c ****     *  Returns the number of received data elements in the receive buffer.
 142:Generated_Source\PSoC4/UART_SPI_UART.c ****     *   - RX software buffer disabled: returns the number of used entries in
 143:Generated_Source\PSoC4/UART_SPI_UART.c ****     *     RX FIFO.
 144:Generated_Source\PSoC4/UART_SPI_UART.c ****     *   - RX software buffer enabled: returns the number of elements which were
 145:Generated_Source\PSoC4/UART_SPI_UART.c ****     *     placed in the receive buffer. This does not include the hardware RX FIFO.
 146:Generated_Source\PSoC4/UART_SPI_UART.c ****     *
 147:Generated_Source\PSoC4/UART_SPI_UART.c ****     * \return
 148:Generated_Source\PSoC4/UART_SPI_UART.c ****     *  Number of received data elements.
 149:Generated_Source\PSoC4/UART_SPI_UART.c ****     *
 150:Generated_Source\PSoC4/UART_SPI_UART.c ****     * \globalvars
 151:Generated_Source\PSoC4/UART_SPI_UART.c ****     *  UART_rxBufferHead - the start index to put data into the 
 152:Generated_Source\PSoC4/UART_SPI_UART.c ****     *  software receive buffer.
 153:Generated_Source\PSoC4/UART_SPI_UART.c ****     *  UART_rxBufferTail - the start index to get data from the 
 154:Generated_Source\PSoC4/UART_SPI_UART.c ****     *  software receive buffer.
 155:Generated_Source\PSoC4/UART_SPI_UART.c ****     *
 156:Generated_Source\PSoC4/UART_SPI_UART.c ****     *******************************************************************************/
 157:Generated_Source\PSoC4/UART_SPI_UART.c ****     uint32 UART_SpiUartGetRxBufferSize(void)
 158:Generated_Source\PSoC4/UART_SPI_UART.c ****     {
 463              		.loc 1 158 0
 464              		.cfi_startproc
 465              		@ args = 0, pretend = 0, frame = 0
 466              		@ frame_needed = 0, uses_anonymous_args = 0
 467              		@ link register save eliminated.
 159:Generated_Source\PSoC4/UART_SPI_UART.c ****         uint32 size;
 160:Generated_Source\PSoC4/UART_SPI_UART.c ****     #if (UART_INTERNAL_RX_SW_BUFFER_CONST)
 161:Generated_Source\PSoC4/UART_SPI_UART.c ****         uint32 locHead;
ARM GAS  C:\Users\Daniela\AppData\Local\Temp\ccWaZ5AR.s 			page 33


 162:Generated_Source\PSoC4/UART_SPI_UART.c ****     #endif /* (UART_INTERNAL_RX_SW_BUFFER_CONST) */
 163:Generated_Source\PSoC4/UART_SPI_UART.c **** 
 164:Generated_Source\PSoC4/UART_SPI_UART.c ****         #if (UART_CHECK_RX_SW_BUFFER)
 165:Generated_Source\PSoC4/UART_SPI_UART.c ****         {
 166:Generated_Source\PSoC4/UART_SPI_UART.c ****             locHead = UART_rxBufferHead;
 167:Generated_Source\PSoC4/UART_SPI_UART.c **** 
 168:Generated_Source\PSoC4/UART_SPI_UART.c ****             if(locHead >= UART_rxBufferTail)
 169:Generated_Source\PSoC4/UART_SPI_UART.c ****             {
 170:Generated_Source\PSoC4/UART_SPI_UART.c ****                 size = (locHead - UART_rxBufferTail);
 171:Generated_Source\PSoC4/UART_SPI_UART.c ****             }
 172:Generated_Source\PSoC4/UART_SPI_UART.c ****             else
 173:Generated_Source\PSoC4/UART_SPI_UART.c ****             {
 174:Generated_Source\PSoC4/UART_SPI_UART.c ****                 size = (locHead + (UART_INTERNAL_RX_BUFFER_SIZE - UART_rxBufferTail));
 175:Generated_Source\PSoC4/UART_SPI_UART.c ****             }
 176:Generated_Source\PSoC4/UART_SPI_UART.c ****         }
 177:Generated_Source\PSoC4/UART_SPI_UART.c ****         #else
 178:Generated_Source\PSoC4/UART_SPI_UART.c ****         {
 179:Generated_Source\PSoC4/UART_SPI_UART.c ****             size = UART_GET_RX_FIFO_ENTRIES;
 180:Generated_Source\PSoC4/UART_SPI_UART.c ****         }
 181:Generated_Source\PSoC4/UART_SPI_UART.c ****         #endif
 182:Generated_Source\PSoC4/UART_SPI_UART.c **** 
 183:Generated_Source\PSoC4/UART_SPI_UART.c ****         return (size);
 468              		.loc 1 183 0
 469 0000 1F20     		movs	r0, #31
 179:Generated_Source\PSoC4/UART_SPI_UART.c ****         }
 470              		.loc 1 179 0
 471 0002 024B     		ldr	r3, .L5
 184:Generated_Source\PSoC4/UART_SPI_UART.c ****     }
 472              		.loc 1 184 0
 473              		@ sp needed
 179:Generated_Source\PSoC4/UART_SPI_UART.c ****         }
 474              		.loc 1 179 0
 475 0004 1B68     		ldr	r3, [r3]
 476              	.LVL2:
 183:Generated_Source\PSoC4/UART_SPI_UART.c ****     }
 477              		.loc 1 183 0
 478 0006 1840     		ands	r0, r3
 479              	.LVL3:
 480              		.loc 1 184 0
 481 0008 7047     		bx	lr
 482              	.L6:
 483 000a C046     		.align	2
 484              	.L5:
 485 000c 08032440 		.word	1076101896
 486              		.cfi_endproc
 487              	.LFE3:
 488              		.size	UART_SpiUartGetRxBufferSize, .-UART_SpiUartGetRxBufferSize
 489              		.section	.text.UART_SpiUartClearRxBuffer,"ax",%progbits
 490              		.align	2
 491              		.global	UART_SpiUartClearRxBuffer
 492              		.code	16
 493              		.thumb_func
 494              		.type	UART_SpiUartClearRxBuffer, %function
 495              	UART_SpiUartClearRxBuffer:
 496              	.LFB4:
 185:Generated_Source\PSoC4/UART_SPI_UART.c **** 
 186:Generated_Source\PSoC4/UART_SPI_UART.c **** 
ARM GAS  C:\Users\Daniela\AppData\Local\Temp\ccWaZ5AR.s 			page 34


 187:Generated_Source\PSoC4/UART_SPI_UART.c ****     /*******************************************************************************
 188:Generated_Source\PSoC4/UART_SPI_UART.c ****     * Function Name: UART_SpiUartClearRxBuffer
 189:Generated_Source\PSoC4/UART_SPI_UART.c ****     ****************************************************************************//**
 190:Generated_Source\PSoC4/UART_SPI_UART.c ****     *
 191:Generated_Source\PSoC4/UART_SPI_UART.c ****     *  Clears the receive buffer and RX FIFO.
 192:Generated_Source\PSoC4/UART_SPI_UART.c ****     *
 193:Generated_Source\PSoC4/UART_SPI_UART.c ****     * \globalvars
 194:Generated_Source\PSoC4/UART_SPI_UART.c ****     *  UART_rxBufferHead - the start index to put data into the 
 195:Generated_Source\PSoC4/UART_SPI_UART.c ****     *  software receive buffer.
 196:Generated_Source\PSoC4/UART_SPI_UART.c ****     *  UART_rxBufferTail - the start index to get data from the 
 197:Generated_Source\PSoC4/UART_SPI_UART.c ****     *  software receive buffer.
 198:Generated_Source\PSoC4/UART_SPI_UART.c ****     *
 199:Generated_Source\PSoC4/UART_SPI_UART.c ****     *******************************************************************************/
 200:Generated_Source\PSoC4/UART_SPI_UART.c ****     void UART_SpiUartClearRxBuffer(void)
 201:Generated_Source\PSoC4/UART_SPI_UART.c ****     {
 497              		.loc 1 201 0
 498              		.cfi_startproc
 499              		@ args = 0, pretend = 0, frame = 0
 500              		@ frame_needed = 0, uses_anonymous_args = 0
 501              		@ link register save eliminated.
 202:Generated_Source\PSoC4/UART_SPI_UART.c ****         #if (UART_CHECK_RX_SW_BUFFER)
 203:Generated_Source\PSoC4/UART_SPI_UART.c ****         {
 204:Generated_Source\PSoC4/UART_SPI_UART.c ****             /* Lock from component interruption */
 205:Generated_Source\PSoC4/UART_SPI_UART.c ****             UART_DisableInt();
 206:Generated_Source\PSoC4/UART_SPI_UART.c **** 
 207:Generated_Source\PSoC4/UART_SPI_UART.c ****             /* Flush RX software buffer */
 208:Generated_Source\PSoC4/UART_SPI_UART.c ****             UART_rxBufferHead = UART_rxBufferTail;
 209:Generated_Source\PSoC4/UART_SPI_UART.c ****             UART_rxBufferOverflow = 0u;
 210:Generated_Source\PSoC4/UART_SPI_UART.c **** 
 211:Generated_Source\PSoC4/UART_SPI_UART.c ****             UART_CLEAR_RX_FIFO;
 212:Generated_Source\PSoC4/UART_SPI_UART.c ****             UART_ClearRxInterruptSource(UART_INTR_RX_ALL);
 213:Generated_Source\PSoC4/UART_SPI_UART.c **** 
 214:Generated_Source\PSoC4/UART_SPI_UART.c ****             #if (UART_CHECK_UART_RTS_CONTROL_FLOW)
 215:Generated_Source\PSoC4/UART_SPI_UART.c ****             {
 216:Generated_Source\PSoC4/UART_SPI_UART.c ****                 /* Enable RX Not Empty interrupt source to continue receiving
 217:Generated_Source\PSoC4/UART_SPI_UART.c ****                 * data into software buffer.
 218:Generated_Source\PSoC4/UART_SPI_UART.c ****                 */
 219:Generated_Source\PSoC4/UART_SPI_UART.c ****                 UART_INTR_RX_MASK_REG |= UART_INTR_RX_NOT_EMPTY;
 220:Generated_Source\PSoC4/UART_SPI_UART.c ****             }
 221:Generated_Source\PSoC4/UART_SPI_UART.c ****             #endif
 222:Generated_Source\PSoC4/UART_SPI_UART.c ****             
 223:Generated_Source\PSoC4/UART_SPI_UART.c ****             /* Release lock */
 224:Generated_Source\PSoC4/UART_SPI_UART.c ****             UART_EnableInt();
 225:Generated_Source\PSoC4/UART_SPI_UART.c ****         }
 226:Generated_Source\PSoC4/UART_SPI_UART.c ****         #else
 227:Generated_Source\PSoC4/UART_SPI_UART.c ****         {
 228:Generated_Source\PSoC4/UART_SPI_UART.c ****             UART_CLEAR_RX_FIFO;
 502              		.loc 1 228 0
 503 0000 8021     		movs	r1, #128
 504 0002 054B     		ldr	r3, .L8
 505 0004 4902     		lsls	r1, r1, #9
 506 0006 1A68     		ldr	r2, [r3]
 229:Generated_Source\PSoC4/UART_SPI_UART.c ****         }
 230:Generated_Source\PSoC4/UART_SPI_UART.c ****         #endif
 231:Generated_Source\PSoC4/UART_SPI_UART.c ****     }
 507              		.loc 1 231 0
 508              		@ sp needed
ARM GAS  C:\Users\Daniela\AppData\Local\Temp\ccWaZ5AR.s 			page 35


 228:Generated_Source\PSoC4/UART_SPI_UART.c ****         }
 509              		.loc 1 228 0
 510 0008 0A43     		orrs	r2, r1
 511 000a 1A60     		str	r2, [r3]
 512 000c 1968     		ldr	r1, [r3]
 513 000e 034A     		ldr	r2, .L8+4
 514 0010 0A40     		ands	r2, r1
 515 0012 1A60     		str	r2, [r3]
 516              		.loc 1 231 0
 517 0014 7047     		bx	lr
 518              	.L9:
 519 0016 C046     		.align	2
 520              	.L8:
 521 0018 04032440 		.word	1076101892
 522 001c FFFFFEFF 		.word	-65537
 523              		.cfi_endproc
 524              	.LFE4:
 525              		.size	UART_SpiUartClearRxBuffer, .-UART_SpiUartClearRxBuffer
 526              		.section	.text.UART_SpiUartWriteTxData,"ax",%progbits
 527              		.align	2
 528              		.global	UART_SpiUartWriteTxData
 529              		.code	16
 530              		.thumb_func
 531              		.type	UART_SpiUartWriteTxData, %function
 532              	UART_SpiUartWriteTxData:
 533              	.LFB5:
 232:Generated_Source\PSoC4/UART_SPI_UART.c **** 
 233:Generated_Source\PSoC4/UART_SPI_UART.c **** #endif /* (UART_RX_DIRECTION) */
 234:Generated_Source\PSoC4/UART_SPI_UART.c **** 
 235:Generated_Source\PSoC4/UART_SPI_UART.c **** 
 236:Generated_Source\PSoC4/UART_SPI_UART.c **** #if(UART_TX_DIRECTION)
 237:Generated_Source\PSoC4/UART_SPI_UART.c ****     /*******************************************************************************
 238:Generated_Source\PSoC4/UART_SPI_UART.c ****     * Function Name: UART_SpiUartWriteTxData
 239:Generated_Source\PSoC4/UART_SPI_UART.c ****     ****************************************************************************//**
 240:Generated_Source\PSoC4/UART_SPI_UART.c ****     *
 241:Generated_Source\PSoC4/UART_SPI_UART.c ****     *  Places a data entry into the transmit buffer to be sent at the next available
 242:Generated_Source\PSoC4/UART_SPI_UART.c ****     *  bus time.
 243:Generated_Source\PSoC4/UART_SPI_UART.c ****     *  This function is blocking and waits until there is space available to put the
 244:Generated_Source\PSoC4/UART_SPI_UART.c ****     *  requested data in the transmit buffer.
 245:Generated_Source\PSoC4/UART_SPI_UART.c ****     *
 246:Generated_Source\PSoC4/UART_SPI_UART.c ****     *  \param txDataByte: the data to be transmitted.
 247:Generated_Source\PSoC4/UART_SPI_UART.c ****     *   The amount of data bits to be transmitted depends on TX data bits selection 
 248:Generated_Source\PSoC4/UART_SPI_UART.c ****     *   (the data bit counting starts from LSB of txDataByte).
 249:Generated_Source\PSoC4/UART_SPI_UART.c ****     *
 250:Generated_Source\PSoC4/UART_SPI_UART.c ****     * \globalvars
 251:Generated_Source\PSoC4/UART_SPI_UART.c ****     *  UART_txBufferHead - the start index to put data into the 
 252:Generated_Source\PSoC4/UART_SPI_UART.c ****     *  software transmit buffer.
 253:Generated_Source\PSoC4/UART_SPI_UART.c ****     *  UART_txBufferTail - start index to get data from the software
 254:Generated_Source\PSoC4/UART_SPI_UART.c ****     *  transmit buffer.
 255:Generated_Source\PSoC4/UART_SPI_UART.c ****     *
 256:Generated_Source\PSoC4/UART_SPI_UART.c ****     *******************************************************************************/
 257:Generated_Source\PSoC4/UART_SPI_UART.c ****     void UART_SpiUartWriteTxData(uint32 txData)
 258:Generated_Source\PSoC4/UART_SPI_UART.c ****     {
 534              		.loc 1 258 0
 535              		.cfi_startproc
 536              		@ args = 0, pretend = 0, frame = 0
 537              		@ frame_needed = 0, uses_anonymous_args = 0
ARM GAS  C:\Users\Daniela\AppData\Local\Temp\ccWaZ5AR.s 			page 36


 538              		@ link register save eliminated.
 539              	.LVL4:
 259:Generated_Source\PSoC4/UART_SPI_UART.c ****     #if (UART_INTERNAL_TX_SW_BUFFER_CONST)
 260:Generated_Source\PSoC4/UART_SPI_UART.c ****         uint32 locHead;
 261:Generated_Source\PSoC4/UART_SPI_UART.c ****     #endif /* (UART_INTERNAL_TX_SW_BUFFER_CONST) */
 262:Generated_Source\PSoC4/UART_SPI_UART.c **** 
 263:Generated_Source\PSoC4/UART_SPI_UART.c ****         #if (UART_CHECK_TX_SW_BUFFER)
 264:Generated_Source\PSoC4/UART_SPI_UART.c ****         {
 265:Generated_Source\PSoC4/UART_SPI_UART.c ****             /* Put data directly into the TX FIFO */
 266:Generated_Source\PSoC4/UART_SPI_UART.c ****             if ((UART_txBufferHead == UART_txBufferTail) &&
 267:Generated_Source\PSoC4/UART_SPI_UART.c ****                 (UART_SPI_UART_FIFO_SIZE != UART_GET_TX_FIFO_ENTRIES))
 268:Generated_Source\PSoC4/UART_SPI_UART.c ****             {
 269:Generated_Source\PSoC4/UART_SPI_UART.c ****                 /* TX software buffer is empty: put data directly in TX FIFO */
 270:Generated_Source\PSoC4/UART_SPI_UART.c ****                 UART_TX_FIFO_WR_REG = txData;
 271:Generated_Source\PSoC4/UART_SPI_UART.c ****             }
 272:Generated_Source\PSoC4/UART_SPI_UART.c ****             /* Put data into TX software buffer */
 273:Generated_Source\PSoC4/UART_SPI_UART.c ****             else
 274:Generated_Source\PSoC4/UART_SPI_UART.c ****             {
 275:Generated_Source\PSoC4/UART_SPI_UART.c ****                 /* Head index to put data */
 276:Generated_Source\PSoC4/UART_SPI_UART.c ****                 locHead = (UART_txBufferHead + 1u);
 277:Generated_Source\PSoC4/UART_SPI_UART.c **** 
 278:Generated_Source\PSoC4/UART_SPI_UART.c ****                 /* Adjust TX software buffer index */
 279:Generated_Source\PSoC4/UART_SPI_UART.c ****                 if (UART_TX_BUFFER_SIZE == locHead)
 280:Generated_Source\PSoC4/UART_SPI_UART.c ****                 {
 281:Generated_Source\PSoC4/UART_SPI_UART.c ****                     locHead = 0u;
 282:Generated_Source\PSoC4/UART_SPI_UART.c ****                 }
 283:Generated_Source\PSoC4/UART_SPI_UART.c **** 
 284:Generated_Source\PSoC4/UART_SPI_UART.c ****                 /* Wait for space in TX software buffer */
 285:Generated_Source\PSoC4/UART_SPI_UART.c ****                 while (locHead == UART_txBufferTail)
 286:Generated_Source\PSoC4/UART_SPI_UART.c ****                 {
 287:Generated_Source\PSoC4/UART_SPI_UART.c ****                 }
 288:Generated_Source\PSoC4/UART_SPI_UART.c **** 
 289:Generated_Source\PSoC4/UART_SPI_UART.c ****                 /* TX software buffer has at least one room */
 290:Generated_Source\PSoC4/UART_SPI_UART.c **** 
 291:Generated_Source\PSoC4/UART_SPI_UART.c ****                 /* Clear old status of INTR_TX_NOT_FULL. It sets at the end of transfer when TX FIF
 292:Generated_Source\PSoC4/UART_SPI_UART.c ****                 UART_ClearTxInterruptSource(UART_INTR_TX_NOT_FULL);
 293:Generated_Source\PSoC4/UART_SPI_UART.c **** 
 294:Generated_Source\PSoC4/UART_SPI_UART.c ****                 UART_PutWordInTxBuffer(locHead, txData);
 295:Generated_Source\PSoC4/UART_SPI_UART.c **** 
 296:Generated_Source\PSoC4/UART_SPI_UART.c ****                 UART_txBufferHead = locHead;
 297:Generated_Source\PSoC4/UART_SPI_UART.c **** 
 298:Generated_Source\PSoC4/UART_SPI_UART.c ****                 /* Check if TX Not Full is disabled in interrupt */
 299:Generated_Source\PSoC4/UART_SPI_UART.c ****                 if (0u == (UART_INTR_TX_MASK_REG & UART_INTR_TX_NOT_FULL))
 300:Generated_Source\PSoC4/UART_SPI_UART.c ****                 {
 301:Generated_Source\PSoC4/UART_SPI_UART.c ****                     /* Enable TX Not Full interrupt source to transmit from software buffer */
 302:Generated_Source\PSoC4/UART_SPI_UART.c ****                     UART_INTR_TX_MASK_REG |= (uint32) UART_INTR_TX_NOT_FULL;
 303:Generated_Source\PSoC4/UART_SPI_UART.c ****                 }
 304:Generated_Source\PSoC4/UART_SPI_UART.c ****             }
 305:Generated_Source\PSoC4/UART_SPI_UART.c ****         }
 306:Generated_Source\PSoC4/UART_SPI_UART.c ****         #else
 307:Generated_Source\PSoC4/UART_SPI_UART.c ****         {
 308:Generated_Source\PSoC4/UART_SPI_UART.c ****             /* Wait until TX FIFO has space to put data element */
 309:Generated_Source\PSoC4/UART_SPI_UART.c ****             while (UART_SPI_UART_FIFO_SIZE == UART_GET_TX_FIFO_ENTRIES)
 540              		.loc 1 309 0
 541 0000 1F22     		movs	r2, #31
 542 0002 0449     		ldr	r1, .L15
 543              	.L11:
ARM GAS  C:\Users\Daniela\AppData\Local\Temp\ccWaZ5AR.s 			page 37


 544              		.loc 1 309 0 is_stmt 0 discriminator 1
 545 0004 0B68     		ldr	r3, [r1]
 546 0006 1340     		ands	r3, r2
 547 0008 082B     		cmp	r3, #8
 548 000a FBD0     		beq	.L11
 310:Generated_Source\PSoC4/UART_SPI_UART.c ****             {
 311:Generated_Source\PSoC4/UART_SPI_UART.c ****             }
 312:Generated_Source\PSoC4/UART_SPI_UART.c **** 
 313:Generated_Source\PSoC4/UART_SPI_UART.c ****             UART_TX_FIFO_WR_REG = txData;
 549              		.loc 1 313 0 is_stmt 1
 550 000c 024B     		ldr	r3, .L15+4
 314:Generated_Source\PSoC4/UART_SPI_UART.c ****         }
 315:Generated_Source\PSoC4/UART_SPI_UART.c ****         #endif
 316:Generated_Source\PSoC4/UART_SPI_UART.c ****     }
 551              		.loc 1 316 0
 552              		@ sp needed
 313:Generated_Source\PSoC4/UART_SPI_UART.c ****         }
 553              		.loc 1 313 0
 554 000e 1860     		str	r0, [r3]
 555              		.loc 1 316 0
 556 0010 7047     		bx	lr
 557              	.L16:
 558 0012 C046     		.align	2
 559              	.L15:
 560 0014 08022440 		.word	1076101640
 561 0018 40022440 		.word	1076101696
 562              		.cfi_endproc
 563              	.LFE5:
 564              		.size	UART_SpiUartWriteTxData, .-UART_SpiUartWriteTxData
 565              		.section	.text.UART_SpiUartPutArray,"ax",%progbits
 566              		.align	2
 567              		.global	UART_SpiUartPutArray
 568              		.code	16
 569              		.thumb_func
 570              		.type	UART_SpiUartPutArray, %function
 571              	UART_SpiUartPutArray:
 572              	.LFB6:
 317:Generated_Source\PSoC4/UART_SPI_UART.c **** 
 318:Generated_Source\PSoC4/UART_SPI_UART.c **** 
 319:Generated_Source\PSoC4/UART_SPI_UART.c ****     /*******************************************************************************
 320:Generated_Source\PSoC4/UART_SPI_UART.c ****     * Function Name: UART_SpiUartPutArray
 321:Generated_Source\PSoC4/UART_SPI_UART.c ****     ****************************************************************************//**
 322:Generated_Source\PSoC4/UART_SPI_UART.c ****     *
 323:Generated_Source\PSoC4/UART_SPI_UART.c ****     *  Places an array of data into the transmit buffer to be sent.
 324:Generated_Source\PSoC4/UART_SPI_UART.c ****     *  This function is blocking and waits until there is a space available to put
 325:Generated_Source\PSoC4/UART_SPI_UART.c ****     *  all the requested data in the transmit buffer. The array size can be greater
 326:Generated_Source\PSoC4/UART_SPI_UART.c ****     *  than transmit buffer size.
 327:Generated_Source\PSoC4/UART_SPI_UART.c ****     *
 328:Generated_Source\PSoC4/UART_SPI_UART.c ****     * \param wrBuf: pointer to an array of data to be placed in transmit buffer. 
 329:Generated_Source\PSoC4/UART_SPI_UART.c ****     *  The width of the data to be transmitted depends on TX data width selection 
 330:Generated_Source\PSoC4/UART_SPI_UART.c ****     *  (the data bit counting starts from LSB for each array element).
 331:Generated_Source\PSoC4/UART_SPI_UART.c ****     * \param count: number of data elements to be placed in the transmit buffer.
 332:Generated_Source\PSoC4/UART_SPI_UART.c ****     *
 333:Generated_Source\PSoC4/UART_SPI_UART.c ****     * \globalvars
 334:Generated_Source\PSoC4/UART_SPI_UART.c ****     *  UART_txBufferHead - the start index to put data into the 
 335:Generated_Source\PSoC4/UART_SPI_UART.c ****     *  software transmit buffer.
 336:Generated_Source\PSoC4/UART_SPI_UART.c ****     *  UART_txBufferTail - start index to get data from the software
ARM GAS  C:\Users\Daniela\AppData\Local\Temp\ccWaZ5AR.s 			page 38


 337:Generated_Source\PSoC4/UART_SPI_UART.c ****     *  transmit buffer.
 338:Generated_Source\PSoC4/UART_SPI_UART.c ****     *
 339:Generated_Source\PSoC4/UART_SPI_UART.c ****     *******************************************************************************/
 340:Generated_Source\PSoC4/UART_SPI_UART.c ****     void UART_SpiUartPutArray(const uint8 wrBuf[], uint32 count)
 341:Generated_Source\PSoC4/UART_SPI_UART.c ****     {
 573              		.loc 1 341 0
 574              		.cfi_startproc
 575              		@ args = 0, pretend = 0, frame = 0
 576              		@ frame_needed = 0, uses_anonymous_args = 0
 577              	.LVL5:
 578 0000 70B5     		push	{r4, r5, r6, lr}
 579              		.cfi_def_cfa_offset 16
 580              		.cfi_offset 4, -16
 581              		.cfi_offset 5, -12
 582              		.cfi_offset 6, -8
 583              		.cfi_offset 14, -4
 584 0002 4618     		adds	r6, r0, r1
 342:Generated_Source\PSoC4/UART_SPI_UART.c ****         uint32 i;
 343:Generated_Source\PSoC4/UART_SPI_UART.c **** 
 344:Generated_Source\PSoC4/UART_SPI_UART.c ****         for (i=0u; i < count; i++)
 585              		.loc 1 344 0
 586 0004 0029     		cmp	r1, #0
 587 0006 0BD0     		beq	.L17
 588              	.LBB4:
 589              	.LBB5:
 309:Generated_Source\PSoC4/UART_SPI_UART.c ****             {
 590              		.loc 1 309 0 discriminator 3
 591 0008 1F22     		movs	r2, #31
 592 000a 0649     		ldr	r1, .L26
 593              	.LVL6:
 313:Generated_Source\PSoC4/UART_SPI_UART.c ****         }
 594              		.loc 1 313 0 discriminator 3
 595 000c 064D     		ldr	r5, .L26+4
 596              	.LVL7:
 597              	.L23:
 598              	.LBE5:
 599              	.LBE4:
 345:Generated_Source\PSoC4/UART_SPI_UART.c ****         {
 346:Generated_Source\PSoC4/UART_SPI_UART.c ****             UART_SpiUartWriteTxData((uint32) wrBuf[i]);
 600              		.loc 1 346 0 discriminator 3
 601 000e 0478     		ldrb	r4, [r0]
 602              	.LVL8:
 603              	.L19:
 604              	.LBB7:
 605              	.LBB6:
 309:Generated_Source\PSoC4/UART_SPI_UART.c ****             {
 606              		.loc 1 309 0
 607 0010 0B68     		ldr	r3, [r1]
 608 0012 1340     		ands	r3, r2
 609 0014 082B     		cmp	r3, #8
 610 0016 FBD0     		beq	.L19
 611 0018 0130     		adds	r0, r0, #1
 612              	.LVL9:
 313:Generated_Source\PSoC4/UART_SPI_UART.c ****         }
 613              		.loc 1 313 0
 614 001a 2C60     		str	r4, [r5]
 615              	.LVL10:
ARM GAS  C:\Users\Daniela\AppData\Local\Temp\ccWaZ5AR.s 			page 39


 616              	.LBE6:
 617              	.LBE7:
 344:Generated_Source\PSoC4/UART_SPI_UART.c ****         {
 618              		.loc 1 344 0
 619 001c B042     		cmp	r0, r6
 620 001e F6D1     		bne	.L23
 621              	.L17:
 347:Generated_Source\PSoC4/UART_SPI_UART.c ****         }
 348:Generated_Source\PSoC4/UART_SPI_UART.c ****     }
 622              		.loc 1 348 0
 623              		@ sp needed
 624 0020 70BD     		pop	{r4, r5, r6, pc}
 625              	.L27:
 626 0022 C046     		.align	2
 627              	.L26:
 628 0024 08022440 		.word	1076101640
 629 0028 40022440 		.word	1076101696
 630              		.cfi_endproc
 631              	.LFE6:
 632              		.size	UART_SpiUartPutArray, .-UART_SpiUartPutArray
 633              		.section	.text.UART_SpiUartGetTxBufferSize,"ax",%progbits
 634              		.align	2
 635              		.global	UART_SpiUartGetTxBufferSize
 636              		.code	16
 637              		.thumb_func
 638              		.type	UART_SpiUartGetTxBufferSize, %function
 639              	UART_SpiUartGetTxBufferSize:
 640              	.LFB7:
 349:Generated_Source\PSoC4/UART_SPI_UART.c **** 
 350:Generated_Source\PSoC4/UART_SPI_UART.c **** 
 351:Generated_Source\PSoC4/UART_SPI_UART.c ****     /*******************************************************************************
 352:Generated_Source\PSoC4/UART_SPI_UART.c ****     * Function Name: UART_SpiUartGetTxBufferSize
 353:Generated_Source\PSoC4/UART_SPI_UART.c ****     ****************************************************************************//**
 354:Generated_Source\PSoC4/UART_SPI_UART.c ****     *
 355:Generated_Source\PSoC4/UART_SPI_UART.c ****     *  Returns the number of elements currently in the transmit buffer.
 356:Generated_Source\PSoC4/UART_SPI_UART.c ****     *   - TX software buffer is disabled: returns the number of used entries in
 357:Generated_Source\PSoC4/UART_SPI_UART.c ****     *     TX FIFO.
 358:Generated_Source\PSoC4/UART_SPI_UART.c ****     *   - TX software buffer is enabled: returns the number of elements currently
 359:Generated_Source\PSoC4/UART_SPI_UART.c ****     *     used in the transmit buffer. This number does not include used entries in
 360:Generated_Source\PSoC4/UART_SPI_UART.c ****     *     the TX FIFO. The transmit buffer size is zero until the TX FIFO is
 361:Generated_Source\PSoC4/UART_SPI_UART.c ****     *     not full.
 362:Generated_Source\PSoC4/UART_SPI_UART.c ****     *
 363:Generated_Source\PSoC4/UART_SPI_UART.c ****     * \return
 364:Generated_Source\PSoC4/UART_SPI_UART.c ****     *  Number of data elements ready to transmit.
 365:Generated_Source\PSoC4/UART_SPI_UART.c ****     *
 366:Generated_Source\PSoC4/UART_SPI_UART.c ****     * \globalvars
 367:Generated_Source\PSoC4/UART_SPI_UART.c ****     *  UART_txBufferHead - the start index to put data into the 
 368:Generated_Source\PSoC4/UART_SPI_UART.c ****     *  software transmit buffer.
 369:Generated_Source\PSoC4/UART_SPI_UART.c ****     *  UART_txBufferTail - start index to get data from the software
 370:Generated_Source\PSoC4/UART_SPI_UART.c ****     *  transmit buffer.
 371:Generated_Source\PSoC4/UART_SPI_UART.c ****     *
 372:Generated_Source\PSoC4/UART_SPI_UART.c ****     *******************************************************************************/
 373:Generated_Source\PSoC4/UART_SPI_UART.c ****     uint32 UART_SpiUartGetTxBufferSize(void)
 374:Generated_Source\PSoC4/UART_SPI_UART.c ****     {
 641              		.loc 1 374 0
 642              		.cfi_startproc
 643              		@ args = 0, pretend = 0, frame = 0
ARM GAS  C:\Users\Daniela\AppData\Local\Temp\ccWaZ5AR.s 			page 40


 644              		@ frame_needed = 0, uses_anonymous_args = 0
 645              		@ link register save eliminated.
 375:Generated_Source\PSoC4/UART_SPI_UART.c ****         uint32 size;
 376:Generated_Source\PSoC4/UART_SPI_UART.c ****     #if (UART_INTERNAL_TX_SW_BUFFER_CONST)
 377:Generated_Source\PSoC4/UART_SPI_UART.c ****         uint32 locTail;
 378:Generated_Source\PSoC4/UART_SPI_UART.c ****     #endif /* (UART_INTERNAL_TX_SW_BUFFER_CONST) */
 379:Generated_Source\PSoC4/UART_SPI_UART.c **** 
 380:Generated_Source\PSoC4/UART_SPI_UART.c ****         #if (UART_CHECK_TX_SW_BUFFER)
 381:Generated_Source\PSoC4/UART_SPI_UART.c ****         {
 382:Generated_Source\PSoC4/UART_SPI_UART.c ****             /* Get current Tail index */
 383:Generated_Source\PSoC4/UART_SPI_UART.c ****             locTail = UART_txBufferTail;
 384:Generated_Source\PSoC4/UART_SPI_UART.c **** 
 385:Generated_Source\PSoC4/UART_SPI_UART.c ****             if (UART_txBufferHead >= locTail)
 386:Generated_Source\PSoC4/UART_SPI_UART.c ****             {
 387:Generated_Source\PSoC4/UART_SPI_UART.c ****                 size = (UART_txBufferHead - locTail);
 388:Generated_Source\PSoC4/UART_SPI_UART.c ****             }
 389:Generated_Source\PSoC4/UART_SPI_UART.c ****             else
 390:Generated_Source\PSoC4/UART_SPI_UART.c ****             {
 391:Generated_Source\PSoC4/UART_SPI_UART.c ****                 size = (UART_txBufferHead + (UART_TX_BUFFER_SIZE - locTail));
 392:Generated_Source\PSoC4/UART_SPI_UART.c ****             }
 393:Generated_Source\PSoC4/UART_SPI_UART.c ****         }
 394:Generated_Source\PSoC4/UART_SPI_UART.c ****         #else
 395:Generated_Source\PSoC4/UART_SPI_UART.c ****         {
 396:Generated_Source\PSoC4/UART_SPI_UART.c ****             size = UART_GET_TX_FIFO_ENTRIES;
 397:Generated_Source\PSoC4/UART_SPI_UART.c ****         }
 398:Generated_Source\PSoC4/UART_SPI_UART.c ****         #endif
 399:Generated_Source\PSoC4/UART_SPI_UART.c **** 
 400:Generated_Source\PSoC4/UART_SPI_UART.c ****         return (size);
 646              		.loc 1 400 0
 647 0000 1F20     		movs	r0, #31
 396:Generated_Source\PSoC4/UART_SPI_UART.c ****         }
 648              		.loc 1 396 0
 649 0002 024B     		ldr	r3, .L29
 401:Generated_Source\PSoC4/UART_SPI_UART.c ****     }
 650              		.loc 1 401 0
 651              		@ sp needed
 396:Generated_Source\PSoC4/UART_SPI_UART.c ****         }
 652              		.loc 1 396 0
 653 0004 1B68     		ldr	r3, [r3]
 654              	.LVL11:
 400:Generated_Source\PSoC4/UART_SPI_UART.c ****     }
 655              		.loc 1 400 0
 656 0006 1840     		ands	r0, r3
 657              	.LVL12:
 658              		.loc 1 401 0
 659 0008 7047     		bx	lr
 660              	.L30:
 661 000a C046     		.align	2
 662              	.L29:
 663 000c 08022440 		.word	1076101640
 664              		.cfi_endproc
 665              	.LFE7:
 666              		.size	UART_SpiUartGetTxBufferSize, .-UART_SpiUartGetTxBufferSize
 667              		.section	.text.UART_SpiUartClearTxBuffer,"ax",%progbits
 668              		.align	2
 669              		.global	UART_SpiUartClearTxBuffer
 670              		.code	16
ARM GAS  C:\Users\Daniela\AppData\Local\Temp\ccWaZ5AR.s 			page 41


 671              		.thumb_func
 672              		.type	UART_SpiUartClearTxBuffer, %function
 673              	UART_SpiUartClearTxBuffer:
 674              	.LFB8:
 402:Generated_Source\PSoC4/UART_SPI_UART.c **** 
 403:Generated_Source\PSoC4/UART_SPI_UART.c **** 
 404:Generated_Source\PSoC4/UART_SPI_UART.c ****     /*******************************************************************************
 405:Generated_Source\PSoC4/UART_SPI_UART.c ****     * Function Name: UART_SpiUartClearTxBuffer
 406:Generated_Source\PSoC4/UART_SPI_UART.c ****     ****************************************************************************//**
 407:Generated_Source\PSoC4/UART_SPI_UART.c ****     *
 408:Generated_Source\PSoC4/UART_SPI_UART.c ****     *  Clears the transmit buffer and TX FIFO.
 409:Generated_Source\PSoC4/UART_SPI_UART.c ****     *
 410:Generated_Source\PSoC4/UART_SPI_UART.c ****     * \globalvars
 411:Generated_Source\PSoC4/UART_SPI_UART.c ****     *  UART_txBufferHead - the start index to put data into the 
 412:Generated_Source\PSoC4/UART_SPI_UART.c ****     *  software transmit buffer.
 413:Generated_Source\PSoC4/UART_SPI_UART.c ****     *  UART_txBufferTail - start index to get data from the software
 414:Generated_Source\PSoC4/UART_SPI_UART.c ****     *  transmit buffer.
 415:Generated_Source\PSoC4/UART_SPI_UART.c ****     *
 416:Generated_Source\PSoC4/UART_SPI_UART.c ****     *******************************************************************************/
 417:Generated_Source\PSoC4/UART_SPI_UART.c ****     void UART_SpiUartClearTxBuffer(void)
 418:Generated_Source\PSoC4/UART_SPI_UART.c ****     {
 675              		.loc 1 418 0
 676              		.cfi_startproc
 677              		@ args = 0, pretend = 0, frame = 0
 678              		@ frame_needed = 0, uses_anonymous_args = 0
 679              		@ link register save eliminated.
 419:Generated_Source\PSoC4/UART_SPI_UART.c ****         #if (UART_CHECK_TX_SW_BUFFER)
 420:Generated_Source\PSoC4/UART_SPI_UART.c ****         {
 421:Generated_Source\PSoC4/UART_SPI_UART.c ****             /* Lock from component interruption */
 422:Generated_Source\PSoC4/UART_SPI_UART.c ****             UART_DisableInt();
 423:Generated_Source\PSoC4/UART_SPI_UART.c **** 
 424:Generated_Source\PSoC4/UART_SPI_UART.c ****             /* Flush TX software buffer */
 425:Generated_Source\PSoC4/UART_SPI_UART.c ****             UART_txBufferHead = UART_txBufferTail;
 426:Generated_Source\PSoC4/UART_SPI_UART.c **** 
 427:Generated_Source\PSoC4/UART_SPI_UART.c ****             UART_INTR_TX_MASK_REG &= (uint32) ~UART_INTR_TX_NOT_FULL;
 428:Generated_Source\PSoC4/UART_SPI_UART.c ****             UART_CLEAR_TX_FIFO;
 429:Generated_Source\PSoC4/UART_SPI_UART.c ****             UART_ClearTxInterruptSource(UART_INTR_TX_ALL);
 430:Generated_Source\PSoC4/UART_SPI_UART.c **** 
 431:Generated_Source\PSoC4/UART_SPI_UART.c ****             /* Release lock */
 432:Generated_Source\PSoC4/UART_SPI_UART.c ****             UART_EnableInt();
 433:Generated_Source\PSoC4/UART_SPI_UART.c ****         }
 434:Generated_Source\PSoC4/UART_SPI_UART.c ****         #else
 435:Generated_Source\PSoC4/UART_SPI_UART.c ****         {
 436:Generated_Source\PSoC4/UART_SPI_UART.c ****             UART_CLEAR_TX_FIFO;
 680              		.loc 1 436 0
 681 0000 8021     		movs	r1, #128
 682 0002 054B     		ldr	r3, .L32
 683 0004 4902     		lsls	r1, r1, #9
 684 0006 1A68     		ldr	r2, [r3]
 437:Generated_Source\PSoC4/UART_SPI_UART.c ****         }
 438:Generated_Source\PSoC4/UART_SPI_UART.c ****         #endif
 439:Generated_Source\PSoC4/UART_SPI_UART.c ****     }
 685              		.loc 1 439 0
 686              		@ sp needed
 436:Generated_Source\PSoC4/UART_SPI_UART.c ****         }
 687              		.loc 1 436 0
 688 0008 0A43     		orrs	r2, r1
ARM GAS  C:\Users\Daniela\AppData\Local\Temp\ccWaZ5AR.s 			page 42


 689 000a 1A60     		str	r2, [r3]
 690 000c 1968     		ldr	r1, [r3]
 691 000e 034A     		ldr	r2, .L32+4
 692 0010 0A40     		ands	r2, r1
 693 0012 1A60     		str	r2, [r3]
 694              		.loc 1 439 0
 695 0014 7047     		bx	lr
 696              	.L33:
 697 0016 C046     		.align	2
 698              	.L32:
 699 0018 04022440 		.word	1076101636
 700 001c FFFFFEFF 		.word	-65537
 701              		.cfi_endproc
 702              	.LFE8:
 703              		.size	UART_SpiUartClearTxBuffer, .-UART_SpiUartClearTxBuffer
 704              		.section	.text.UART_SpiUartDisableIntRx,"ax",%progbits
 705              		.align	2
 706              		.global	UART_SpiUartDisableIntRx
 707              		.code	16
 708              		.thumb_func
 709              		.type	UART_SpiUartDisableIntRx, %function
 710              	UART_SpiUartDisableIntRx:
 711              	.LFB9:
 440:Generated_Source\PSoC4/UART_SPI_UART.c **** 
 441:Generated_Source\PSoC4/UART_SPI_UART.c **** #endif /* (UART_TX_DIRECTION) */
 442:Generated_Source\PSoC4/UART_SPI_UART.c **** 
 443:Generated_Source\PSoC4/UART_SPI_UART.c **** 
 444:Generated_Source\PSoC4/UART_SPI_UART.c **** /*******************************************************************************
 445:Generated_Source\PSoC4/UART_SPI_UART.c **** * Function Name: UART_SpiUartDisableIntRx
 446:Generated_Source\PSoC4/UART_SPI_UART.c **** ****************************************************************************//**
 447:Generated_Source\PSoC4/UART_SPI_UART.c **** *
 448:Generated_Source\PSoC4/UART_SPI_UART.c **** *  Disables the RX interrupt sources.
 449:Generated_Source\PSoC4/UART_SPI_UART.c **** *
 450:Generated_Source\PSoC4/UART_SPI_UART.c **** *  \return
 451:Generated_Source\PSoC4/UART_SPI_UART.c **** *   Returns the RX interrupt sources enabled before the function call.
 452:Generated_Source\PSoC4/UART_SPI_UART.c **** *
 453:Generated_Source\PSoC4/UART_SPI_UART.c **** *******************************************************************************/
 454:Generated_Source\PSoC4/UART_SPI_UART.c **** uint32 UART_SpiUartDisableIntRx(void)
 455:Generated_Source\PSoC4/UART_SPI_UART.c **** {
 712              		.loc 1 455 0
 713              		.cfi_startproc
 714              		@ args = 0, pretend = 0, frame = 0
 715              		@ frame_needed = 0, uses_anonymous_args = 0
 716              		@ link register save eliminated.
 456:Generated_Source\PSoC4/UART_SPI_UART.c ****     uint32 intSource;
 457:Generated_Source\PSoC4/UART_SPI_UART.c **** 
 458:Generated_Source\PSoC4/UART_SPI_UART.c ****     intSource = UART_GetRxInterruptMode();
 459:Generated_Source\PSoC4/UART_SPI_UART.c **** 
 460:Generated_Source\PSoC4/UART_SPI_UART.c ****     UART_SetRxInterruptMode(UART_NO_INTR_SOURCES);
 717              		.loc 1 460 0
 718 0000 0022     		movs	r2, #0
 458:Generated_Source\PSoC4/UART_SPI_UART.c **** 
 719              		.loc 1 458 0
 720 0002 024B     		ldr	r3, .L35
 461:Generated_Source\PSoC4/UART_SPI_UART.c **** 
 462:Generated_Source\PSoC4/UART_SPI_UART.c ****     return (intSource);
 463:Generated_Source\PSoC4/UART_SPI_UART.c **** }
ARM GAS  C:\Users\Daniela\AppData\Local\Temp\ccWaZ5AR.s 			page 43


 721              		.loc 1 463 0
 722              		@ sp needed
 458:Generated_Source\PSoC4/UART_SPI_UART.c **** 
 723              		.loc 1 458 0
 724 0004 1868     		ldr	r0, [r3]
 725              	.LVL13:
 460:Generated_Source\PSoC4/UART_SPI_UART.c **** 
 726              		.loc 1 460 0
 727 0006 1A60     		str	r2, [r3]
 728              		.loc 1 463 0
 729 0008 7047     		bx	lr
 730              	.L36:
 731 000a C046     		.align	2
 732              	.L35:
 733 000c C80F2440 		.word	1076105160
 734              		.cfi_endproc
 735              	.LFE9:
 736              		.size	UART_SpiUartDisableIntRx, .-UART_SpiUartDisableIntRx
 737              		.section	.text.UART_SpiUartDisableIntTx,"ax",%progbits
 738              		.align	2
 739              		.global	UART_SpiUartDisableIntTx
 740              		.code	16
 741              		.thumb_func
 742              		.type	UART_SpiUartDisableIntTx, %function
 743              	UART_SpiUartDisableIntTx:
 744              	.LFB10:
 464:Generated_Source\PSoC4/UART_SPI_UART.c **** 
 465:Generated_Source\PSoC4/UART_SPI_UART.c **** 
 466:Generated_Source\PSoC4/UART_SPI_UART.c **** /*******************************************************************************
 467:Generated_Source\PSoC4/UART_SPI_UART.c **** * Function Name: UART_SpiUartDisableIntTx
 468:Generated_Source\PSoC4/UART_SPI_UART.c **** ****************************************************************************//**
 469:Generated_Source\PSoC4/UART_SPI_UART.c **** *
 470:Generated_Source\PSoC4/UART_SPI_UART.c **** *  Disables TX interrupt sources.
 471:Generated_Source\PSoC4/UART_SPI_UART.c **** *
 472:Generated_Source\PSoC4/UART_SPI_UART.c **** *  \return
 473:Generated_Source\PSoC4/UART_SPI_UART.c **** *   Returns TX interrupt sources enabled before function call.
 474:Generated_Source\PSoC4/UART_SPI_UART.c **** *
 475:Generated_Source\PSoC4/UART_SPI_UART.c **** *******************************************************************************/
 476:Generated_Source\PSoC4/UART_SPI_UART.c **** uint32 UART_SpiUartDisableIntTx(void)
 477:Generated_Source\PSoC4/UART_SPI_UART.c **** {
 745              		.loc 1 477 0
 746              		.cfi_startproc
 747              		@ args = 0, pretend = 0, frame = 0
 748              		@ frame_needed = 0, uses_anonymous_args = 0
 749              		@ link register save eliminated.
 478:Generated_Source\PSoC4/UART_SPI_UART.c ****     uint32 intSourceMask;
 479:Generated_Source\PSoC4/UART_SPI_UART.c **** 
 480:Generated_Source\PSoC4/UART_SPI_UART.c ****     intSourceMask = UART_GetTxInterruptMode();
 481:Generated_Source\PSoC4/UART_SPI_UART.c **** 
 482:Generated_Source\PSoC4/UART_SPI_UART.c ****     UART_SetTxInterruptMode(UART_NO_INTR_SOURCES);
 750              		.loc 1 482 0
 751 0000 0022     		movs	r2, #0
 480:Generated_Source\PSoC4/UART_SPI_UART.c **** 
 752              		.loc 1 480 0
 753 0002 024B     		ldr	r3, .L38
 483:Generated_Source\PSoC4/UART_SPI_UART.c **** 
 484:Generated_Source\PSoC4/UART_SPI_UART.c ****     return (intSourceMask);
ARM GAS  C:\Users\Daniela\AppData\Local\Temp\ccWaZ5AR.s 			page 44


 485:Generated_Source\PSoC4/UART_SPI_UART.c **** }
 754              		.loc 1 485 0
 755              		@ sp needed
 480:Generated_Source\PSoC4/UART_SPI_UART.c **** 
 756              		.loc 1 480 0
 757 0004 1868     		ldr	r0, [r3]
 758              	.LVL14:
 482:Generated_Source\PSoC4/UART_SPI_UART.c **** 
 759              		.loc 1 482 0
 760 0006 1A60     		str	r2, [r3]
 761              		.loc 1 485 0
 762 0008 7047     		bx	lr
 763              	.L39:
 764 000a C046     		.align	2
 765              	.L38:
 766 000c 880F2440 		.word	1076105096
 767              		.cfi_endproc
 768              	.LFE10:
 769              		.size	UART_SpiUartDisableIntTx, .-UART_SpiUartDisableIntTx
 770              		.text
 771              	.Letext0:
 772              		.file 2 "Generated_Source\\PSoC4/cytypes.h"