ARM GAS  C:\Users\Daniela\AppData\Local\Temp\ccufXu0M.s 			page 1


   1              		.syntax unified
   2              		.cpu cortex-m0
   3              		.fpu softvfp
   4              		.eabi_attribute 20, 1
   5              		.eabi_attribute 21, 1
   6              		.eabi_attribute 23, 3
   7              		.eabi_attribute 24, 1
   8              		.eabi_attribute 25, 1
   9              		.eabi_attribute 26, 1
  10              		.eabi_attribute 30, 2
  11              		.eabi_attribute 34, 0
  12              		.eabi_attribute 18, 4
  13              		.thumb
  14              		.syntax unified
  15              		.file	"cyfitter_cfg.c"
  16              		.text
  17              	.Ltext0:
  18              		.section	.gnu.lto_.profile.58560d9a,"",%progbits
  19 0000 789C6361 		.ascii	"x\234ca`d`e`\000\222\255\214\326\000\002J\000\315"
  19      60646065 
  19      600092AD 
  19      8CD60002 
  19      4A00CD
  20              		.text
  21              		.section	.gnu.lto_.icf.58560d9a,"",%progbits
  22 0000 789C6361 		.ascii	"x\234ca`d\000\001\021\006\004`f\330\265\342\3072F\306"
  22      60640001 
  22      11060460 
  22      66D8B5E2 
  22      C73246C6 
  23 0014 5D27579C 		.ascii	"]'W\234db:\321t|+\027\003\000`\336\010\347"
  23      64623AD1 
  23      747C2B17 
  23      030060DE 
  23      08E7
  24              		.text
  25              		.section	.gnu.lto_.jmpfuncs.58560d9a,"",%progbits
  26 0000 789C6361 		.ascii	"x\234ca`d\000\201~\006\004`\002a\306\277L\214\317.."
  26      60640081 
  26      7E060460 
  26      0261C6BF 
  26      4C8CCF2E 
  27 0015 5DCFF685 		.ascii	"]\317\366\205\251\225\231\201\361\0167\343rF\031\250"
  27      A9959981 
  27      F10E37E3 
  27      724619A8 
  28 0025 F8FC1933 		.ascii	"\370\374\0313\237\261\200\304\031\031/\3603\256\200"
  28      9FB180C4 
  28      19192FF0 
  28      33AE80
  29 0034 8B2FDEB0 		.ascii	"\213/\336\260\242\215\031\"n\300\270\022.\274\265\375"
  29      A28D1922 
  29      6EC0B812 
  29      2EBCB5FD 
  30 0044 CC462E88 		.ascii	"\314F.\2100#\343*\270\360\354\207?\276BU7l\273\303\312"
  30      3023E32A 
  30      B8F0EC87 
ARM GAS  C:\Users\Daniela\AppData\Local\Temp\ccufXu0M.s 			page 2


  30      3FBE4255 
  30      376CBBC3 
  31 0059 B81A2403 		.ascii	"\270\032$\003v\016\033\210f\324\222\2018\007\000g\027"
  31      760E1B88 
  31      66D49281 
  31      38070067 
  31      17
  32 006a 23E3     		.ascii	"#\343"
  33              		.text
  34              		.section	.gnu.lto_.inline.58560d9a,"",%progbits
  35 0000 789C6361 		.ascii	"x\234ca`d\000\2018\006\004`b`P\272\016\024g\3228\260"
  35      60640081 
  35      38060460 
  35      626050BA 
  35      0E1467D2 
  36 0016 8389816D 		.ascii	"\203\211\201m\201<\023X\224\233\001$\206\203d\344b\000"
  36      813C1358 
  36      949B0124 
  36      868364E4 
  36      6200
  37 0028 51B28740 		.ascii	"Q\262\207@\"Z\007\2662\303\365\201eXx\031\031\230'\370"
  37      225A07B6 
  37      32C3F581 
  37      65587819 
  37      199827F8 
  38 003c 31001100 		.ascii	"1\000\021\000\300\235\011D"
  38      C09D0944 
  39              		.text
  40              		.section	.gnu.lto_.pureconst.58560d9a,"",%progbits
  41 0000 789C6361 		.ascii	"x\234ca`d`c```b\220b\334\305\010\000\002z\000\344"
  41      60646063 
  41      60606062 
  41      9062DCC5 
  41      0800027A 
  42              		.text
  43              		.section	.gnu.lto_ClockSetup.58560d9a,"",%progbits
  44 0000 789C7595 		.ascii	"x\234u\225KlSG\024\206\347\314ul\307N\354\264\253J\315"
  44      4B6C5347 
  44      1486E7CC 
  44      756CC74E 
  44      ECB4AB4A 
  45 0015 A2EAA22A 		.ascii	"\242\352\242*\233\252\213.\272\357\242;T\225-\022\252"
  45      9BAA8B2E 
  45      BAEFA23B 
  45      54952D12 
  45      AA
  46 0026 5253B129 		.ascii	"RS\261)R\224.\252.r\375NQ\253\004h\\J\011)\204\006\002"
  46      52942EAA 
  46      2E72FD4E 
  46      51AB0468 
  46      5C4A0929 
  47 003d 7952F230 		.ascii	"yR\3620\016\3056I\010y:\305$\201<j\002\261J\032%F\""
  47      0EC53649 
  47      08793AC5 
  47      24813C6A 
  47      02B14A1A 
  48 0054 8A09C6B7 		.ascii	"\212\011\306\2673\367\314\\[U|%\337\207g\316\367\237"
ARM GAS  C:\Users\Daniela\AppData\Local\Temp\ccufXu0M.s 			page 3


  48      33F7CC5C 
  48      5B557C25 
  48      DF8767CE 
  48      F79F
  49 0066 FBCF9973 		.ascii	"\373\317\231sM\004\010?\306,\204\274\317\256o\263\037"
  49      4D04083F 
  49      C62C84BC 
  49      CFAE6FB3 
  49      1F
  50 0077 280468D3 		.ascii	"(\004h\323\014!n+\005\3407\252\025H=\205z\330\241\257"
  50      0C216E2B 
  50      05E037AA 
  50      15483D85 
  50      7AD8A1AF 
  51 008b 29C483E9 		.ascii	")\304\203\3510=pYeGj}\340\230[\365\277\345W\010\321"
  51      303D7059 
  51      65476A7D 
  51      E0985BF5 
  51      BFE55708 
  52 00a0 A84E2270 		.ascii	"\250N\"p\031\016\0206m\255/\337\\i\366\361i\357\340"
  52      190E1036 
  52      6DAD2FDF 
  52      5C69F6F1 
  52      69EFE0
  53 00b3 205C0133 		.ascii	" \\\0013\227\353\371<\252j\232W\215\206\355\261=Gu9"
  53      97EBF93C 
  53      AA6A9A57 
  53      8D86EDB1 
  53      3D477539 
  54 00c7 F12B60E3 		.ascii	"\361+`\343'\007?9\371\211\220\014\213\340\332\317)\345"
  54      27073F39 
  54      F989900C 
  54      8BE0DACF 
  54      29E5
  55 00d9 57250DF1 		.ascii	"W%\015\361\027\231\355w9\203\301C\376\370\254\345\005"
  55      1799ED77 
  55      3983C143 
  55      FEF8ACE5 
  55      05
  56 00ea F52B14B8 		.ascii	"\365+\024\270V\366I\367\246\025\037{\325\250jb\177y"
  56      56F649F7 
  56      A6151F7B 
  56      D5A86A62 
  56      7F79
  57 00fc FB87DA6C 		.ascii	"\373\207\332l\255\320\342\366\201_Q\340*TC\007T\263"
  57      ADD0E2F6 
  57      815F51E0 
  57      2A544307 
  57      54B3
  58 010e 24AE412B 		.ascii	"$\256A+\260\361\276Tn\330\304C\000\336\204N6\362\017"
  58      B0F1BE54 
  58      6ED8C443 
  58      00DE844E 
  58      36F20F
  59 0121 78A3493B 		.ascii	"x\243I;\347sb8\274\271d\251\177\2556\250j\225_1iL\207"
  59      E7736238 
  59      BCB964A9 
ARM GAS  C:\Users\Daniela\AppData\Local\Temp\ccufXu0M.s 			page 4


  59      7FAD36A8 
  59      6A955F31 
  60 0138 4017D4B3 		.ascii	"@\027\324\263\344\312\330T_t\276\304T\263\306\022&\320"
  60      E4CAD854 
  60      5F74BEC4 
  60      54B3C612 
  60      26D0
  61 014a CDA6B2B1 		.ascii	"\315\246\262\261_\037gw\024\256b\001u`\271\014z\240"
  61      5F1F6777 
  61      14AE6201 
  61      7560B90C 
  61      7AA0
  62 015c DAAF5875 		.ascii	"\332\257Xu\300b\011@\271F\231\233\320\213\200\376\340"
  62      C0620940 
  62      B946999B 
  62      D08B80FE 
  62      E0
  63 016d 549F0D01 		.ascii	"T\237\015\001\000}<\332\246G\257\226\2267\261\350\353"
  63      007D3CDA 
  63      A647AF96 
  63      9637B1E8 
  63      EB
  64 017e 18DDD67B 		.ascii	"\030\335\326{% \344?\204?P\233\033\231\310Qa\344\371"
  64      2520E43F 
  64      843F509B 
  64      1B99C851 
  64      61E4F9
  65 0191 73CF7B29 		.ascii	"s\317{):\347\363t\352\316\235\034?\265g-8w\303p\256"
  65      3AE7F374 
  65      EACE9D1C 
  65      3FB5672D 
  65      3877C370 
  66 01a6 1F9D7BD8 		.ascii	"\037\235{\330\235\034\253@\347\002lq\2550\300F9\265"
  66      9D1CAB40 
  66      E7026C71 
  66      AD30C046 
  66      39B5
  67 01b8 292FA9B9 		.ascii	")/\251\271\310d\213\015\251?\370\220\272\364\362\301"
  67      C8648B0D 
  67      A93FF890 
  67      BAF4F2C1 
  68 01c8 BFB4401D 		.ascii	"\277\264@\0354\250CH\275\357\011\312\365\340%c\2020"
  68      34A84348 
  68      BDEF09CA 
  68      F5E02563 
  68      8230
  69 01da 52F74EC4 		.ascii	"R\367N\304?\346T\257R^\274\356v}\335\373/\265\235t\342"
  69      3FE654AF 
  69      525EBCEE 
  69      767DDDFB 
  69      2FB59D74 
  70 01ef 63561D72 		.ascii	"cV\035rs\235\365\235\353\011\273\324\251\200\010\323"
  70      739DF59D 
  70      EB09BBD4 
  70      A98008D3 
  71 01ff B9A9EB0C 		.ascii	"\271\251\353\0143\035\006\364f\315\210\263!qT\333\215"
  71      331D06F4 
ARM GAS  C:\Users\Daniela\AppData\Local\Temp\ccufXu0M.s 			page 5


  71      66CD88B3 
  71      217154DB 
  71      8D
  72 0210 3A5197C2 		.ascii	":Q\227\302-\324\014\201x\017\203O\367\347+\360\247\361"
  72      2DD40C81 
  72      780F834F 
  72      F7E72BF0 
  72      A7F1
  73 0222 1EB7199F 		.ascii	"\036\267\031\237Q\321\337\021E\020\332\307'R\200\204"
  73      51D1DF11 
  73      4510DAC7 
  73      27528084 
  74 0232 9C2024B7 		.ascii	"\234 $\267\207OT\026\010Q\203\020C'\202\231\256E\341"
  74      874F5416 
  74      08518310 
  74      43278299 
  74      AE45E1
  75 0245 44578E40 		.ascii	"DW\216@\\\270\233\030\225\3145\367\351U\341\356\323"
  75      5CB89B18 
  75      95CC35F7 
  75      E955E1EE 
  75      D3
  76 0256 544467DE 		.ascii	"TDg\336I\372n;\013\314;\006s\004\231=\233\341\227\225"
  76      49FA6E3B 
  76      0BCC3B06 
  76      7304993D 
  76      9BE19795 
  77 026a C824302A 		.ascii	"\310$0*\235\335\020\316:\330\214\210\332\360\035:\271"
  77      9DDD10CE 
  77      3AD88C88 
  77      DAF01D3A 
  77      B9
  78 027b 29985D17 		.ascii	")\230]\027\356\235)rr\314p\362\256p2'\234t\012\202o"
  78      EE9D2972 
  78      72CC70F2 
  78      AE703227 
  78      9C740A82 
  79 0290 3163468D 		.ascii	"1cF\215]M\323\2340\376?7\245\004\335_B\201{F\332\023"
  79      5D4DD39C 
  79      30FE3F37 
  79      A504DD5F 
  79      42817B46 
  80 02a6 BA994EBD 		.ascii	"\272\231N\275\324\317;\366/\365J\215\226\261\251\223"
  80      D4CF3BF6 
  80      2FF54A8D 
  80      96B1A993 
  81 02b6 58EAAD67 		.ascii	"X\352\255g~I\233\260\324\023N\230\342\265\356\320\303"
  81      7E499BB0 
  81      D4134E98 
  81      E2B5EED0 
  81      C3
  82 02c7 7B4B843B 		.ascii	"{K\204;5jf\341\323\030\236\236\373\275GO\276\012\226"
  82      356A66E1 
  82      D3189E9E 
  82      FBBD474F 
  82      BE0A96
  83 02da ED30C3C3 		.ascii	"\3550\303\303\337@\333\247\245\355\227F\032{\034b\253"
ARM GAS  C:\Users\Daniela\AppData\Local\Temp\ccufXu0M.s 			page 6


  83      DF40DBA7 
  83      A5ED9746 
  83      1A7B1C62 
  83      AB
  84 02eb 047C7A51 		.ascii	"\004|zQ\267<\373\311_\324df\215\374\023h\373o\201\355"
  84      B73CFBC9 
  84      5FD46466 
  84      8DFC1368 
  84      FB6F81ED 
  85 02ff B0451475 		.ascii	"\260E\024u\276\031`N\356\224\031\011\275x\341\325B\031"
  85      BE19604E 
  85      EE941909 
  85      BD78E1D5 
  85      4219
  86 0311 425515A1 		.ascii	"BU\025\241A\377\\GE\001\372\227\001\275\217\320\366"
  86      41FF5C47 
  86      4501FA97 
  86      01BD8FD0 
  86      F6
  87 0322 D0B32D07 		.ascii	"\320\263-\007Bcy/\333\177IY!\006ub9vQ\324\255*R\335"
  87      4263792F 
  87      DB7F4959 
  87      21067562 
  87      397651D4 
  88 033a FAB1EBAE 		.ascii	"\372\261\353\256\243@}`P\347\221:\337\230\311\331E\252"
  88      A3407D60 
  88      50E7913A 
  88      DF98C9D9 
  88      45AA
  89 034c 23041664 		.ascii	"#\004\026d\246\263\222Y2\255E\004L6\235u\333\020\020"
  89      A6B39259 
  89      32AD4504 
  89      4C369D75 
  89      DB1010
  90 035f D5D37A28 		.ascii	"\325\323z(\323JJ\304\351\354V\310\204i5\210f\023\310"
  90      D34A4AC4 
  90      E9EC56C8 
  90      84693588 
  90      6613C8
  91 0372 A5DB8B9A 		.ascii	"\245\333\213\232\315#\203\272\204\324P\276\341,-\264"
  91      CD2383BA 
  91      84D450BE 
  91      E12C2DB4 
  92 0382 052B2CCB 		.ascii	"\005+,\313\304\346%\365\347\033\036\371\256\002\272"
  92      C4E625F5 
  92      E71B1EF9 
  92      AE02BA
  93 0391 7775ADBB 		.ascii	"wu\255\273h7\254\030\320U\204fo}\337b\364\232*\370["
  93      6837AC18 
  93      D0558466 
  93      6F7DDF62 
  93      F49A2AF8 
  94 03a6 26BA2091 		.ascii	"&\272 \221\2737\263\007\021y\316\203\366m4vD\312\012"
  94      BB37B307 
  94      1179CE83 
  94      F66D3476 
  94      44CA0A
ARM GAS  C:\Users\Daniela\AppData\Local\Temp\ccufXu0M.s 			page 7


  95 03b9 C894817C 		.ascii	"\310\224\201|\214\310\260\332\271\"\232b\214\300\232"
  95      8CC8B0DA 
  95      B9229A62 
  95      8CC09A
  96 03c8 4C724512 		.ascii	"LrE\022\247\246\333\235\262\315\"\261y|`\247hA\236\030"
  96      A7A6DB9D 
  96      B2CD22B1 
  96      797C60A7 
  96      68419E18 
  97 03dc C4A7481C 		.ascii	"\304\247H\034\334\2726(\266l\224\300\272$\256Jb\311"
  97      DCBA3628 
  97      B66C94C0 
  97      BA24AE4A 
  97      62C9
  98 03ee 869A66F1 		.ascii	"\206\232f\361z\367\334\000O\364\325A\275\372\371\221"
  98      7AF7DC00 
  98      4FF4D541 
  98      BDFAF991 
  99 03fe 61DF30F6 		.ascii	"a\3370\366%e_\247\367>u}\355\252\375\242\316\365\345"
  99      25655FA7 
  99      F73E757D 
  99      EDAAFDA2 
  99      CEF5E5
 100 0411 9143C7BF 		.ascii	"\221C\307\277\251\255q\035\376\354\320\361O>:\\\363"
 100      A9AD711D 
 100      FEECD0F1 
 100      4F3E3A5C 
 100      F3
 101 0422 EDD16375 		.ascii	"\355\321cuu\256\332#5G\277\372\240\206\374\007\021\373"
 101      75AEDA23 
 101      3547BFFA 
 101      A086FC07 
 101      11FB
 102 0434 CE93     		.ascii	"\316\223"
 103              		.text
 104              		.section	.gnu.lto_cyfitter_cfg.58560d9a,"",%progbits
 105 0000 789C9596 		.ascii	"x\234\225\226]LTG\024\307\347\334\331]\226\205]\250"
 105      5D4C5447 
 105      14C7E7DC 
 105      D95D9685 
 105      5DA8
 106 0012 555A2D0F 		.ascii	"UZ-\017\373P\033\265M\251\225\364\261i\242i\353\213"
 106      FB501BB5 
 106      4DA995F4 
 106      B169A269 
 106      EB8B
 107 0024 3135F1C9 		.ascii	"15\361\311\2044tmL\243&J\037\232>0\260\273\200b\015"
 107      8434746D 
 107      4CA3264A 
 107      1F9A3E30 
 107      B0BB8062 
 108 0039 1559F02B 		.ascii	"\025Y\360+HU>\264\010\210\"\013\005\227\365\243\"\210"
 108      48553EB4 
 108      0888220B 
 108      0597F5A3 
 108      2288
 109 004b 08C52F2A 		.ascii	"\010\305/* PPAD\\T\254\260=3s\357e\021k\332\233\354"
ARM GAS  C:\Users\Daniela\AppData\Local\Temp\ccufXu0M.s 			page 8


 109      20505041 
 109      445C54AC 
 109      B03D3373 
 109      EF65116B 
 110 0062 DD3B1FF7 		.ascii	"\335;\037\3677\377s\316\2343\327@\200\360k\263\205\220"
 110      37FF73CE 
 110      9C33D740 
 110      80F06BB3 
 110      8590
 111 0074 95F8BF0A 		.ascii	"\225\370\277\012\177`\"\240d\265\020\222bV\300 \037"
 111      7F6022A0 
 111      64B51092 
 111      6256C020 
 111      1F
 112 0085 A87C6830 		.ascii	"\250|h0\033\024\232\031O\230\305\350^@X\244\021\200"
 112      1B149A19 
 112      4F98C5E8 
 112      5E4058A4 
 112      1180
 113 0097 77333390 		.ascii	"w33\220d\205\032\214\220\254\030\010\370\014\240\210"
 113      64851A8C 
 113      90AC1808 
 113      F80CA088 
 114 00a7 1B278F2B 		.ascii	"\033'\217+\223\012\370\323\007\274\312\342\"\206W\317"
 114      930AF8D3 
 114      07BCCAE2 
 114      228657CF 
 115 00b7 F9A28F59 		.ascii	"\371\242\217Y\261\017\334\224\220\240\230\201+\026\301"
 115      B10FDC94 
 115      90A09881 
 115      2B16C1
 116 00c6 6282D37A 		.ascii	"b\202\323z+\246r\254&\027\237f\227\203P\014&T\250l\243"
 116      2BA672AC 
 116      26179F66 
 116      9783500C 
 116      2654A86C 
 117 00db 7CFC48D3 		.ascii	"|\374H\323\331z\033]\014\374\371po\376n\272\360\020"
 117      D97A1B5D 
 117      0CFCF970 
 117      6FFE6EBA 
 117      F010
 118 00ed 63A9CC97 		.ascii	"c\251\314\227\223=7\227\371R\354n\012P\002\024\337\204"
 118      933D3797 
 118      F952EC6E 
 118      0A500214 
 118      DF84
 119 00ff 65B1F051 		.ascii	"e\261\360Q\254\204\037\205\205e_\371X0\350d\2763s\032"
 119      AC841F85 
 119      85655FF9 
 119      5830E864 
 119      BE33731A 
 120 0113 4EC42C00 		.ascii	"N\304,\000\321i$n\252\230\360F\303\360f0\343\315h\021"
 120      D169246E 
 120      AA98F046 
 120      C3F06630 
 120      E3CD6811 
 121 0127 2351F868 		.ascii	"#Q\370h\212\3467BFQ\006\332\372HQ\360\217\016\002;\333"
ARM GAS  C:\Users\Daniela\AppData\Local\Temp\ccufXu0M.s 			page 9


 121      8AE63742 
 121      465106DA 
 121      FA4851F0 
 121      8F0E023B 
 122 013c BE0BB82C 		.ascii	"\276\013\270,\316~\237\014\200?\320\332a\340\035(\312"
 122      CE7E9F0C 
 122      803FD0DA 
 122      61E01D28 
 122      CA
 123 014d E3F65F09 		.ascii	"\343\366_\011\013(n\032&4\326\262\214\037ek\270\247"
 123      0B286E1A 
 123      2634D6B2 
 123      8C1F656B 
 123      B8A7
 124 015f 36C5803D 		.ascii	"6\305\200=\245\005\215y\021\371p \305\205\0160\303\257"
 124      A5058D79 
 124      11F97020 
 124      C5850E30 
 124      C3AF
 125 0171 100BC700 		.ascii	"\020\013\307\000uB)\344\003\216\227\015{'\254\374\225"
 125      754229E4 
 125      038E970D 
 125      7B27ACFC 
 125      95
 126 0182 70D4781C 		.ascii	"p\324x\034Gz!\325\267/\333\212C\215\236>\227\221~\""
 126      477A21D5 
 126      B72FDB8A 
 126      438D9E3E 
 126      97917E22 
 127 0196 C0B7AA2B 		.ascii	"\300\267\252+\333\303\027\025rG\371\306\333\3461fvS"
 127      DBC31715 
 127      7247F9C6 
 127      DBE63166 
 127      7653
 128 01a8 0B9409D3 		.ascii	"\013\224\011\323\361r\323\010\274\343\274\316\256\003"
 128      F172D308 
 128      BCE3BCCE 
 128      AE03
 129 01b6 3BACEABC 		.ascii	";\254\352\274\356]1b^\204\356v\362\262\317\241\002\026"
 129      EE5D3162 
 129      5E84EE76 
 129      F2B2CFA1 
 129      0216
 130 01c8 41392C42 		.ascii	"A9,Bos7\020i&\234\300\030`3\324>@y\225\\8:\206\222\314"
 130      6F733710 
 130      69269CC0 
 130      186033D4 
 130      3E407995 
 131 01e2 783A00A9 		.ascii	"x:\000\251c\351S\315\317\270\021W]\345\373)\237\025"
 131      63E953CD 
 131      CFB81157 
 131      5DE5FB29 
 131      9F15
 132 01f4 09DCE647 		.ascii	"\011\334\346G\227\367\366\331x\323\012vl\236l\316\314"
 132      97F7F6D9 
 132      78D30A76 
 132      6C9E6CCE 
ARM GAS  C:\Users\Daniela\AppData\Local\Temp\ccufXu0M.s 			page 10


 132      CC
 133 0205 89A4CB85 		.ascii	"\211\244\313\205\035G=\205eV\031D\226\357`\333>sS\033"
 133      1D473D85 
 133      65561944 
 133      96EF60DB 
 133      3E73531B 
 134 0219 54C9089E 		.ascii	"T\311\010\236B\337\234\204\330W\352<\315\305\235\020"
 134      42DF9C84 
 134      D857EA3C 
 134      CDC59D10 
 135 0229 E2AAC1E4 		.ascii	"\342\252\301\344\244F'\005t\225\302[8\367\372/\365\331"
 135      A4462705 
 135      7495C25B 
 135      38F7FA2F 
 135      F5D9
 136 023b B625C5C2 		.ascii	"\266%\305\302\354\312\265{\016\242\3256\325b\360\302"
 136      ECCAB57B 
 136      0EA2D536 
 136      D562F0C2 
 137 024b 925043A2 		.ascii	"\222PC\242\204\016\347\3633\217m\311\223,\217\261h\354"
 137      840EE7F3 
 137      338F6DC9 
 137      932C8FB1 
 137      68EC
 138 025d 43FBC59A 		.ascii	"C\373\305\232\215{\217}\307\203\225%\272\243\241\026"
 138      8D7B8F7D 
 138      C7839525 
 138      BAA3A116 
 139 026d 92A1864B 		.ascii	"\222\241\206K\302\261;/\032\352\315K\313\030\216\371"
 139      C2B13B2F 
 139      1AEACD4B 
 139      CB188EF9 
 140 027d F2B33F75 		.ascii	"\362\263?u\3237\3407\214!jQ\0057>/)\264\"\023'\260|"
 140      D337E037 
 140      8C216A51 
 140      05373E2F 
 140      29B42213 
 141 0294 E086D5C1 		.ascii	"\340\206\325\301R.\220@=$kj\271)\\\023n\244\324\232"
 141      522E9040 
 141      3D246B6A 
 141      B9295C13 
 141      6EA4D49A 
 142 02a8 8AE115D2 		.ascii	"\212\341\025\322\236\031{\311\366\177$\372P\342\231"
 142      9E197BC9 
 142      F67F24FA 
 142      50E299
 143 02b7 7F97D830 		.ascii	"\177\227\3300C\242\267?'3<\256TL\250\310\306\245\346"
 143      43A2B73F 
 143      27333CAE 
 143      544CA8C8 
 143      C6A5E6
 144 02ca 801F964E 		.ascii	"\200\037\226N\211\355\001g!N\210*\210\223\232\302\376"
 144      89ED0167 
 144      214E882A 
 144      88939AC2 
 144      FE
 145 02db BB8873AF 		.ascii	"\273\210s\257\027q\3765\"\342\334\364M\270\300E\360"
ARM GAS  C:\Users\Daniela\AppData\Local\Temp\ccufXu0M.s 			page 11


 145      1771FE35 
 145      22E2DCF4 
 145      4DB8C045 
 145      F0
 146 02ec C204BF4B 		.ascii	"\302\004\277K\021c\351\357J\021f\324\021\022h\377\205"
 146      1163E9EF 
 146      4A1166D4 
 146      111268FF 
 146      85
 147 02fd 7D6561F4 		.ascii	"}ea\364s\341\240\256\326\247M6\265 \324\355\242{\230"
 147      73E1A0AE 
 147      D6A74D36 
 147      B520D4ED 
 147      A27B98
 148 0310 CF850581 		.ascii	"\317\205\005\201\302\305\331\333\011\032a!:Y$\027\332"
 148      C2C5D9DB 
 148      091A6121 
 148      3A592417 
 148      DA
 149 0321 ADC226D9 		.ascii	"\255\302&\331n\217\215~)`\023=\223\205\306Y\260\271"
 149      6E8F8D7E 
 149      2960133D 
 149      9385C659 
 149      B0B9
 150 0333 70E915B0 		.ascii	"p\351\025\260&\0163\223\273\220\346\363\246\301\314"
 150      260E3393 
 150      BB90E6F3 
 150      A6C1CC
 151 0342 ADCAFA0A 		.ascii	"\255\312\372\012\015|\002_Q\354\325\240\002\263*\035"
 151      0D7C025F 
 151      51ECD5A0 
 151      02B32A1D 
 152 0352 348B9D7C 		.ascii	"4\213\235|\031\357\334\037\336\341\3160\364q\206p\346"
 152      19EFDC1F 
 152      DEE1CE30 
 152      F4718670 
 152      E6
 153 0363 BCA0A288 		.ascii	"\274\240\242\210qh\301M\203\242aI,\256\346\2461\372"
 153      7168C14D 
 153      83A26149 
 153      2CAEE6A6 
 153      31FA
 154 0375 0EE268BD 		.ascii	"\016\342h\275\321\304\033\003\340\364\244\2154W\231"
 154      D1C41B03 
 154      E0F4A48D 
 154      345799
 155 0384 788E38A9 		.ascii	"x\2168\251\005\263\003\301\247\322\233+,2y\001\256\210"
 155      05B303C1 
 155      A7D29B2B 
 155      2C327901 
 155      AE88
 156 0396 DAA268B9 		.ascii	"\332\242h\271\215\223D.\033\010\326s\212~\211&\262\033"
 156      8D93442E 
 156      1B08D673 
 156      8A7E8926 
 156      B21B
 157 03a8 C81D705D 		.ascii	"\310\035p]q\332$I\276\207\327\030\"0\377\225b\212o\322"
ARM GAS  C:\Users\Daniela\AppData\Local\Temp\ccufXu0M.s 			page 12


 157      71DA2449 
 157      BE87D718 
 157      2230FF95 
 157      628A6FD2 
 158 03bc EA65F8AA 		.ascii	"\352e\370\252\221\327G^\016\313G\342\371l\\1\320\331"
 158      91D7475E 
 158      0ECB47E2 
 158      F96C5C31 
 158      D0D9
 159 03ce DB02B200 		.ascii	"\333\002\262\0002\264\207\027\203C5C?Y\246\013`\253"
 159      32B48717 
 159      83433543 
 159      3F59A60B 
 159      60AB
 160 03e0 5E00AFCA 		.ascii	"^\000\257\312\002\230\362\244\246\221\312\002\210\276"
 160      0298F2A4 
 160      A691CA02 
 160      88BE
 161 03ee 19B5411B 		.ascii	"\031\265A\033\216\212\";bP\251\343\267'\236F\252\324"
 161      8E8A223B 
 161      6250A9E3 
 161      B7279E46 
 161      AAD4
 162 0400 54491DAF 		.ascii	"TI\035\257zQm\230\246\266\353\324?$u\240\346F\271I\243"
 162      7A516D98 
 162      A6B6EBD4 
 162      3F2475A0 
 162      E646B949 
 163 0415 F61BA043 		.ascii	"\366\033\240C\205f\0054\250\367\270\353\241Z\271\331"
 163      85660534 
 163      A8F7B8EB 
 163      A15AB9D9 
 164 0425 C13A010D 		.ascii	"\301:\001\0158=\255\3124\364\232\016\275\216P\035\321"
 164      383DADCA 
 164      34F49A0E 
 164      BD8E501D 
 164      D1
 165 0436 3AAE214E 		.ascii	":\256!N\355\351(\244\022\221\245\"\216\265\260\355!"
 165      EDE928A4 
 165      1291A522 
 165      8EB5B0ED 
 165      21
 166 0447 D6DED011 		.ascii	"\326\336\320\0217C\020\317\267\217\255\222\356\215\012"
 166      374310CF 
 166      B78FAD92 
 166      EE8D0A
 167 0456 4DFBB7C4 		.ascii	"M\373\267\304F\271T\320\376\220\312&\353\221\320\223"
 167      46B954D0 
 167      FE90CA26 
 167      EB91D093 
 168 0466 37B73FB6 		.ascii	"7\267?\266j\320\267\241\023\241\267\004\364O\204\362"
 168      6AD0B7A1 
 168      13A1B704 
 168      F44F84F2 
 169 0476 D83F53E3 		.ascii	"\330?S\343\036-\211\375\177\227\326\210\372k\302X\337"
 169      1E2D89FD 
 169      7F97D688 
ARM GAS  C:\Users\Daniela\AppData\Local\Temp\ccufXu0M.s 			page 13


 169      FA6BC258 
 169      DF
 170 0487 966B7A40 		.ascii	"\226kz@\025\255/7\177\346r\363_\275\334\002\350\306"
 170      15AD2F37 
 170      7FE672F3 
 170      5FBDDC02 
 170      E8C6
 171 0499 E5BAC472 		.ascii	"\345\272\304r=\"\215\243\205\027F'\337U\217\300\222"
 171      3D228DA3 
 171      85174627 
 171      DF558FC0 
 171      92
 172 04aa 7BD7EBAC 		.ascii	"{\327\353\254\322\013\031\230\323\234\320\326U\333M"
 172      D20B1998 
 172      D39CD0D6 
 172      55DB4D
 173 04b9 A7BD7047 		.ascii	"\247\275pG\367B\257\214\316\304\223\237[\314ZtzL\320"
 173      F742AF8C 
 173      CEC4939F 
 173      5BCC5A74 
 173      7A4CD0
 174 04cc A74527A8 		.ascii	"\247E'\250\235\253\265\317|\271F-\344\022:8x\2721j\032"
 174      9DABB5CF 
 174      7CB9462D 
 174      E4123A38 
 174      78BA316A 
 175 04e1 DAAF43FF 		.ascii	"\332\257C\377\222P\375\324\011\007;\014h\301\322\211"
 175      9250FDD4 
 175      09073B0C 
 175      68C1D289 
 176 04f1 953BDBA6 		.ascii	"\225;\333\246\"T\231*q\350H\313\305\260i\342\240N\274"
 176      2254992A 
 176      71E848CB 
 176      C5B069E2 
 176      A04EBC
 177 0504 2B89FD2D 		.ascii	"+\211\375-\207\023U\225\007#\341\236&\362\234QE\326"
 177      87135595 
 177      0723E19E 
 177      26F29C51 
 177      45D6
 178 0516 E7970C59 		.ascii	"\347\227\014Y$2OEv\370\373\366\205\034\367\367u\344"
 178      24324F45 
 178      76F8FBF6 
 178      851CF7F7 
 178      75E4
 179 0528 108F3F57 		.ascii	"\020\217?Wu\027\234\276\274\030q\320\316\312\375w\202"
 179      75179CBE 
 179      BC1871D0 
 179      CECAFD77 
 179      82
 180 0539 78B61218 		.ascii	"x\266\022\030\306\304wS\325\200'\364\245\002S\367\201"
 180      C6C47753 
 180      D58027F4 
 180      A50253F7 
 180      81
 181 054a 38A68398 		.ascii	"8\246\203\230\272\263\352\312\003QWF\204\272\235\201"
 181      BAB3EACA 
ARM GAS  C:\Users\Daniela\AppData\Local\Temp\ccufXu0M.s 			page 14


 181      03515746 
 181      84BA9D81 
 182 055a 8BFBD50D 		.ascii	"\213\373\325\015^\216\337J\\\335\375\334\202\363f\241"
 182      5E8EDF4A 
 182      5CDDFDDC 
 182      82F366A1 
 183 056a 2E852F67 		.ascii	".\205/g\206\207\272\276Qi\262\177\254\274(R\332L\341"
 183      8687BABE 
 183      5169B27F 
 183      ACBC2852 
 183      DA4CE1
 184 057d 9166F153 		.ascii	"\221f\361S\25223\217\034\316U4\3469\301\334Q\365\240"
 184      AA32338F 
 184      1CCE5534 
 184      E639C1DC 
 184      51F5A0
 185 0590 322A9439 		.ascii	"2*\2249\2463\037s\2335H\253\016\271\306\272/i\231\267"
 185      A6331F73 
 185      9B3548AB 
 185      0EB9C6BA 
 185      2F6999B7 
 186 05a4 FF8580DC 		.ascii	"\377\205\200\334k\312H3\205B\002:d\234C\370\207\321"
 186      6BCA4833 
 186      8542023A 
 186      649C43F8 
 186      87D1
 187 05b6 7DACDD95 		.ascii	"}\254\335\225k\265\0171\374L\003\254?xr\275\367\205"
 187      6BB50F31 
 187      FC4C03AC 
 187      3F7872BD 
 187      F785
 188 05c8 639363CB 		.ascii	"c\223c\313\327I\216o\022\326l\376~K\242c\335\3525\233"
 188      D7498E6F 
 188      12D66CFE 
 188      7E4BA263 
 188      DDEA359B 
 189 05dc 97C7AF4B 		.ascii	"\227\307\257K\374a\375\206\244$\307\226\204\304\365"
 189      FC61FD86 
 189      A424C796 
 189      84C4F5
 190 05eb DF7E9848 		.ascii	"\337~\230H`\203e\371\3525+W\330\355\366\015$\022\373"
 190      608365F9 
 190      EA352B57 
 190      D8EDF60D 
 190      2412FB
 191 05fe 12363A36 		.ascii	"\0226:6nu$%$)\033\267\302V\330\364\017\030\201\256g"
 191      6E752425 
 191      24291BB7 
 191      C256D8F4 
 191      0F1881AE 
 192              		.text
 193              		.section	.gnu.lto_cfg_memset_list.4884.58560d9a,"",%progbits
 194 0000 789C6361 		.ascii	"x\234ca`d\000\201\271@\014a10\374eb\374{\355\365\021"
 194      60640081 
 194      B9400C61 
 194      3130FC65 
 194      62FC7BED 
ARM GAS  C:\Users\Daniela\AppData\Local\Temp\ccufXu0M.s 			page 15


 195 0016 C62F4CAD 		.ascii	"\306/L\255\314\014\214\015\034@\376\336}\327\267\362"
 195      CC0C8C0D 
 195      1C40FEDE 
 195      7DD7B7F2 
 196 0026 81F88C8C 		.ascii	"\201\370\214\214\015\015{\033X\200B\347\272\277\355"
 196      0D0D7B1B 
 196      588042E7 
 196      BABFED
 197 0035 60B7D8D6 		.ascii	"`\267\330\326\320\261\240A\241\225\231\351\037\023\003"
 197      D0B1A041 
 197      A19599E9 
 197      1F1303
 198 0044 E30A4699 		.ascii	"\343\012F\231\177L\214\214\313\031e@f<<<\177:\033T\317"
 198      7F4C8C8C 
 198      CB196540 
 198      663C3C3C 
 198      7F3A1B54 
 199 0059 833D603D 		.ascii	"\203=`=\235K\366\\eE\325\263\012E\317\264\343\223\227"
 199      9D4BF65C 
 199      6545D5B3 
 199      0A45CFB4 
 199      E39397
 200 006c F0C11530 		.ascii	"\360\301\02503\032\3120\256f\264`4\222a\\\311h\301\300"
 200      331ACA30 
 200      AE66B460 
 200      3492615C 
 200      C968C1C0 
 201 0080 B8064800 		.ascii	"\270\006H\000\000n\2048\035"
 201      006E8438 
 201      1D
 202              		.text
 203              		.section	.gnu.lto_.symbol_nodes.58560d9a,"",%progbits
 204 0000 789C6361 		.ascii	"x\234ca`d\370\300\000\004Ll\365\014\014\023\31610\000"
 204      6064F8C0 
 204      00044C6C 
 204      F50C0C13 
 204      CE313000 
 205 0014 A99D0D0B 		.ascii	"\251\235\015\013\033\230\365\012\212\363\2233\3632K"
 205      1B98F50A 
 205      8AF39333 
 205      F3324B
 206 0023 80729CF5 		.ascii	"\200r\234\365\2140\271]\015\212H2\254\\\014\015B\014"
 206      8C30B95D 
 206      0D8A4832 
 206      AC5C0C0D 
 206      420C
 207 0035 0CCC8C82 		.ascii	"\014\314\214\202\365L`\025\014\014\015\015\012\014\014"
 207      F54C6015 
 207      0C0C0D0D 
 207      0A0C0C
 208 0044 8C02F5CC 		.ascii	"\214\002\365\314(|\376z\026\024>_=+\012\237\267\236"
 208      287CFE7A 
 208      16143E5F 
 208      3D2B0A9F 
 208      B79E
 209 0056 0D85CF53 		.ascii	"\015\205\317S\317\216\302\347\256\347@\34633p0\034y"
 209      CF8EC2E7 
ARM GAS  C:\Users\Daniela\AppData\Local\Temp\ccufXu0M.s 			page 16


 209      AEE740E6 
 209      33337030 
 209      1C79
 210 0068 F08F9199 		.ascii	"\360\217\221\231\201\235\341\011\230fchy\010\242Y\031"
 210      819DE109 
 210      98666368 
 210      7908A259 
 210      19
 211 0079 96806916 		.ascii	"\226\200i\026\206\226\2567\362\314@\225K@4#'CK\373\025"
 211      8696AE37 
 211      F2CC4095 
 211      4B403423 
 211      27434BFB 
 212 008e 7B664606 		.ascii	"{fF\006\206G\375o\344\031\000\030V:A"
 212      8647FD6F 
 212      E4190018 
 212      563A41
 213              		.text
 214              		.section	.gnu.lto_.refs.58560d9a,"",%progbits
 215 0000 789C6361 		.ascii	"x\234ca`d\340d```bd`bg`\342`\000\000\0018\000%"
 215      6064E064 
 215      60606062 
 215      64606267 
 215      60E26000 
 216              		.text
 217              		.section	.gnu.lto_.decls.58560d9a,"",%progbits
 218 0000 789CAD57 		.ascii	"x\234\255W{PT\327\031\277\337\275\273\013,\013\0304"
 218      7B5054D7 
 218      19BFDFBD 
 218      BB0B2C0B 
 218      1834
 219 0012 89ED6C1B 		.ascii	"\211\355l\033\264F\261\235\020Ml\306i\2473\351\220\230"
 219      B446B19D 
 219      104D6CC6 
 219      69A733E9 
 219      9098
 220 0024 765A8B53 		.ascii	"vZ\213S\243\235vh\235u\271\220\035a\027w\227Ii\377\310"
 220      A39D7668 
 220      9D75B990 
 220      1D611777 
 220      974969FF 
 221 0039 45F0FD5A 		.ascii	"E\360\375Z\360\201(\012\370\300\007 (\370\0001]\215"
 221      F081280A 
 221      F8C00720 
 221      28F80031 
 221      5D8D
 222 004b 127C10F1 		.ascii	"\022|\020\361\001\3620\202\"\032T\012\012\212H\220~"
 222      01F23082 
 222      221A540A 
 222      0A8A4890 
 222      7E
 223 005c E79C7B77 		.ascii	"\347\234{w\367ZW\373G\357\360q\357=\347\367}\337\357"
 223      F75A57FB 
 223      47EFF071 
 223      EF3DE7F7 
 223      7DDFEF
 224 006f 7BDC73CE 		.ascii	"{\334s\316j8\340\310U\375\032\307\265\362\034w\012_"
ARM GAS  C:\Users\Daniela\AppData\Local\Temp\ccufXu0M.s 			page 17


 224      6A38E0C8 
 224      55FD1AC7 
 224      B5F21C77 
 224      0A5F
 225 0081 47F0D2E0 		.ascii	"G\360\322\340\330\\\024\034\342JP*8v\005\241|\215r\036"
 225      D85C141C 
 225      E24A502A 
 225      387605A1 
 225      7C8D721E 
 226 0095 A51EE52A 		.ascii	"\245\036\345*J+J\033\312\015\224\016\224'(\304j(p\252"
 226      4A2B4A1B 
 226      CA0D940E 
 226      942728C4 
 226      6A2870AA 
 227 00a9 8BE885CB 		.ascii	"\213\350\205\313v'\241\214\306\371\327P\306\240\324"
 227      7627A18C 
 227      C6F9D750 
 227      C6A0D4
 228 00b8 E0FBEBC0 		.ascii	"\340\373\353\300\374\264\240\274\201\317\327\361>\026"
 228      FCB4A0BC 
 228      81CFD7F1 
 228      3E16
 229 00c6 EF6FA2FC 		.ascii	"\357o\242\374\000\245\021\337\177\010\214\317\005\331"
 229      00A511DF 
 229      7F088CCF 
 229      05D9
 230 00d4 66806CB7 		.ascii	"f\200l\267C\366\337&\363\271*\363{\376\"\274\177$sx"
 230      43F6DF26 
 230      F3B92AF3 
 230      7BFE22BC 
 230      7F247378 
 231 00e8 0B6DCDC2 		.ascii	"\013m\315\302\373\034\224\211(1(F\037^\204\243\036\357"
 231      FB1C9489 
 231      28312846 
 231      1F5E84A3 
 231      1EEF
 232 00fa 3A60BCC7 		.ascii	":`\274\307\240D\340\3638\224\020\024\003\312x\224\237"
 232      A044E0F3 
 232      38941014 
 232      03CA7894 
 232      9F
 233 010b A074E3DC 		.ascii	"\240t\343\334\004\274\017\340\375\247x\237\214\3623"
 233      04BC0FE0 
 233      FDA7789F 
 233      8CF233
 234 011a 62C3273E 		.ascii	"b\303'>\222\313\000|\326\240he.\357\001\313\027\211"
 234      92CB007C 
 234      D6A06865 
 234      2EEF01CB 
 234      1789
 235 012c 611ABC38 		.ascii	"a\032\2748o\344]#s$\\\015\262\177_{/\272\206y\330\365"
 235      6FE45D23 
 235      73245C0D 
 235      B27F5F7B 
 235      2FBA8679 
 236 0142 74A857E8 		.ascii	"t\250W\350\347a\242\036FF\004\034(\275_9\030\302\006"
 236      E761A21E 
ARM GAS  C:\Users\Daniela\AppData\Local\Temp\ccufXu0M.s 			page 18


 236      4646041C 
 236      28BD5F39 
 236      18C206
 237 0155 C87CDBE0 		.ascii	"\310|\333\340\236\031Q\305\022^.I\342y\257\342\236\202"
 237      9E1951C5 
 237      125E2E49 
 237      E279AFE2 
 237      9E82
 238 0167 9A72BD10 		.ascii	"\232r\275\020LA\247G\006\334a\250\023\256\007\036_/"
 238      4C41A747 
 238      06DC61A8 
 238      13AE071E 
 238      5F2F
 239 0179 F59EDF1A 		.ascii	"\365\236\337\032\214\257c\3640j\230\347s\327\237(\321"
 239      8CAF63F4 
 239      306A98E7 
 239      73D79F28 
 239      D1
 240 018a 813E7299 		.ascii	"\201>r\231$-\222\244tI\277'\224\203b0B\021\0309\330"
 240      242D92A4 
 240      7449BF27 
 240      94836230 
 240      42111839 
 241 019f 0F91C4D7 		.ascii	"\017\221\304\327^\210\342`\017\016\356\306\301B\342"
 241      5E88E260 
 241      0F0EEEC6 
 241      C142E2
 242 01ae AFBDA1F8 		.ascii	"\257\275\241\370W\225\2224\012J@\017\373@\240\020\214"
 242      57959234 
 242      0A4A400F 
 242      FB40A010 
 242      8C
 243 01bf 7FA29EFC 		.ascii	"\177\242\236\374\307A\364\364m\355\336\"\302~\022a?"
 243      C741F4F4 
 243      6DEDDE22 
 243      C27E1261 
 243      3F
 244 01d0 3212E6C3 		.ascii	"2\022\346\303\177\022\343\177\266\255\363a\2200\215"
 244      7F12E37F 
 244      B6ADF361 
 244      90308D
 245 01df 3E5FCC28 		.ascii	">_\314(\313\025\030M\015\276>\250\333\334\021\312hF"
 245      CB15184D 
 245      0DBE3EA8 
 245      DBDC11CA 
 245      6846
 246 01f1 20CDC33B 		.ascii	" \315\303;\362\372\264\012MW\272\024^\2134\313\221\321"
 246      F2FAB40A 
 246      4D57BA14 
 246      5E8B34CB 
 246      91D1
 247 0203 4142F310 		.ascii	"AB\363\020\322\234$\323,\303\301R\205\246\273\351\307"
 247      D29C24D3 
 247      2CC3C152 
 247      85A6BBE9 
 247      C7
 248 0214 120F15C8 		.ascii	"\022\017\025\310\361\200\227\343$\312\261\202r\334s"
ARM GAS  C:\Users\Daniela\AppData\Local\Temp\ccufXu0M.s 			page 19


 248      F18097E3 
 248      24CAB182 
 248      72DC73
 249 0223 B94FD2B7 		.ascii	"\271O\322\267B3\010\234\374)q\000\354?P\341\230\320"
 249      4233089C 
 249      FC297100 
 249      EC3F50E1 
 249      98D0
 250 0235 577CE039 		.ascii	"W|\3409\366\240\014y.\016\330\014/\217r^c\364O\326\247"
 250      F6A00C79 
 250      2E0ED80C 
 250      2F8F725E 
 250      63F44FD6 
 251 024a 99A01735 		.ascii	"\231\240\0275\342\265\016\262\022x\030\320i\246\004"
 251      E2B50EB2 
 251      127818D0 
 251      69A604
 252 0259 1EABECC6 		.ascii	"\036\253\354\306{5|\354=\307H\341\254\270\341x\245;"
 252      7B357CEC 
 252      3DC748E1 
 252      ACB8E178 
 252      A53B
 253 026b 8E5E6C9D 		.ascii	"\216^l\235,\374\222f\275\350\360\256*`Y\017\302\327"
 253      2CFC9266 
 253      BDE8F0AE 
 253      2A60590F 
 253      C2D7
 254 027d E6E1EDF9 		.ascii	"\346\341\355\371\301\372e\264\243h\222\311\204\222f"
 254      C1FA65B4 
 254      A36892C9 
 254      849266
 255 028c 0E2A0153 		.ascii	"\016*\001S\007\357\032\341(\276\"|\270\267~\330\300"
 255      07EF1AE1 
 255      28BE227C 
 255      B8B77ED8 
 255      C0
 256 029d B449322F 		.ascii	"\264I2/\337.\3100\260\232\325\223\351\206'\307\237\032"
 256      DF2EC830 
 256      B09AD593 
 256      E98627C7 
 256      9F1A
 257 02af 8419C491 		.ascii	"\204\031\304\221\246|Q[A(D\032\001\215\201\276P\351"
 257      A67C515B 
 257      4128441A 
 257      018D81BE 
 257      50E9
 258 02c1 590EDC58 		.ascii	"Y\016\334X\234j\222~vm\226\320{\357\027d\030\237\003"
 258      9C6A927E 
 258      766D96D0 
 258      7BEF1764 
 258      189F03
 259 02d4 E99D16BD 		.ascii	"\351\235\026\275w\273\244\033\313\301\373F\230\202\025"
 259      77BBA41B 
 259      CBC1FB46 
 259      988215
 260 02e3 3F8E1527 		.ascii	"?\216\025'\232\264\344\377B\233_2F\2136U\014\360\341"
 260      9AB4E4FF 
ARM GAS  C:\Users\Daniela\AppData\Local\Temp\ccufXu0M.s 			page 20


 260      429B5F32 
 260      468B3655 
 260      0CF0E1
 261 02f6 2ED9FC87 		.ascii	".\331\374\207@A\307p\276\212\006p\002\302\2250\010\372"
 261      4041C770 
 261      BE8A0670 
 261      02C29530 
 261      08FA
 262 0308 E48367AD 		.ascii	"\344\203g\255!\343~\227'm\212\240S\244\357\356f\036"
 262      21E37E97 
 262      276D8AA0 
 262      53A4EFEE 
 262      661E
 263 031a 0CD060AA 		.ascii	"\014\320`\252\340$\214\243\240\316\264\232\354\020a"
 263      E0248CA3 
 263      A0CEB49A 
 263      EC1061
 264 0329 2E4DD786 		.ascii	".M\327\206\312\355\273\2658\013\247\260\235\276\002"
 264      CAEDBBB5 
 264      380BA7B0 
 264      9DBE02
 265 0338 0D050C9F 		.ascii	"\015\005\014\237\331\262\231\037\273QNZ\204\006\346"
 265      D9B2991F 
 265      BB514E5A 
 265      8406E6
 266 0347 BEE193B3 		.ascii	"\276\341\223\263\032\030\213\377\347k\230\307\302{\371"
 266      1A188BFF 
 266      E76B98C7 
 266      C27BF9
 267 0356 93C6E74B 		.ascii	"\223\306\347K\3562\251}\270&\351\322\216%\222+\015y"
 267      EE32A97D 
 267      B826E9D2 
 267      8E25922B 
 267      0D79
 268 0368 52181C51 		.ascii	"R\030\034Qz\024N\203\206\274\221\332\035\206V\254\337"
 268      7A144E83 
 268      86BC91DA 
 268      1D8656AC 
 268      DF
 269 0379 D7301EB5 		.ascii	"\3270\036\265[\226\256\271\002\302b\200W\222?#\223W"
 269      5B96AEB9 
 269      02C26280 
 269      57923F23 
 269      9357
 270 038b 113E2B13 		.ascii	"\021>+\023\336\357Z\236\253G\026\371e\222\373x\226\220"
 270      DEEF5A9E 
 270      AB4716F9 
 270      6592FB78 
 270      9690
 271 039d 23B93390 		.ascii	"#\2713\220;O9\324z8\234C\016\265\276\034\316S\016\373"
 271      3B4F39D4 
 271      7A389C43 
 271      0EB5BE1C 
 271      CE530EFB 
 272 03b1 5B8E5404 		.ascii	"[\216T\004\013Y\214\303\306\313\375\203@\035\222u\000"
 272      0B598CC3 
 272      C6CBFD83 
ARM GAS  C:\Users\Daniela\AppData\Local\Temp\ccufXu0M.s 			page 21


 272      401D9275 
 272      00
 273 03c2 83C4B1A5 		.ascii	"\203\304\261\245\351\207\253\004\277\351\270@\323\361"
 273      E987AB04 
 273      BFE9B840 
 273      D3F1
 274 03d0 0DC8F9B8 		.ascii	"\015\310\371\270\337tc8\014\251\264\343\2222\270\342"
 274      DF746338 
 274      0CA9B4E3 
 274      9232B8E2 
 275 03e0 AF7D07A5 		.ascii	"\257}\007\245\214 \202\201:\357\367Z'w\007\324S\002"
 275      8C208281 
 275      3AEFF75A 
 275      277707D4 
 275      5302
 276 03f2 9B3ADB9B 		.ascii	"\233:\333\233\203\205jF\240\273'\257\216E\\\341!\320"
 276      83856A46 
 276      A0BB27AF 
 276      8E455CE1 
 276      21D0
 277 0404 7078F1FD 		.ascii	"px\361\375`\241\216\002\370\222\202U\245:\277\013G\203"
 277      60A18E02 
 277      F8928255 
 277      A53ABF0B 
 277      4783
 278 0416 BF85A3BD 		.ascii	"\277\205\243\275\241,\346\300R\222\224+h\367\362s\213"
 278      A12CE6C0 
 278      5292942B 
 278      68F7F273 
 278      8B
 279 0427 073AA93A 		.ascii	"\007:\251:Y8\3337H\002\363F\331H\243\274\244DY\336Y"
 279      5938DB37 
 279      4802F346 
 279      D948A3BC 
 279      A44459DE 
 280 043c 794AE389 		.ascii	"yJ\343\211r\306\315\035K\334.\240(\270\3505}Q\211\363"
 280      72C6CD1D 
 280      4BDC2EA0 
 280      28B8E835 
 280      7D5189F3 
 281 0450 2A8DF3CB 		.ascii	"*\215\363\313\357\273\326\202\320\350?\316G}\371w\003"
 281      EFBBD682 
 281      D0E83FCE 
 281      477DF977 
 281      03
 282 0461 FD26BA85 		.ascii	"\375&\272\205RhV(\254Ys\245;\210QpW.\305\232\237\324"
 282      52685628 
 282      AC5973A5 
 282      3B885170 
 282      572EC59A 
 283 0477 10083479 		.ascii	"\020\0104y\3757)\376[\251\377\241k\247\0074\302=\377"
 283      FD3729FE 
 283      5BA9FFA1 
 283      6BA70734 
 283      C23DFF
 284 048a FEB35CE5 		.ascii	"\376\263\\\345\367U\205\256P\345\340:%\360\255B`\305"
 284      F75585AE 
ARM GAS  C:\Users\Daniela\AppData\Local\Temp\ccufXu0M.s 			page 22


 284      50E5E03A 
 284      25F0AD42 
 284      60C5
 285 049c E9DABB20 		.ascii	"\351\332\273 \347 ;\353\323\023r\016\020\005\327\274"
 285      E7203BEB 
 285      D313720E 
 285      1005D7BC 
 286 04ac 1CAE291C 		.ascii	"\034\256)\034\332(\207\274\345;\236i\204]<\345p.\367"
 286      DA2887BC 
 286      E53B9E69 
 286      845D3CE5 
 286      702EF7
 287 04bf EA2D8327 		.ascii	"\352-\203'\213\177c\275Bbh\367\352\267+\3727\250~\361"
 287      8B7F63BD 
 287      426268F7 
 287      EAB72BFA 
 287      37A87EF1 
 288 04d3 C3C7BD82 		.ascii	"\303\307\275\202P\316\364\273\236]\235\340!\020\243"
 288      50CEF4BB 
 288      9E5D9DE0 
 288      2110A3
 289 04e2 10204D7F 		.ascii	"\020 M\177\323k\340\246b\240\203\032(=R\275Z+\234b\006"
 289      D36BE0A6 
 289      62A0831A 
 289      283D52BD 
 289      5A2B9C62 
 290 04f7 EA4ABB56 		.ascii	"\352J\273V\352\204s\354\245l\313\355\263$#\320I5\310"
 290      EA8473EC 
 290      A56CCBED 
 290      B32423D0 
 290      4935C8
 291 050a 489A7B77 		.ascii	"H\232{w\210P\317\246\267\357\332v)\210L\337\301i\270"
 291      8850CFA6 
 291      B7EFDA76 
 291      29884CDF 
 291      C169B8
 292 051d 0D3463CA 		.ascii	"\0154c\312\216\030\363\337;b\014\333\021w\016\366\034"
 292      8E18F3DF 
 292      3B620CDB 
 292      11770EF6 
 292      1C
 293 052e 31084DD4 		.ascii	"1\010M\324\006\237\277\272\244K\013\221l\265l\037\331"
 293      069FBFBA 
 293      A44B0B91 
 293      6CB56C1F 
 293      D9
 294 053f 18DBB798 		.ascii	"\030\333\267\230td7\246\371\236\227q\014\351\310\027"
 294      746437A6 
 294      F99E9771 
 294      0CE9C817 
 295 054f B7F77D6C 		.ascii	"\267\367}l\357\030\271\275\357\342`\027[$\233\252\317"
 295      EF18B9BD 
 295      EFE26017 
 295      5B249BAA 
 295      CF
 296 0560 F70BB498 		.ascii	"\367\013\264\230\335\236b6\3358\331\245\241c\263\364"
 296      DD9E6236 
ARM GAS  C:\Users\Daniela\AppData\Local\Temp\ccufXu0M.s 			page 23


 296      DD38D9A5 
 296      A163B3F4 
 297 0570 F06F46B7 		.ascii	"\360oF\267\247\345\324\010O\307\346\030\240\207\215"
 297      A7E5D408 
 297      4FC7E618 
 297      A0878D
 298 057f 35A6AF7A 		.ascii	"5\246\257z\034:\256M\310\223\002i\320\307s\272\312\231"
 298      1C3AAE4D 
 298      C8930269 
 298      D0C773BA 
 298      CA99
 299 0591 DE0379C9 		.ascii	"\336\003y\311y|s\365\272\000\341\206@\343y\220\327W"
 299      797C73F5 
 299      BA00E186 
 299      40E37990 
 299      D757
 300 05a3 A82369E8 		.ascii	"\250#i\350C\302\017\345\365\247\377ZN\265V\350b\210"
 300      43C20FE5 
 300      F5A7FF5A 
 300      4EB556E8 
 300      6288
 301 05b5 A2EC9DF5 		.ascii	"\242\354\235\3654\217\217H\242\372\231\227\201}5O\202"
 301      348F8F48 
 301      A2FA9997 
 301      817D354F 
 301      82
 302 05c6 7C5B0B09 		.ascii	"|[\013\011\310Q\301c\204\300\000m\256^\245\271\326\226"
 302      C851C163 
 302      84C0006D 
 302      AE5EA5B9 
 302      D696
 303 05d8 8FACA1DD 		.ascii	"\217\254\241\335\355\222\332/\267\031\263\323\363k%"
 303      ED92DA2F 
 303      B719B3D3 
 303      F36B25
 304 05e7 375CE709 		.ascii	"7\\\347\011\016ny\226\264\357pI\273\245\024\370\011"
 304      0E6E7996 
 304      B4EF7049 
 304      BBA514F8 
 304      09
 305 05f8 2DF0999E 		.ascii	"-\360\231\236\033C th(\227\241\357\3267\313\273\241"
 305      1B432074 
 305      682897A1 
 305      EFD637CB 
 305      BBA1
 306 060a 816C26C7 		.ascii	"\201l&\307\2323\303\330~\326N\246\253\373\257\205\011"
 306      9A33C3D8 
 306      7ED64EA6 
 306      ABFBAF85 
 306      09
 307 061b 4F18F4D0 		.ascii	"O\030\364\320\326\306m/\331)\207\225\235r\012\315\370"
 307      D6C66D2F 
 307      D9298795 
 307      9D720ACD 
 307      F8
 308 062c 95033DDF 		.ascii	"\225\003=\337\360\3022-U=\370\325@\213Ap\261\227\262"
 308      F0C2322D 
ARM GAS  C:\Users\Daniela\AppData\Local\Temp\ccufXu0M.s 			page 24


 308      553DF8D5 
 308      408B4170 
 308      B197B2
 309 063f 9C816FF5 		.ascii	"\234\201o\365$\374\021\245\215n\015\225T\2052\022:|"
 309      24FC11A5 
 309      8D6E0D95 
 309      54853212 
 309      3A7C
 310 0651 3D76A4BA 		.ascii	"=v\244\272F\313HL!}\225\326p.D\310\246\312\232Uk7\024"
 310      46CB484C 
 310      217D95D6 
 310      702E44C8 
 310      A6CA9A55 
 311 0668 06C384C8 		.ascii	"\006\303\204\310\321\023\266\223\372\343\226\022[\221"
 311      D113B693 
 311      FAE39612 
 311      5B91
 312 0676 BE442A8B 		.ascii	"\276D*\213\243\313q:/\300\022~\264\3674\367.aVN\370"
 312      A3CB713A 
 312      2FC0127E 
 312      B4F734F7 
 312      2E61564E 
 313 068b C9A7A3B6 		.ascii	"\311\247\243\266\2547$\334c\021DWwy\013\316d\273\347"
 313      AC3724DC 
 313      63114457 
 313      77790BCE 
 313      64BBE7
 314 069e 32091672 		.ascii	"2\011\026r\260\2107B\032\212\304c\326\2115\304\301b"
 314      B0883742 
 314      1A8AC463 
 314      D68935C4 
 314      C162
 315 06b0 3E1296F2 		.ascii	">\022\226\362\023 \203\237@5\250w\367\203\2541\270\225"
 315      1320839F 
 315      4035A877 
 315      F783AC31 
 315      B895
 316 06c2 640AA458 		.ascii	"d\012\244X\317\200\371\366\264\"\365=\325\310B<\263"
 316      CF80F9F6 
 316      B422F53D 
 316      D5C8423C 
 316      B3
 317 06d3 B123432B 		.ascii	"\261#C+\344\322 \370\245m\353\022 r4c\364\350\322\353"
 317      E4D220F8 
 317      A56DEB12 
 317      20723463 
 317      F4E8D2EB 
 318 06e7 84D10A54 		.ascii	"\204\321\012T]\206\364\031)J\320?/X\216t\374QCo%\253"
 318      5D86F419 
 318      294AD03F 
 318      2F588E74 
 318      FC51436F 
 319 06fd 9EA569BC 		.ascii	"\236\245i\274g\202\205\324\372\020\022{JK\265\222\017"
 319      678285D4 
 319      FA10127B 
 319      4A4BB592 
 319      0F
ARM GAS  C:\Users\Daniela\AppData\Local\Temp\ccufXu0M.s 			page 25


 320 070e 570A4637 		.ascii	"W\012F7\307\272\003\345\301\243e_\265/\363\305=\357"
 320      C7BA03E5 
 320      C1A3655F 
 320      B52FF3C5 
 320      3DEF
 321 0720 68755576 		.ascii	"huUv\272\301\327\321\252\2279*h\276}W\377\366\016\251"
 321      BAC1D7D1 
 321      AA97392A 
 321      68BE7D57 
 321      FFF60EA9 
 322 0734 1E8F0383 		.ascii	"\036\217\003\203Y\023\323p\027\216\200\325|8|\0174p"
 322      5913D370 
 322      178E80D5 
 322      7C387C0F 
 322      3470
 323 0746 1FCD411C 		.ascii	"\037\315A\034\371\024{d\015\3776\331z\212K7\011\244"
 323      F9147B64 
 323      0DFF36D9 
 323      7A8A4B37 
 323      09A4
 324 0758 F5D2FFB7 		.ascii	"\365\322\377\267\2230Q\271.\345j\205\275,\341\225G\357"
 324      933051B9 
 324      2EE56A85 
 324      BD2CE195 
 324      47EF
 325 076a 1587B22D 		.ascii	"\025\207\262-\361\005\026\262x\277[\342\223\230\314"
 325      F10516B2 
 325      78BF5BE2 
 325      9398CC
 326 0779 E56401CA 		.ascii	"\345d\001\312\344\365\340\342=\013\320Z^\216\350p\355"
 326      E4F5E0E2 
 326      3D0BD05A 
 326      5E8EE870 
 326      ED
 327 078a C5430186 		.ascii	"\305C\001\206\025\336\245\210\"\275\037\305:\336@\277"
 327      15DEA588 
 327      22BD1FC5 
 327      3ADE40BF 
 328 079a 3CBC938F 		.ascii	"<\274\223\217\255\263\364\216A\205&K\261\027\275\236"
 328      ADB3F48E 
 328      4185264B 
 328      B117BD9E 
 329 07aa 37281ED6 		.ascii	"7(\036\326S\205\201/;{\325\346[T\012\033d\363\033(:"
 329      5385812F 
 329      3B7BD5E6 
 329      5B540A1B 
 329      64F31B28 
 330 07bf ABFFD1B2 		.ascii	"\253\377\321\262@\025\372\272\012\275QFo\244\350u="
 330      4015FABA 
 330      0ABD5146 
 330      6FA4E875 
 330      3D
 331 07d0 0F567B72 		.ascii	"\017V{r\352zuFP\345\253m;\257\206\250\034d\253\242\335"
 331      EA7A7546 
 331      50E5AB6D 
 331      3BAF86A8 
 331      1C64ABA2 
ARM GAS  C:\Users\Daniela\AppData\Local\Temp\ccufXu0M.s 			page 26


 332 07e5 243BD844 		.ascii	"$;\330D\035T\325\365m\026T\350F\025\235\034\031\235"
 332      1D54D5F5 
 332      6D1654E8 
 332      46159D1C 
 332      199D
 333 07f7 43D1E78B 		.ascii	"C\321\347\213\367\336Q\243/\250\320\233e\364f\212.]"
 333      F7DE51A3 
 333      2FA8D09B 
 333      65F4668A 
 333      2E5D
 334 0809 7C6B6F20 		.ascii	"|ko .\021F\334V\300gO1\262=%'\263\343Y\260P\312\212"
 334      2E1146DC 
 334      56C0674F 
 334      31B23D25 
 334      27B3E359 
 335 0821 7FB9A3A8 		.ascii	"\177\271\243\250K\243\354)\356\206\353F\362\271\345"
 335      4BA3EC29 
 335      EE86EB46 
 335      F2B9E5
 336 0830 21F1ADDE 		.ascii	"!\361\255\336\202\032=;\212\372\320\275\015\023a\224"
 336      821A3D3B 
 336      8AFAD0BD 
 336      0D136194 
 337 0840 13918BDF 		.ascii	"\023\221\213\337\303\026\036\007Q\027}\354~z\177(LE"
 337      C3161E07 
 337      51177DEC 
 337      7E7A7F28 
 337      4C45
 338 0852 7895CFD7 		.ascii	"x\225\317\327\317A\276L8\237\022\356\276\333\273N\247"
 338      CF41BE4C 
 338      389F12EE 
 338      BEDBBB4E 
 338      A7
 339 0863 4293BEF7 		.ascii	"B\223\276\367\242\013dt\001E\177\275\262jQ\220\202&"
 339      A20B6474 
 339      01457FBD 
 339      B26A5190 
 339      8226
 340 0875 B5511F74 		.ascii	"\265Q\037t\346x\332d;\205\257-.\333\002z\371\367\254"
 340      E678DA64 
 340      3B85AF2D 
 340      2EDB027A 
 340      F9F7AC
 341 0888 EBD5BF67 		.ascii	"\353\325\277ga\007\215\240\276\370D\223\272\035\007"
 341      61078DA0 
 341      BEF84493 
 341      BA1D07
 342 0897 5429DF29 		.ascii	"T)\337)s\332I\235\364g\3645\352X\277\274:G\344\350\320"
 342      73DA499D 
 342      F467F435 
 342      EA58BFBC 
 342      3A47E4E8 
 343 08ac 55301220 		.ascii	"U0\022 \034b5(\337\220\263!@\371\000\325\352{^\240\316"
 343      1C623528 
 343      DF90B321 
 343      40F900D5 
 343      EA7B5EA0 
ARM GAS  C:\Users\Daniela\AppData\Local\Temp\ccufXu0M.s 			page 27


 344 08c1 4A3578E7 		.ascii	"J5x\3477xJ\007\330\215\265*\364\326j\227\362\361\025"
 344      37784A07 
 344      D88DB52A 
 344      F4D66A97 
 344      F2F115
 345 08d4 6CB97733 		.ascii	"l\271w3Xa\344z\205Ir \334\332\3600T\025\357^U\373\356"
 345      5861E47A 
 345      85497220 
 345      DCDAF030 
 345      5415EF5E 
 346 08eb 93E3DD47 		.ascii	"\223\343\335G\343\255\250\357.\325\252\320\273U\350"
 346      E3ADA8EF 
 346      2ED5AAD0 
 346      BB55E8
 347 08fa 22195D44 		.ascii	"\"\031]D\321kv}w%P\250b;\\\355\361\272\177\012\247\330"
 347      D16B767D 
 347      772550A8 
 347      623B5CED 
 347      F1BA7F0A 
 348 0910 F3D98EDB 		.ascii	"\363\331\216\333G\351q\240\204\227w\273\227\237E\260"
 348      47E971A0 
 348      849777BB 
 348      979F45B0 
 349 0920 B6A53C1D 		.ascii	"\266\245<\035;}v[w\210\337\303\356\001\236\034\007\312"
 349      3B7D765B 
 349      7788DFC3 
 349      EE019E1C 
 349      07CA
 350 0932 78F938B0 		.ascii	"x\3718\260~\260\352\241V\371\231\265d\346E\3663+\377"
 350      7EB0EAA1 
 350      56F999B5 
 350      64E645F6 
 350      332BFF
 351 0945 430A8462 		.ascii	"C\012\204b%{\260\037\027\364b\336\347'\316A\236\234"
 351      257BB01F 
 351      17F462DE 
 351      E727CE41 
 351      9E9C
 352 0957 09DAAA16 		.ascii	"\011\332\252\026\037\014\026\3161\312\035+\363\2325"
 352      1F0C16CE 
 352      31CA1D2B 
 352      F39A35
 353 0966 CC96BBF1 		.ascii	"\314\226\273\361\202\201\031bK\225\267\012\345\276F"
 353      82811962 
 353      4B95B70A 
 353      E5BE46
 354 0975 2AF8F15C 		.ascii	"*\370\361\\\340'\177\230\023\021=u*\247K\261X\235S?"
 354      E0277F98 
 354      13113D75 
 354      2AA74BB1 
 354      589D533F 
 355 0989 18F78968 		.ascii	"\030\367\211h\025\355&\247\0307o\266-\305n\026cg\315"
 355      15ED26A7 
 355      18376FB6 
 355      2DC56E16 
 355      6367CD
 356 099c B6454F8B 		.ascii	"\266EO\2135\247:S\223EG\324g\014\370\376{\372\350D\233"
ARM GAS  C:\Users\Daniela\AppData\Local\Temp\ccufXu0M.s 			page 28


 356      35A73A53 
 356      934547D4 
 356      670CF8FE 
 356      7BFAE844 
 357 09b1 79C16CD1 		.ascii	"y\301l\321\231\222\2541\177f\262\353\243\222\0356\263"
 357      9992AC31 
 357      7F66B2EB 
 357      A3921D36 
 357      B3
 358 09c2 C56A7172 		.ascii	"\305jqr\001\016\321\354\264\330\254\023\375\332\212"
 358      010ED1EC 
 358      B4D8AC13 
 358      FDDA8A
 359 09d1 B7389DA2 		.ascii	"\2678\235\242}\2369>!\312\314\031|\337\203\242S?\022"
 359      7D9E393E 
 359      21CACC19 
 359      7CDF83A2 
 359      533F12
 360 09e4 134DA973 		.ascii	"\023M\251s\034o\371\321\216N\375\275e>\362\030\025\235"
 360      1C6FF9D1 
 360      8E4EFDBD 
 360      653EF218 
 360      159D
 361 09f6 3A3BD511 		.ascii	":;\325\021\235\270\340c\263m\266\323dw\006\232S\035"
 361      9DB8E063 
 361      B36DB6D3 
 361      6477069A 
 361      531D
 362 0a08 4E9333C5 		.ascii	"N\2233\3051F\231\371\223\335\342\024\177\233d\233a\027"
 362      314699F9 
 362      93DDE214 
 362      7F9B649B 
 362      6117
 363 0a1a 17BEE919 		.ascii	"\027\276\351\031D\270\350\234e\373\\\264\317\264\305"
 363      44B8E89C 
 363      65FB5CB4 
 363      CFB4C5
 364 0a29 89FE0246 		.ascii	"\211\376\002F73\020\215\216BdJ\321\251\346D\3211\312"
 364      3733108D 
 364      8E42644A 
 364      D1A9E644 
 364      D131CA
 365 0a3c D70E71AB 		.ascii	"\327\016q\253K\022\223\034\242S\223(\232\342\003\254"
 365      4B12931C 
 365      A2539328 
 365      9AE203AC 
 366 0a4c 36E76776 		.ascii	"6\347gv\333\347:\207\345\037\342<\347\027\346_\304&"
 366      DBE73A87 
 366      E51FE23C 
 366      E717E65F 
 366      C426
 367 0a5e DB6D0976 		.ascii	"\333m\011vSRD\274\005\225#\"\377>\375\203\311\230\200"
 367      535244BC 
 367      05952322 
 367      FF3EFD83 
 367      C99880
 368 0a71 64BBE870 		.ascii	"d\273\350p\304\222\214E\230\355\242\311i\263\307N\213"
ARM GAS  C:\Users\Daniela\AppData\Local\Temp\ccufXu0M.s 			page 29


 368      C4928C45 
 368      98EDA2C9 
 368      69B3C74E 
 368      8B
 369 0a82 9AAA1EB0 		.ascii	"\232\252\036\260$%\333\354\316\330\004kJ\254\311\236"
 369      2425DBEC 
 369      CED8046B 
 369      4AACC99E 
 370 0a92 14FBF328 		.ascii	"\024\373\363(\202H\264\314\217M0\233\311\310;V\233U"
 370      8248B4CC 
 370      8F4D309B 
 370      C9C83B56 
 370      9B55
 371 0aa4 7C4734CD 		.ascii	"|G4\315\267\310s\026\25391%N\214u8\343\342\304xd\016"
 371      B7C87316 
 371      AB393125 
 371      4E8C7538 
 371      E3E2C478 
 372 0aba 5303E2AD 		.ascii	"S\003\342\255\021\216d\321\214\304\254\326\224\304\304"
 372      118E64D1 
 372      8CC4ACD6 
 372      94C4C4
 373 0ac9 85FF7F46 		.ascii	"\205\377\177Fj&^\016v\2135\0019\214\301\242\316c)\232"
 373      6A265E0E 
 373      768B3501 
 373      398CC1A2 
 373      CE63299A 
 374 0add 97687138 		.ascii	"\227hq8\243\246M\237>-\354\271\301\000S\\\034\361\257"
 374      A3A64D9F 
 374      3E2DECB9 
 374      C100535C 
 374      1CF1AF
 375 0af0 4B369917 		.ascii	"K6\231\027\210q\032\222>\203\017\306\251\265\213\011"
 375      88711A92 
 375      3E830FC6 
 375      A9B58B09 
 376 0b00 EFBFA725 		.ascii	"\357\277\247%\2557]\203\317\323\203\242\377<\363\343"
 376      AD375D83 
 376      CFD383A2 
 376      FF3CF3E3 
 377 0b10 997FF9F8 		.ascii	"\231\177\371\370\2171\272\024k\212C\214\033\365k\253"
 377      8F31BA14 
 377      6B8A438C 
 377      1BF56BAB 
 378 0b20 29D19680 		.ascii	")\321\226\200\245\375H\2147\245$:\377\003}\374L\213"
 378      A5FD488C 
 378      37A5243A 
 378      FF037DFC 
 378      4C8B
 379              		.text
 380              		.section	.gnu.lto_.symtab.58560d9a,"",%progbits
 381 0000 63796669 		.ascii	"cyfitter_cfg\000"
 381      74746572 
 381      5F636667 
 381      00
 382 000d 00       		.ascii	"\000"
 383 000e 00       		.ascii	"\000"
ARM GAS  C:\Users\Daniela\AppData\Local\Temp\ccufXu0M.s 			page 30


 384 000f 00       		.ascii	"\000"
 385 0010 00000000 		.ascii	"\000\000\000\000\000\000\000\000"
 385      00000000 
 386 0018 CC000000 		.ascii	"\314\000\000\000"
 387 001c 43794465 		.ascii	"CyDelayUs\000"
 387      6C617955 
 387      7300
 388 0026 00       		.ascii	"\000"
 389 0027 02       		.ascii	"\002"
 390 0028 00       		.ascii	"\000"
 391 0029 00000000 		.ascii	"\000\000\000\000\000\000\000\000"
 391      00000000 
 392 0031 D0000000 		.ascii	"\320\000\000\000"
 393 0035 43795379 		.ascii	"CySysClkEcoStart\000"
 393      73436C6B 
 393      45636F53 
 393      74617274 
 393      00
 394 0046 00       		.ascii	"\000"
 395 0047 02       		.ascii	"\002"
 396 0048 00       		.ascii	"\000"
 397 0049 00000000 		.ascii	"\000\000\000\000\000\000\000\000"
 397      00000000 
 398 0051 D7000000 		.ascii	"\327\000\000\000"
 399 0055 43795379 		.ascii	"CySysClkWriteImoFreq\000"
 399      73436C6B 
 399      57726974 
 399      65496D6F 
 399      46726571 
 400 006a 00       		.ascii	"\000"
 401 006b 02       		.ascii	"\002"
 402 006c 00       		.ascii	"\000"
 403 006d 00000000 		.ascii	"\000\000\000\000\000\000\000\000"
 403      00000000 
 404 0075 DB000000 		.ascii	"\333\000\000\000"
 405 0079 43795379 		.ascii	"CySysClkWcoSetPowerMode\000"
 405      73436C6B 
 405      57636F53 
 405      6574506F 
 405      7765724D 
 406 0091 00       		.ascii	"\000"
 407 0092 02       		.ascii	"\002"
 408 0093 00       		.ascii	"\000"
 409 0094 00000000 		.ascii	"\000\000\000\000\000\000\000\000"
 409      00000000 
 410 009c DF000000 		.ascii	"\337\000\000\000"
 411 00a0 43794465 		.ascii	"CyDelayCycles\000"
 411      6C617943 
 411      79636C65 
 411      7300
 412 00ae 00       		.ascii	"\000"
 413 00af 02       		.ascii	"\002"
 414 00b0 00       		.ascii	"\000"
 415 00b1 00000000 		.ascii	"\000\000\000\000\000\000\000\000"
 415      00000000 
 416 00b9 E1000000 		.ascii	"\341\000\000\000"
 417 00bd 43795379 		.ascii	"CySysClkWcoStart\000"
ARM GAS  C:\Users\Daniela\AppData\Local\Temp\ccufXu0M.s 			page 31


 417      73436C6B 
 417      57636F53 
 417      74617274 
 417      00
 418 00ce 00       		.ascii	"\000"
 419 00cf 02       		.ascii	"\002"
 420 00d0 00       		.ascii	"\000"
 421 00d1 00000000 		.ascii	"\000\000\000\000\000\000\000\000"
 421      00000000 
 422 00d9 E3000000 		.ascii	"\343\000\000\000"
 423              		.text
 424              		.section	.gnu.lto_.opts,"",%progbits
 425 0000 272D666D 		.ascii	"'-fmath-errno' '-fsigned-zeros' '-ftrapping-math' '"
 425      6174682D 
 425      6572726E 
 425      6F272027 
 425      2D667369 
 426 0033 2D666E6F 		.ascii	"-fno-trapv' '-fno-openmp' '-fno-openacc' '-mcpu=cor"
 426      2D747261 
 426      70762720 
 426      272D666E 
 426      6F2D6F70 
 427 0066 7465782D 		.ascii	"tex-m0' '-mthumb' '-g' '-O3' '-ffunction-sections' "
 427      6D302720 
 427      272D6D74 
 427      68756D62 
 427      2720272D 
 428 0099 272D6666 		.ascii	"'-ffat-lto-objects' '-finline-functions' '-flto'\000"
 428      61742D6C 
 428      746F2D6F 
 428      626A6563 
 428      74732720 
 429              		.text
 430              		.cfi_sections	.debug_frame
 431              		.section	.psocinit,"ax",%progbits
 432              		.align	2
 433              		.global	cyfitter_cfg
 434              		.code	16
 435              		.thumb_func
 436              		.type	cyfitter_cfg, %function
 437              	cyfitter_cfg:
 438              	.LFB7:
 439              		.file 1 "Generated_Source\\PSoC4\\cyfitter_cfg.c"
   1:Generated_Source\PSoC4/cyfitter_cfg.c **** 
   2:Generated_Source\PSoC4/cyfitter_cfg.c **** /*******************************************************************************
   3:Generated_Source\PSoC4/cyfitter_cfg.c **** * File Name: cyfitter_cfg.c
   4:Generated_Source\PSoC4/cyfitter_cfg.c **** * 
   5:Generated_Source\PSoC4/cyfitter_cfg.c **** * PSoC Creator  4.1 Update 1
   6:Generated_Source\PSoC4/cyfitter_cfg.c **** *
   7:Generated_Source\PSoC4/cyfitter_cfg.c **** * Description:
   8:Generated_Source\PSoC4/cyfitter_cfg.c **** * This file contains device initialization code.
   9:Generated_Source\PSoC4/cyfitter_cfg.c **** * Except for the user defined sections in CyClockStartupError(), this file should not be modified.
  10:Generated_Source\PSoC4/cyfitter_cfg.c **** * This file is automatically generated by PSoC Creator.
  11:Generated_Source\PSoC4/cyfitter_cfg.c **** *
  12:Generated_Source\PSoC4/cyfitter_cfg.c **** ********************************************************************************
  13:Generated_Source\PSoC4/cyfitter_cfg.c **** * Copyright (c) 2007-2017 Cypress Semiconductor.  All rights reserved.
  14:Generated_Source\PSoC4/cyfitter_cfg.c **** * You may use this file only in accordance with the license, terms, conditions, 
ARM GAS  C:\Users\Daniela\AppData\Local\Temp\ccufXu0M.s 			page 32


  15:Generated_Source\PSoC4/cyfitter_cfg.c **** * disclaimers, and limitations in the end user license agreement accompanying 
  16:Generated_Source\PSoC4/cyfitter_cfg.c **** * the software package with which this file was provided.
  17:Generated_Source\PSoC4/cyfitter_cfg.c **** ********************************************************************************/
  18:Generated_Source\PSoC4/cyfitter_cfg.c **** 
  19:Generated_Source\PSoC4/cyfitter_cfg.c **** #include <string.h>
  20:Generated_Source\PSoC4/cyfitter_cfg.c **** #include "cytypes.h"
  21:Generated_Source\PSoC4/cyfitter_cfg.c **** #include "cydevice_trm.h"
  22:Generated_Source\PSoC4/cyfitter_cfg.c **** #include "cyfitter.h"
  23:Generated_Source\PSoC4/cyfitter_cfg.c **** #include "CyLib.h"
  24:Generated_Source\PSoC4/cyfitter_cfg.c **** #include "cyfitter_cfg.h"
  25:Generated_Source\PSoC4/cyfitter_cfg.c **** 
  26:Generated_Source\PSoC4/cyfitter_cfg.c **** 
  27:Generated_Source\PSoC4/cyfitter_cfg.c **** #if defined(__GNUC__) || defined(__ARMCC_VERSION)
  28:Generated_Source\PSoC4/cyfitter_cfg.c ****     #define CYPACKED 
  29:Generated_Source\PSoC4/cyfitter_cfg.c ****     #define CYPACKED_ATTR __attribute__ ((packed))
  30:Generated_Source\PSoC4/cyfitter_cfg.c ****     #define CYALIGNED __attribute__ ((aligned))
  31:Generated_Source\PSoC4/cyfitter_cfg.c ****     #define CY_CFG_UNUSED __attribute__ ((unused))
  32:Generated_Source\PSoC4/cyfitter_cfg.c ****     #ifndef CY_CFG_SECTION
  33:Generated_Source\PSoC4/cyfitter_cfg.c ****         #define CY_CFG_SECTION __attribute__ ((section(".psocinit")))
  34:Generated_Source\PSoC4/cyfitter_cfg.c ****     #endif
  35:Generated_Source\PSoC4/cyfitter_cfg.c ****     
  36:Generated_Source\PSoC4/cyfitter_cfg.c ****     #if defined(__ARMCC_VERSION)
  37:Generated_Source\PSoC4/cyfitter_cfg.c ****         #define CY_CFG_MEMORY_BARRIER() __memory_changed()
  38:Generated_Source\PSoC4/cyfitter_cfg.c ****     #else
  39:Generated_Source\PSoC4/cyfitter_cfg.c ****         #define CY_CFG_MEMORY_BARRIER() __sync_synchronize()
  40:Generated_Source\PSoC4/cyfitter_cfg.c ****     #endif
  41:Generated_Source\PSoC4/cyfitter_cfg.c ****     
  42:Generated_Source\PSoC4/cyfitter_cfg.c **** #elif defined(__ICCARM__)
  43:Generated_Source\PSoC4/cyfitter_cfg.c ****     #include <intrinsics.h>
  44:Generated_Source\PSoC4/cyfitter_cfg.c **** 
  45:Generated_Source\PSoC4/cyfitter_cfg.c ****     #define CYPACKED __packed
  46:Generated_Source\PSoC4/cyfitter_cfg.c ****     #define CYPACKED_ATTR 
  47:Generated_Source\PSoC4/cyfitter_cfg.c ****     #define CYALIGNED _Pragma("data_alignment=4")
  48:Generated_Source\PSoC4/cyfitter_cfg.c ****     #define CY_CFG_UNUSED _Pragma("diag_suppress=Pe177")
  49:Generated_Source\PSoC4/cyfitter_cfg.c ****     #define CY_CFG_SECTION _Pragma("location=\".psocinit\"")
  50:Generated_Source\PSoC4/cyfitter_cfg.c ****     
  51:Generated_Source\PSoC4/cyfitter_cfg.c ****     #define CY_CFG_MEMORY_BARRIER() __DMB()
  52:Generated_Source\PSoC4/cyfitter_cfg.c ****     
  53:Generated_Source\PSoC4/cyfitter_cfg.c **** #else
  54:Generated_Source\PSoC4/cyfitter_cfg.c ****     #error Unsupported toolchain
  55:Generated_Source\PSoC4/cyfitter_cfg.c **** #endif
  56:Generated_Source\PSoC4/cyfitter_cfg.c **** 
  57:Generated_Source\PSoC4/cyfitter_cfg.c **** #ifndef CYCODE
  58:Generated_Source\PSoC4/cyfitter_cfg.c ****     #define CYCODE
  59:Generated_Source\PSoC4/cyfitter_cfg.c **** #endif
  60:Generated_Source\PSoC4/cyfitter_cfg.c **** #ifndef CYDATA
  61:Generated_Source\PSoC4/cyfitter_cfg.c ****     #define CYDATA
  62:Generated_Source\PSoC4/cyfitter_cfg.c **** #endif
  63:Generated_Source\PSoC4/cyfitter_cfg.c **** #ifndef CYFAR
  64:Generated_Source\PSoC4/cyfitter_cfg.c ****     #define CYFAR
  65:Generated_Source\PSoC4/cyfitter_cfg.c **** #endif
  66:Generated_Source\PSoC4/cyfitter_cfg.c **** #ifndef CYXDATA
  67:Generated_Source\PSoC4/cyfitter_cfg.c ****     #define CYXDATA
  68:Generated_Source\PSoC4/cyfitter_cfg.c **** #endif
  69:Generated_Source\PSoC4/cyfitter_cfg.c **** 
  70:Generated_Source\PSoC4/cyfitter_cfg.c **** 
  71:Generated_Source\PSoC4/cyfitter_cfg.c **** CY_CFG_UNUSED
ARM GAS  C:\Users\Daniela\AppData\Local\Temp\ccufXu0M.s 			page 33


  72:Generated_Source\PSoC4/cyfitter_cfg.c **** static void CYMEMZERO(void *s, size_t n);
  73:Generated_Source\PSoC4/cyfitter_cfg.c **** CY_CFG_UNUSED
  74:Generated_Source\PSoC4/cyfitter_cfg.c **** static void CYMEMZERO(void *s, size_t n)
  75:Generated_Source\PSoC4/cyfitter_cfg.c **** {
  76:Generated_Source\PSoC4/cyfitter_cfg.c **** 	(void)memset(s, 0, n);
  77:Generated_Source\PSoC4/cyfitter_cfg.c **** }
  78:Generated_Source\PSoC4/cyfitter_cfg.c **** CY_CFG_UNUSED
  79:Generated_Source\PSoC4/cyfitter_cfg.c **** static void CYCONFIGCPY(void *dest, const void *src, size_t n);
  80:Generated_Source\PSoC4/cyfitter_cfg.c **** CY_CFG_UNUSED
  81:Generated_Source\PSoC4/cyfitter_cfg.c **** static void CYCONFIGCPY(void *dest, const void *src, size_t n)
  82:Generated_Source\PSoC4/cyfitter_cfg.c **** {
  83:Generated_Source\PSoC4/cyfitter_cfg.c **** 	(void)memcpy(dest, src, n);
  84:Generated_Source\PSoC4/cyfitter_cfg.c **** }
  85:Generated_Source\PSoC4/cyfitter_cfg.c **** CY_CFG_UNUSED
  86:Generated_Source\PSoC4/cyfitter_cfg.c **** static void CYCONFIGCPYCODE(void *dest, const void *src, size_t n);
  87:Generated_Source\PSoC4/cyfitter_cfg.c **** CY_CFG_UNUSED
  88:Generated_Source\PSoC4/cyfitter_cfg.c **** static void CYCONFIGCPYCODE(void *dest, const void *src, size_t n)
  89:Generated_Source\PSoC4/cyfitter_cfg.c **** {
  90:Generated_Source\PSoC4/cyfitter_cfg.c **** 	(void)memcpy(dest, src, n);
  91:Generated_Source\PSoC4/cyfitter_cfg.c **** }
  92:Generated_Source\PSoC4/cyfitter_cfg.c **** 
  93:Generated_Source\PSoC4/cyfitter_cfg.c **** 
  94:Generated_Source\PSoC4/cyfitter_cfg.c **** 
  95:Generated_Source\PSoC4/cyfitter_cfg.c **** 
  96:Generated_Source\PSoC4/cyfitter_cfg.c **** /* Clock startup error codes                                                   */
  97:Generated_Source\PSoC4/cyfitter_cfg.c **** #define CYCLOCKSTART_NO_ERROR    0u
  98:Generated_Source\PSoC4/cyfitter_cfg.c **** #define CYCLOCKSTART_XTAL_ERROR  1u
  99:Generated_Source\PSoC4/cyfitter_cfg.c **** #define CYCLOCKSTART_32KHZ_ERROR 2u
 100:Generated_Source\PSoC4/cyfitter_cfg.c **** #define CYCLOCKSTART_PLL_ERROR   3u
 101:Generated_Source\PSoC4/cyfitter_cfg.c **** #define CYCLOCKSTART_FLL_ERROR   4u
 102:Generated_Source\PSoC4/cyfitter_cfg.c **** 
 103:Generated_Source\PSoC4/cyfitter_cfg.c **** 
 104:Generated_Source\PSoC4/cyfitter_cfg.c **** #ifdef CY_NEED_CYCLOCKSTARTUPERROR
 105:Generated_Source\PSoC4/cyfitter_cfg.c **** /*******************************************************************************
 106:Generated_Source\PSoC4/cyfitter_cfg.c **** * Function Name: CyClockStartupError
 107:Generated_Source\PSoC4/cyfitter_cfg.c **** ********************************************************************************
 108:Generated_Source\PSoC4/cyfitter_cfg.c **** * Summary:
 109:Generated_Source\PSoC4/cyfitter_cfg.c **** *  If an error is encountered during clock configuration (crystal startup error,
 110:Generated_Source\PSoC4/cyfitter_cfg.c **** *  PLL lock error, etc.), the system will end up here.  Unless reimplemented by
 111:Generated_Source\PSoC4/cyfitter_cfg.c **** *  the customer, this function will stop in an infinite loop.
 112:Generated_Source\PSoC4/cyfitter_cfg.c **** *
 113:Generated_Source\PSoC4/cyfitter_cfg.c **** * Parameters:
 114:Generated_Source\PSoC4/cyfitter_cfg.c **** *   void
 115:Generated_Source\PSoC4/cyfitter_cfg.c **** *
 116:Generated_Source\PSoC4/cyfitter_cfg.c **** * Return:
 117:Generated_Source\PSoC4/cyfitter_cfg.c **** *   void
 118:Generated_Source\PSoC4/cyfitter_cfg.c **** *
 119:Generated_Source\PSoC4/cyfitter_cfg.c **** *******************************************************************************/
 120:Generated_Source\PSoC4/cyfitter_cfg.c **** CY_CFG_UNUSED
 121:Generated_Source\PSoC4/cyfitter_cfg.c **** static void CyClockStartupError(uint8 errorCode);
 122:Generated_Source\PSoC4/cyfitter_cfg.c **** CY_CFG_UNUSED
 123:Generated_Source\PSoC4/cyfitter_cfg.c **** static void CyClockStartupError(uint8 errorCode)
 124:Generated_Source\PSoC4/cyfitter_cfg.c **** {
 125:Generated_Source\PSoC4/cyfitter_cfg.c ****     /* To remove the compiler warning if errorCode not used. */
 126:Generated_Source\PSoC4/cyfitter_cfg.c **** #if defined(CY_PSOC3) && (CY_PSOC3)
 127:Generated_Source\PSoC4/cyfitter_cfg.c ****     errorCode = errorCode;
 128:Generated_Source\PSoC4/cyfitter_cfg.c **** #else
ARM GAS  C:\Users\Daniela\AppData\Local\Temp\ccufXu0M.s 			page 34


 129:Generated_Source\PSoC4/cyfitter_cfg.c ****     (void)errorCode;
 130:Generated_Source\PSoC4/cyfitter_cfg.c **** #endif /* CY_PSOC3 */
 131:Generated_Source\PSoC4/cyfitter_cfg.c **** 
 132:Generated_Source\PSoC4/cyfitter_cfg.c ****     /* If we have a clock startup error (bad MHz crystal, PLL lock, etc.),  */
 133:Generated_Source\PSoC4/cyfitter_cfg.c ****     /* we will end up here to allow the customer to implement something to  */
 134:Generated_Source\PSoC4/cyfitter_cfg.c ****     /* deal with the clock condition.                                       */
 135:Generated_Source\PSoC4/cyfitter_cfg.c **** 
 136:Generated_Source\PSoC4/cyfitter_cfg.c **** #ifdef CY_CFG_CLOCK_STARTUP_ERROR_CALLBACK
 137:Generated_Source\PSoC4/cyfitter_cfg.c ****     CY_CFG_Clock_Startup_ErrorCallback();
 138:Generated_Source\PSoC4/cyfitter_cfg.c **** #else
 139:Generated_Source\PSoC4/cyfitter_cfg.c ****     /*  If not using CY_CFG_CLOCK_STARTUP_ERROR_CALLBACK, place your clock startup code here. */
 140:Generated_Source\PSoC4/cyfitter_cfg.c ****     /* `#START CyClockStartupError` */
 141:Generated_Source\PSoC4/cyfitter_cfg.c **** 
 142:Generated_Source\PSoC4/cyfitter_cfg.c **** 
 143:Generated_Source\PSoC4/cyfitter_cfg.c **** 
 144:Generated_Source\PSoC4/cyfitter_cfg.c ****     /* `#END` */
 145:Generated_Source\PSoC4/cyfitter_cfg.c **** 
 146:Generated_Source\PSoC4/cyfitter_cfg.c ****     while(1) {}
 147:Generated_Source\PSoC4/cyfitter_cfg.c **** #endif /* CY_CFG_CLOCK_STARTUP_ERROR_CALLBACK */
 148:Generated_Source\PSoC4/cyfitter_cfg.c **** }
 149:Generated_Source\PSoC4/cyfitter_cfg.c **** #endif
 150:Generated_Source\PSoC4/cyfitter_cfg.c **** 
 151:Generated_Source\PSoC4/cyfitter_cfg.c **** 
 152:Generated_Source\PSoC4/cyfitter_cfg.c **** 
 153:Generated_Source\PSoC4/cyfitter_cfg.c **** /*******************************************************************************
 154:Generated_Source\PSoC4/cyfitter_cfg.c **** * Function Name: ClockSetup
 155:Generated_Source\PSoC4/cyfitter_cfg.c **** ********************************************************************************
 156:Generated_Source\PSoC4/cyfitter_cfg.c **** *
 157:Generated_Source\PSoC4/cyfitter_cfg.c **** * Summary:
 158:Generated_Source\PSoC4/cyfitter_cfg.c **** *   Performs the initialization of all of the clocks in the device based on the
 159:Generated_Source\PSoC4/cyfitter_cfg.c **** *   settings in the Clock tab of the DWR.  This includes enabling the requested
 160:Generated_Source\PSoC4/cyfitter_cfg.c **** *   clocks and setting the necessary dividers to produce the desired frequency. 
 161:Generated_Source\PSoC4/cyfitter_cfg.c **** *
 162:Generated_Source\PSoC4/cyfitter_cfg.c **** * Parameters:
 163:Generated_Source\PSoC4/cyfitter_cfg.c **** *   void
 164:Generated_Source\PSoC4/cyfitter_cfg.c **** *
 165:Generated_Source\PSoC4/cyfitter_cfg.c **** * Return:
 166:Generated_Source\PSoC4/cyfitter_cfg.c **** *   void
 167:Generated_Source\PSoC4/cyfitter_cfg.c **** *
 168:Generated_Source\PSoC4/cyfitter_cfg.c **** *******************************************************************************/
 169:Generated_Source\PSoC4/cyfitter_cfg.c **** static void ClockSetup(void);
 170:Generated_Source\PSoC4/cyfitter_cfg.c **** CY_CFG_SECTION
 171:Generated_Source\PSoC4/cyfitter_cfg.c **** static void ClockSetup(void)
 172:Generated_Source\PSoC4/cyfitter_cfg.c **** {
 173:Generated_Source\PSoC4/cyfitter_cfg.c **** 
 174:Generated_Source\PSoC4/cyfitter_cfg.c **** 	/* Set Flash Cycles based on max possible frequency in case a glitch occurs during ClockSetup(). *
 175:Generated_Source\PSoC4/cyfitter_cfg.c **** 	CY_SET_REG32((void CYXDATA *)(CYREG_CPUSS_FLASH_CTL), (0x0012u));
 176:Generated_Source\PSoC4/cyfitter_cfg.c **** 
 177:Generated_Source\PSoC4/cyfitter_cfg.c **** 	/* Start the WCO */
 178:Generated_Source\PSoC4/cyfitter_cfg.c **** 	CySysClkWcoStart();
 179:Generated_Source\PSoC4/cyfitter_cfg.c **** 	CyDelayCycles(12000000u); /* WCO may take up to 500ms to start */
 180:Generated_Source\PSoC4/cyfitter_cfg.c **** 	(void)CySysClkWcoSetPowerMode(CY_SYS_CLK_WCO_LPM);    /* Switch to the low power mode */
 181:Generated_Source\PSoC4/cyfitter_cfg.c **** 
 182:Generated_Source\PSoC4/cyfitter_cfg.c **** 	/* Setup and trim IMO based on desired frequency. */
 183:Generated_Source\PSoC4/cyfitter_cfg.c **** 	CySysClkWriteImoFreq(48u);
 184:Generated_Source\PSoC4/cyfitter_cfg.c **** 	/* CYDEV_CLK_ILO_CONFIG Starting address: CYDEV_CLK_ILO_CONFIG */
 185:Generated_Source\PSoC4/cyfitter_cfg.c **** 	CY_SET_REG32((void *)(CYREG_CLK_ILO_CONFIG), 0x80000006u);
ARM GAS  C:\Users\Daniela\AppData\Local\Temp\ccufXu0M.s 			page 35


 186:Generated_Source\PSoC4/cyfitter_cfg.c **** 
 187:Generated_Source\PSoC4/cyfitter_cfg.c **** 	/* CYDEV_WDT_CONFIG Starting address: CYDEV_WDT_CONFIG */
 188:Generated_Source\PSoC4/cyfitter_cfg.c **** 	CY_SET_REG32((void *)(CYREG_WDT_CONFIG), 0x40000000u);
 189:Generated_Source\PSoC4/cyfitter_cfg.c **** 
 190:Generated_Source\PSoC4/cyfitter_cfg.c **** 
 191:Generated_Source\PSoC4/cyfitter_cfg.c **** 	/* Enable fast start mode for XO */
 192:Generated_Source\PSoC4/cyfitter_cfg.c **** 	CY_SET_REG32((void*)CYREG_BLE_BLERD_BB_XO, CY_GET_REG32((void*)CYREG_BLE_BLERD_BB_XO) | (uint32)0x
 193:Generated_Source\PSoC4/cyfitter_cfg.c **** 	CY_SET_REG32((void *)(CYREG_BLE_BLERD_BB_XO_CAPTRIM), 0x00003E2Du);
 194:Generated_Source\PSoC4/cyfitter_cfg.c **** 	/*Set XTAL(ECO) divider*/
 195:Generated_Source\PSoC4/cyfitter_cfg.c **** 	CY_SET_REG32((void *)(CYREG_BLE_BLESS_XTAL_CLK_DIV_CONFIG), 0x00000000u);
 196:Generated_Source\PSoC4/cyfitter_cfg.c **** 	/* Disable Crystal Stable Interrupt before enabling ECO */
 197:Generated_Source\PSoC4/cyfitter_cfg.c **** 	CY_SET_REG32((void*)CYREG_BLE_BLESS_LL_DSM_CTRL, CY_GET_REG32((void*)CYREG_BLE_BLESS_LL_DSM_CTRL) 
 198:Generated_Source\PSoC4/cyfitter_cfg.c **** 	/* Start the ECO and do not check status since it is not needed for HFCLK */
 199:Generated_Source\PSoC4/cyfitter_cfg.c **** 	(void)CySysClkEcoStart(2000u);
 200:Generated_Source\PSoC4/cyfitter_cfg.c **** 	CyDelayUs(1500u); /* Wait to stabilize */
 201:Generated_Source\PSoC4/cyfitter_cfg.c **** 
 202:Generated_Source\PSoC4/cyfitter_cfg.c **** 	/* Setup phase aligned clocks */
 203:Generated_Source\PSoC4/cyfitter_cfg.c **** 	CY_SET_REG32((void *)CYREG_PERI_DIV_16_CTL1, 0x00257F00u);
 204:Generated_Source\PSoC4/cyfitter_cfg.c **** 	CY_SET_REG32((void *)CYREG_PERI_DIV_CMD, 0x8000FF41u);
 205:Generated_Source\PSoC4/cyfitter_cfg.c **** 	CY_SET_REG32((void *)CYREG_PERI_DIV_16_CTL0, 0x00002200u);
 206:Generated_Source\PSoC4/cyfitter_cfg.c **** 	CY_SET_REG32((void *)CYREG_PERI_DIV_CMD, 0x8000FF40u);
 207:Generated_Source\PSoC4/cyfitter_cfg.c **** 
 208:Generated_Source\PSoC4/cyfitter_cfg.c **** 	/* CYDEV_CLK_IMO_CONFIG Starting address: CYDEV_CLK_IMO_CONFIG */
 209:Generated_Source\PSoC4/cyfitter_cfg.c **** 	CY_SET_REG32((void *)(CYREG_CLK_IMO_CONFIG), 0x80000000u);
 210:Generated_Source\PSoC4/cyfitter_cfg.c **** 
 211:Generated_Source\PSoC4/cyfitter_cfg.c **** 	/* CYDEV_CLK_SELECT Starting address: CYDEV_CLK_SELECT */
 212:Generated_Source\PSoC4/cyfitter_cfg.c **** 	CY_SET_REG32((void *)(CYREG_CLK_SELECT), 0x00040000u);
 213:Generated_Source\PSoC4/cyfitter_cfg.c **** 
 214:Generated_Source\PSoC4/cyfitter_cfg.c **** 	/* CYDEV_PERI_PCLK_CTL7 Starting address: CYDEV_PERI_PCLK_CTL7 */
 215:Generated_Source\PSoC4/cyfitter_cfg.c **** 	CY_SET_REG32((void *)(CYREG_PERI_PCLK_CTL7), 0x00000041u);
 216:Generated_Source\PSoC4/cyfitter_cfg.c **** 
 217:Generated_Source\PSoC4/cyfitter_cfg.c **** 	/* CYDEV_PERI_PCLK_CTL1 Starting address: CYDEV_PERI_PCLK_CTL1 */
 218:Generated_Source\PSoC4/cyfitter_cfg.c **** 	CY_SET_REG32((void *)(CYREG_PERI_PCLK_CTL1), 0x00000040u);
 219:Generated_Source\PSoC4/cyfitter_cfg.c **** 
 220:Generated_Source\PSoC4/cyfitter_cfg.c **** 	CY_SET_REG32((void *)(CYREG_WDT_CONFIG), 0x40000000u);
 221:Generated_Source\PSoC4/cyfitter_cfg.c **** }
 222:Generated_Source\PSoC4/cyfitter_cfg.c **** 
 223:Generated_Source\PSoC4/cyfitter_cfg.c **** 
 224:Generated_Source\PSoC4/cyfitter_cfg.c **** /* Analog API Functions */
 225:Generated_Source\PSoC4/cyfitter_cfg.c **** 
 226:Generated_Source\PSoC4/cyfitter_cfg.c **** 
 227:Generated_Source\PSoC4/cyfitter_cfg.c **** /*******************************************************************************
 228:Generated_Source\PSoC4/cyfitter_cfg.c **** * Function Name: AnalogSetDefault
 229:Generated_Source\PSoC4/cyfitter_cfg.c **** ********************************************************************************
 230:Generated_Source\PSoC4/cyfitter_cfg.c **** *
 231:Generated_Source\PSoC4/cyfitter_cfg.c **** * Summary:
 232:Generated_Source\PSoC4/cyfitter_cfg.c **** *  Sets up the analog portions of the chip to default values based on chip
 233:Generated_Source\PSoC4/cyfitter_cfg.c **** *  configuration options from the project.
 234:Generated_Source\PSoC4/cyfitter_cfg.c **** *
 235:Generated_Source\PSoC4/cyfitter_cfg.c **** * Parameters:
 236:Generated_Source\PSoC4/cyfitter_cfg.c **** *  void
 237:Generated_Source\PSoC4/cyfitter_cfg.c **** *
 238:Generated_Source\PSoC4/cyfitter_cfg.c **** * Return:
 239:Generated_Source\PSoC4/cyfitter_cfg.c **** *  void
 240:Generated_Source\PSoC4/cyfitter_cfg.c **** *
 241:Generated_Source\PSoC4/cyfitter_cfg.c **** *******************************************************************************/
 242:Generated_Source\PSoC4/cyfitter_cfg.c **** static void AnalogSetDefault(void);
ARM GAS  C:\Users\Daniela\AppData\Local\Temp\ccufXu0M.s 			page 36


 243:Generated_Source\PSoC4/cyfitter_cfg.c **** static void AnalogSetDefault(void)
 244:Generated_Source\PSoC4/cyfitter_cfg.c **** {
 245:Generated_Source\PSoC4/cyfitter_cfg.c **** 	CY_SET_XTND_REG32((void CYFAR *)CYREG_CTBM0_DFT_CTRL, 0x00000003u);
 246:Generated_Source\PSoC4/cyfitter_cfg.c **** 	CY_SET_XTND_REG32((void CYFAR *)CYREG_CTBM1_DFT_CTRL, 0x00000003u);
 247:Generated_Source\PSoC4/cyfitter_cfg.c **** 	CY_SET_XTND_REG32((void CYFAR *)CYREG_PASS_DSAB_DSAB_CTRL, 0x00000000u);
 248:Generated_Source\PSoC4/cyfitter_cfg.c **** }
 249:Generated_Source\PSoC4/cyfitter_cfg.c **** 
 250:Generated_Source\PSoC4/cyfitter_cfg.c **** 
 251:Generated_Source\PSoC4/cyfitter_cfg.c **** 
 252:Generated_Source\PSoC4/cyfitter_cfg.c **** 
 253:Generated_Source\PSoC4/cyfitter_cfg.c **** /*******************************************************************************
 254:Generated_Source\PSoC4/cyfitter_cfg.c **** * Function Name: cyfitter_cfg
 255:Generated_Source\PSoC4/cyfitter_cfg.c **** ********************************************************************************
 256:Generated_Source\PSoC4/cyfitter_cfg.c **** * Summary:
 257:Generated_Source\PSoC4/cyfitter_cfg.c **** *  This function is called by the start-up code for the selected device. It
 258:Generated_Source\PSoC4/cyfitter_cfg.c **** *  performs all of the necessary device configuration based on the design
 259:Generated_Source\PSoC4/cyfitter_cfg.c **** *  settings.  This includes settings from the Design Wide Resources (DWR) such
 260:Generated_Source\PSoC4/cyfitter_cfg.c **** *  as Clocks and Pins as well as any component configuration that is necessary.
 261:Generated_Source\PSoC4/cyfitter_cfg.c **** *
 262:Generated_Source\PSoC4/cyfitter_cfg.c **** * Parameters:
 263:Generated_Source\PSoC4/cyfitter_cfg.c **** *   void
 264:Generated_Source\PSoC4/cyfitter_cfg.c **** *
 265:Generated_Source\PSoC4/cyfitter_cfg.c **** * Return:
 266:Generated_Source\PSoC4/cyfitter_cfg.c **** *   void
 267:Generated_Source\PSoC4/cyfitter_cfg.c **** *
 268:Generated_Source\PSoC4/cyfitter_cfg.c **** *******************************************************************************/
 269:Generated_Source\PSoC4/cyfitter_cfg.c **** CY_CFG_SECTION
 270:Generated_Source\PSoC4/cyfitter_cfg.c **** void cyfitter_cfg(void)
 271:Generated_Source\PSoC4/cyfitter_cfg.c **** {
 440              		.loc 1 271 0
 441              		.cfi_startproc
 442              		@ args = 0, pretend = 0, frame = 0
 443              		@ frame_needed = 0, uses_anonymous_args = 0
 444 0000 F8B5     		push	{r3, r4, r5, r6, r7, lr}
 445              		.cfi_def_cfa_offset 24
 446              		.cfi_offset 3, -24
 447              		.cfi_offset 4, -20
 448              		.cfi_offset 5, -16
 449              		.cfi_offset 6, -12
 450              		.cfi_offset 7, -8
 451              		.cfi_offset 14, -4
 272:Generated_Source\PSoC4/cyfitter_cfg.c **** 	/* Disable interrupts by default. Let user enable if/when they want. */
 273:Generated_Source\PSoC4/cyfitter_cfg.c **** 	CyGlobalIntDisable;
 452              		.loc 1 273 0
 453              		.syntax divided
 454              	@ 273 "Generated_Source\PSoC4\cyfitter_cfg.c" 1
 455 0002 72B6     		CPSID   i
 456              	@ 0 "" 2
 457              		.thumb
 458              		.syntax unified
 459              	.LBB16:
 460              	.LBB17:
 461              	.LBB18:
 462              	.LBB19:
  76:Generated_Source\PSoC4/cyfitter_cfg.c **** }
 463              		.loc 1 76 0
 464 0004 8026     		movs	r6, #128
ARM GAS  C:\Users\Daniela\AppData\Local\Temp\ccufXu0M.s 			page 37


 465              	.LBE19:
 466              	.LBE18:
 467              	.LBE17:
 468              	.LBE16:
 274:Generated_Source\PSoC4/cyfitter_cfg.c **** 
 275:Generated_Source\PSoC4/cyfitter_cfg.c **** 	CY_SET_REG32((void *)(CYREG_BLE_BLESS_LL_DSM_CTRL), 0x00000000u);
 469              		.loc 1 275 0
 470 0006 0024     		movs	r4, #0
 471 0008 3B4D     		ldr	r5, .L2
 472              	.LBB26:
 473              	.LBB24:
 474              	.LBB22:
 475              	.LBB20:
  76:Generated_Source\PSoC4/cyfitter_cfg.c **** }
 476              		.loc 1 76 0
 477 000a F600     		lsls	r6, r6, #3
 478              	.LBE20:
 479              	.LBE22:
 480              	.LBE24:
 481              	.LBE26:
 482              		.loc 1 275 0
 483 000c 2C60     		str	r4, [r5]
 484              	.LVL0:
 485              	.LBB27:
 486              	.LBB25:
 487              	.LBB23:
 488              	.LBB21:
  76:Generated_Source\PSoC4/cyfitter_cfg.c **** }
 489              		.loc 1 76 0
 490 000e 3200     		movs	r2, r6
 491 0010 0021     		movs	r1, #0
 492 0012 3A48     		ldr	r0, .L2+4
 493 0014 FFF7FEFF 		bl	memset
 494              	.LVL1:
 495 0018 3200     		movs	r2, r6
 496 001a 0021     		movs	r1, #0
 497 001c 3848     		ldr	r0, .L2+8
 498 001e FFF7FEFF 		bl	memset
 499              	.LVL2:
 500              	.LBE21:
 501              	.LBE23:
 502              	.LBE25:
 276:Generated_Source\PSoC4/cyfitter_cfg.c **** 
 277:Generated_Source\PSoC4/cyfitter_cfg.c **** 	{
 278:Generated_Source\PSoC4/cyfitter_cfg.c **** 
 279:Generated_Source\PSoC4/cyfitter_cfg.c **** 		CYPACKED typedef struct {
 280:Generated_Source\PSoC4/cyfitter_cfg.c **** 			void CYFAR *address;
 281:Generated_Source\PSoC4/cyfitter_cfg.c **** 			uint16 size;
 282:Generated_Source\PSoC4/cyfitter_cfg.c **** 		} CYPACKED_ATTR cfg_memset_t;
 283:Generated_Source\PSoC4/cyfitter_cfg.c **** 
 284:Generated_Source\PSoC4/cyfitter_cfg.c **** 		static const cfg_memset_t CYCODE cfg_memset_list[] = {
 285:Generated_Source\PSoC4/cyfitter_cfg.c **** 			/* address, size */
 286:Generated_Source\PSoC4/cyfitter_cfg.c **** 			{(void CYFAR *)(CYDEV_UDB_P0_U0_BASE), 1024u},
 287:Generated_Source\PSoC4/cyfitter_cfg.c **** 			{(void CYFAR *)(CYDEV_UDB_DSI0_BASE), 1024u},
 288:Generated_Source\PSoC4/cyfitter_cfg.c **** 		};
 289:Generated_Source\PSoC4/cyfitter_cfg.c **** 
 290:Generated_Source\PSoC4/cyfitter_cfg.c **** 		uint8 CYDATA i;
ARM GAS  C:\Users\Daniela\AppData\Local\Temp\ccufXu0M.s 			page 38


 291:Generated_Source\PSoC4/cyfitter_cfg.c **** 
 292:Generated_Source\PSoC4/cyfitter_cfg.c **** 		/* Zero out critical memory blocks before beginning configuration */
 293:Generated_Source\PSoC4/cyfitter_cfg.c **** 		for (i = 0u; i < (sizeof(cfg_memset_list)/sizeof(cfg_memset_list[0])); i++)
 294:Generated_Source\PSoC4/cyfitter_cfg.c **** 		{
 295:Generated_Source\PSoC4/cyfitter_cfg.c **** 			const cfg_memset_t CYCODE * CYDATA ms = &cfg_memset_list[i];
 296:Generated_Source\PSoC4/cyfitter_cfg.c **** 			CYMEMZERO(ms->address, (size_t)(uint32)(ms->size));
 297:Generated_Source\PSoC4/cyfitter_cfg.c **** 		}
 298:Generated_Source\PSoC4/cyfitter_cfg.c **** 
 299:Generated_Source\PSoC4/cyfitter_cfg.c **** 		/* HSIOM Starting address: CYDEV_HSIOM_BASE */
 300:Generated_Source\PSoC4/cyfitter_cfg.c **** 		CY_SET_REG32((void *)(CYDEV_HSIOM_BASE), 0xEE000000u);
 503              		.loc 1 300 0
 504 0022 EE22     		movs	r2, #238
 505 0024 374B     		ldr	r3, .L2+12
 506 0026 1206     		lsls	r2, r2, #24
 507 0028 1A60     		str	r2, [r3]
 301:Generated_Source\PSoC4/cyfitter_cfg.c **** 		CY_SET_REG32((void *)(CYREG_HSIOM_PORT_SEL1), 0x00990000u);
 508              		.loc 1 301 0
 509 002a 9923     		movs	r3, #153
 510 002c 364A     		ldr	r2, .L2+16
 511 002e 1B04     		lsls	r3, r3, #16
 512 0030 1360     		str	r3, [r2]
 302:Generated_Source\PSoC4/cyfitter_cfg.c **** 
 303:Generated_Source\PSoC4/cyfitter_cfg.c **** 		/* UDB_PA_0 Starting address: CYDEV_UDB_PA0_BASE */
 304:Generated_Source\PSoC4/cyfitter_cfg.c **** 		CY_SET_REG32((void *)(CYDEV_UDB_PA0_BASE), 0x00990000u);
 513              		.loc 1 304 0
 514 0032 364A     		ldr	r2, .L2+20
 515              	.LBE27:
 516              	.LBB28:
 517              	.LBB29:
 188:Generated_Source\PSoC4/cyfitter_cfg.c **** 
 518              		.loc 1 188 0
 519 0034 8027     		movs	r7, #128
 520              	.LBE29:
 521              	.LBE28:
 522              	.LBB34:
 523              		.loc 1 304 0
 524 0036 1360     		str	r3, [r2]
 305:Generated_Source\PSoC4/cyfitter_cfg.c **** 
 306:Generated_Source\PSoC4/cyfitter_cfg.c **** 		/* UDB_PA_1 Starting address: CYDEV_UDB_PA1_BASE */
 307:Generated_Source\PSoC4/cyfitter_cfg.c **** 		CY_SET_REG32((void *)(CYDEV_UDB_PA1_BASE), 0x00990000u);
 525              		.loc 1 307 0
 526 0038 354A     		ldr	r2, .L2+24
 527              	.LBE34:
 528              	.LBB35:
 529              	.LBB30:
 188:Generated_Source\PSoC4/cyfitter_cfg.c **** 
 530              		.loc 1 188 0
 531 003a 364E     		ldr	r6, .L2+28
 532              	.LBE30:
 533              	.LBE35:
 534              	.LBB36:
 535              		.loc 1 307 0
 536 003c 1360     		str	r3, [r2]
 308:Generated_Source\PSoC4/cyfitter_cfg.c **** 
 309:Generated_Source\PSoC4/cyfitter_cfg.c **** 		/* Enable digital routing */
 310:Generated_Source\PSoC4/cyfitter_cfg.c **** 		CY_SET_XTND_REG8((void *)CYREG_UDB_UDBIF_BANK_CTL, (uint8)(CY_GET_XTND_REG8((void *)CYREG_UDB_UDB
 537              		.loc 1 310 0
ARM GAS  C:\Users\Daniela\AppData\Local\Temp\ccufXu0M.s 			page 39


 538 003e 0623     		movs	r3, #6
 539 0040 354A     		ldr	r2, .L2+32
 540              	.LBE36:
 541              	.LBB37:
 542              	.LBB31:
 188:Generated_Source\PSoC4/cyfitter_cfg.c **** 
 543              		.loc 1 188 0
 544 0042 FF05     		lsls	r7, r7, #23
 545              	.LBE31:
 546              	.LBE37:
 547              	.LBB38:
 548              		.loc 1 310 0
 549 0044 1178     		ldrb	r1, [r2]
 550              	.LBE38:
 311:Generated_Source\PSoC4/cyfitter_cfg.c **** 	}
 312:Generated_Source\PSoC4/cyfitter_cfg.c **** 
 313:Generated_Source\PSoC4/cyfitter_cfg.c **** 	/* Perform second pass device configuration. These items must be configured in specific order afte
 314:Generated_Source\PSoC4/cyfitter_cfg.c **** 	/* IOPINS0_0 Starting address: CYDEV_GPIO_PRT0_BASE */
 315:Generated_Source\PSoC4/cyfitter_cfg.c **** 	CY_SET_REG32((void *)(CYREG_GPIO_PRT0_PC), 0x00D80000u);
 316:Generated_Source\PSoC4/cyfitter_cfg.c **** 
 317:Generated_Source\PSoC4/cyfitter_cfg.c **** 	/* IOPINS0_1 Starting address: CYDEV_GPIO_PRT1_BASE */
 318:Generated_Source\PSoC4/cyfitter_cfg.c **** 	CY_SET_REG32((void *)(CYDEV_GPIO_PRT1_BASE), 0x00000020u);
 319:Generated_Source\PSoC4/cyfitter_cfg.c **** 	CY_SET_REG32((void *)(CYREG_GPIO_PRT1_PC), 0x00031000u);
 320:Generated_Source\PSoC4/cyfitter_cfg.c **** 	CY_SET_REG32((void *)(CYREG_GPIO_PRT1_PC2), 0x00000020u);
 321:Generated_Source\PSoC4/cyfitter_cfg.c **** 
 322:Generated_Source\PSoC4/cyfitter_cfg.c **** 
 323:Generated_Source\PSoC4/cyfitter_cfg.c **** 	/* Setup clocks based on selections from Clock DWR */
 324:Generated_Source\PSoC4/cyfitter_cfg.c **** 	ClockSetup();
 325:Generated_Source\PSoC4/cyfitter_cfg.c **** 
 326:Generated_Source\PSoC4/cyfitter_cfg.c **** 	/* Perform basic analog initialization to defaults */
 327:Generated_Source\PSoC4/cyfitter_cfg.c **** 	AnalogSetDefault();
 328:Generated_Source\PSoC4/cyfitter_cfg.c **** 
 329:Generated_Source\PSoC4/cyfitter_cfg.c **** }
 551              		.loc 1 329 0
 552              		@ sp needed
 553              	.LBB39:
 310:Generated_Source\PSoC4/cyfitter_cfg.c **** 	}
 554              		.loc 1 310 0
 555 0046 0B43     		orrs	r3, r1
 556 0048 1370     		strb	r3, [r2]
 557              	.LBE39:
 315:Generated_Source\PSoC4/cyfitter_cfg.c **** 
 558              		.loc 1 315 0
 559 004a D822     		movs	r2, #216
 560 004c 334B     		ldr	r3, .L2+36
 561 004e 1204     		lsls	r2, r2, #16
 562 0050 1A60     		str	r2, [r3]
 318:Generated_Source\PSoC4/cyfitter_cfg.c **** 	CY_SET_REG32((void *)(CYREG_GPIO_PRT1_PC), 0x00031000u);
 563              		.loc 1 318 0
 564 0052 2023     		movs	r3, #32
 319:Generated_Source\PSoC4/cyfitter_cfg.c **** 	CY_SET_REG32((void *)(CYREG_GPIO_PRT1_PC2), 0x00000020u);
 565              		.loc 1 319 0
 566 0054 C421     		movs	r1, #196
 318:Generated_Source\PSoC4/cyfitter_cfg.c **** 	CY_SET_REG32((void *)(CYREG_GPIO_PRT1_PC), 0x00031000u);
 567              		.loc 1 318 0
 568 0056 324A     		ldr	r2, .L2+40
 319:Generated_Source\PSoC4/cyfitter_cfg.c **** 	CY_SET_REG32((void *)(CYREG_GPIO_PRT1_PC2), 0x00000020u);
ARM GAS  C:\Users\Daniela\AppData\Local\Temp\ccufXu0M.s 			page 40


 569              		.loc 1 319 0
 570 0058 8902     		lsls	r1, r1, #10
 318:Generated_Source\PSoC4/cyfitter_cfg.c **** 	CY_SET_REG32((void *)(CYREG_GPIO_PRT1_PC), 0x00031000u);
 571              		.loc 1 318 0
 572 005a 1360     		str	r3, [r2]
 319:Generated_Source\PSoC4/cyfitter_cfg.c **** 	CY_SET_REG32((void *)(CYREG_GPIO_PRT1_PC2), 0x00000020u);
 573              		.loc 1 319 0
 574 005c 314A     		ldr	r2, .L2+44
 575 005e 1160     		str	r1, [r2]
 320:Generated_Source\PSoC4/cyfitter_cfg.c **** 
 576              		.loc 1 320 0
 577 0060 314A     		ldr	r2, .L2+48
 578 0062 1360     		str	r3, [r2]
 579              	.LBB40:
 580              	.LBB32:
 175:Generated_Source\PSoC4/cyfitter_cfg.c **** 
 581              		.loc 1 175 0
 582 0064 1222     		movs	r2, #18
 583 0066 314B     		ldr	r3, .L2+52
 584 0068 1A60     		str	r2, [r3]
 178:Generated_Source\PSoC4/cyfitter_cfg.c **** 	CyDelayCycles(12000000u); /* WCO may take up to 500ms to start */
 585              		.loc 1 178 0
 586 006a FFF7FEFF 		bl	CySysClkWcoStart
 587              	.LVL3:
 179:Generated_Source\PSoC4/cyfitter_cfg.c **** 	(void)CySysClkWcoSetPowerMode(CY_SYS_CLK_WCO_LPM);    /* Switch to the low power mode */
 588              		.loc 1 179 0
 589 006e 3048     		ldr	r0, .L2+56
 590 0070 FFF7FEFF 		bl	CyDelayCycles
 591              	.LVL4:
 180:Generated_Source\PSoC4/cyfitter_cfg.c **** 
 592              		.loc 1 180 0
 593 0074 0120     		movs	r0, #1
 594 0076 FFF7FEFF 		bl	CySysClkWcoSetPowerMode
 595              	.LVL5:
 183:Generated_Source\PSoC4/cyfitter_cfg.c **** 	/* CYDEV_CLK_ILO_CONFIG Starting address: CYDEV_CLK_ILO_CONFIG */
 596              		.loc 1 183 0
 597 007a 3020     		movs	r0, #48
 598 007c FFF7FEFF 		bl	CySysClkWriteImoFreq
 599              	.LVL6:
 185:Generated_Source\PSoC4/cyfitter_cfg.c **** 
 600              		.loc 1 185 0
 601 0080 2C4A     		ldr	r2, .L2+60
 602 0082 2D4B     		ldr	r3, .L2+64
 199:Generated_Source\PSoC4/cyfitter_cfg.c **** 	CyDelayUs(1500u); /* Wait to stabilize */
 603              		.loc 1 199 0
 604 0084 FA20     		movs	r0, #250
 185:Generated_Source\PSoC4/cyfitter_cfg.c **** 
 605              		.loc 1 185 0
 606 0086 1A60     		str	r2, [r3]
 192:Generated_Source\PSoC4/cyfitter_cfg.c **** 	CY_SET_REG32((void *)(CYREG_BLE_BLERD_BB_XO_CAPTRIM), 0x00003E2Du);
 607              		.loc 1 192 0
 608 0088 0223     		movs	r3, #2
 609 008a 2C4A     		ldr	r2, .L2+68
 188:Generated_Source\PSoC4/cyfitter_cfg.c **** 
 610              		.loc 1 188 0
 611 008c 3760     		str	r7, [r6]
 192:Generated_Source\PSoC4/cyfitter_cfg.c **** 	CY_SET_REG32((void *)(CYREG_BLE_BLERD_BB_XO_CAPTRIM), 0x00003E2Du);
ARM GAS  C:\Users\Daniela\AppData\Local\Temp\ccufXu0M.s 			page 41


 612              		.loc 1 192 0
 613 008e 1168     		ldr	r1, [r2]
 199:Generated_Source\PSoC4/cyfitter_cfg.c **** 	CyDelayUs(1500u); /* Wait to stabilize */
 614              		.loc 1 199 0
 615 0090 C000     		lsls	r0, r0, #3
 192:Generated_Source\PSoC4/cyfitter_cfg.c **** 	CY_SET_REG32((void *)(CYREG_BLE_BLERD_BB_XO_CAPTRIM), 0x00003E2Du);
 616              		.loc 1 192 0
 617 0092 0B43     		orrs	r3, r1
 618 0094 1360     		str	r3, [r2]
 193:Generated_Source\PSoC4/cyfitter_cfg.c **** 	/*Set XTAL(ECO) divider*/
 619              		.loc 1 193 0
 620 0096 2A4A     		ldr	r2, .L2+72
 621 0098 2A4B     		ldr	r3, .L2+76
 622 009a 1A60     		str	r2, [r3]
 197:Generated_Source\PSoC4/cyfitter_cfg.c **** 	/* Start the ECO and do not check status since it is not needed for HFCLK */
 623              		.loc 1 197 0
 624 009c 0822     		movs	r2, #8
 195:Generated_Source\PSoC4/cyfitter_cfg.c **** 	/* Disable Crystal Stable Interrupt before enabling ECO */
 625              		.loc 1 195 0
 626 009e 2A4B     		ldr	r3, .L2+80
 627 00a0 1C60     		str	r4, [r3]
 197:Generated_Source\PSoC4/cyfitter_cfg.c **** 	/* Start the ECO and do not check status since it is not needed for HFCLK */
 628              		.loc 1 197 0
 629 00a2 2B68     		ldr	r3, [r5]
 630 00a4 9343     		bics	r3, r2
 631 00a6 2B60     		str	r3, [r5]
 199:Generated_Source\PSoC4/cyfitter_cfg.c **** 	CyDelayUs(1500u); /* Wait to stabilize */
 632              		.loc 1 199 0
 633 00a8 FFF7FEFF 		bl	CySysClkEcoStart
 634              	.LVL7:
 200:Generated_Source\PSoC4/cyfitter_cfg.c **** 
 635              		.loc 1 200 0
 636 00ac 2748     		ldr	r0, .L2+84
 637 00ae FFF7FEFF 		bl	CyDelayUs
 638              	.LVL8:
 205:Generated_Source\PSoC4/cyfitter_cfg.c **** 	CY_SET_REG32((void *)CYREG_PERI_DIV_CMD, 0x8000FF40u);
 639              		.loc 1 205 0
 640 00b2 8821     		movs	r1, #136
 203:Generated_Source\PSoC4/cyfitter_cfg.c **** 	CY_SET_REG32((void *)CYREG_PERI_DIV_CMD, 0x8000FF41u);
 641              		.loc 1 203 0
 642 00b4 264A     		ldr	r2, .L2+88
 643 00b6 274B     		ldr	r3, .L2+92
 205:Generated_Source\PSoC4/cyfitter_cfg.c **** 	CY_SET_REG32((void *)CYREG_PERI_DIV_CMD, 0x8000FF40u);
 644              		.loc 1 205 0
 645 00b8 8901     		lsls	r1, r1, #6
 203:Generated_Source\PSoC4/cyfitter_cfg.c **** 	CY_SET_REG32((void *)CYREG_PERI_DIV_CMD, 0x8000FF41u);
 646              		.loc 1 203 0
 647 00ba 1A60     		str	r2, [r3]
 204:Generated_Source\PSoC4/cyfitter_cfg.c **** 	CY_SET_REG32((void *)CYREG_PERI_DIV_16_CTL0, 0x00002200u);
 648              		.loc 1 204 0
 649 00bc 264B     		ldr	r3, .L2+96
 650 00be 274A     		ldr	r2, .L2+100
 651 00c0 1A60     		str	r2, [r3]
 205:Generated_Source\PSoC4/cyfitter_cfg.c **** 	CY_SET_REG32((void *)CYREG_PERI_DIV_CMD, 0x8000FF40u);
 652              		.loc 1 205 0
 653 00c2 274A     		ldr	r2, .L2+104
 654 00c4 1160     		str	r1, [r2]
ARM GAS  C:\Users\Daniela\AppData\Local\Temp\ccufXu0M.s 			page 42


 206:Generated_Source\PSoC4/cyfitter_cfg.c **** 
 655              		.loc 1 206 0
 656 00c6 274A     		ldr	r2, .L2+108
 657 00c8 1A60     		str	r2, [r3]
 209:Generated_Source\PSoC4/cyfitter_cfg.c **** 
 658              		.loc 1 209 0
 659 00ca 8022     		movs	r2, #128
 660 00cc 264B     		ldr	r3, .L2+112
 661 00ce 1206     		lsls	r2, r2, #24
 662 00d0 1A60     		str	r2, [r3]
 212:Generated_Source\PSoC4/cyfitter_cfg.c **** 
 663              		.loc 1 212 0
 664 00d2 8022     		movs	r2, #128
 665 00d4 254B     		ldr	r3, .L2+116
 666 00d6 D202     		lsls	r2, r2, #11
 667 00d8 1A60     		str	r2, [r3]
 215:Generated_Source\PSoC4/cyfitter_cfg.c **** 
 668              		.loc 1 215 0
 669 00da 4122     		movs	r2, #65
 670 00dc 244B     		ldr	r3, .L2+120
 671 00de 1A60     		str	r2, [r3]
 218:Generated_Source\PSoC4/cyfitter_cfg.c **** 
 672              		.loc 1 218 0
 673 00e0 244B     		ldr	r3, .L2+124
 674 00e2 013A     		subs	r2, r2, #1
 675 00e4 1A60     		str	r2, [r3]
 676              	.LBE32:
 677              	.LBE40:
 678              	.LBB41:
 679              	.LBB42:
 245:Generated_Source\PSoC4/cyfitter_cfg.c **** 	CY_SET_XTND_REG32((void CYFAR *)CYREG_CTBM1_DFT_CTRL, 0x00000003u);
 680              		.loc 1 245 0
 681 00e6 0323     		movs	r3, #3
 682 00e8 234A     		ldr	r2, .L2+128
 683              	.LBE42:
 684              	.LBE41:
 685              	.LBB44:
 686              	.LBB33:
 220:Generated_Source\PSoC4/cyfitter_cfg.c **** }
 687              		.loc 1 220 0
 688 00ea 3760     		str	r7, [r6]
 689              	.LBE33:
 690              	.LBE44:
 691              	.LBB45:
 692              	.LBB43:
 245:Generated_Source\PSoC4/cyfitter_cfg.c **** 	CY_SET_XTND_REG32((void CYFAR *)CYREG_CTBM1_DFT_CTRL, 0x00000003u);
 693              		.loc 1 245 0
 694 00ec 1360     		str	r3, [r2]
 246:Generated_Source\PSoC4/cyfitter_cfg.c **** 	CY_SET_XTND_REG32((void CYFAR *)CYREG_PASS_DSAB_DSAB_CTRL, 0x00000000u);
 695              		.loc 1 246 0
 696 00ee 234A     		ldr	r2, .L2+132
 697 00f0 1360     		str	r3, [r2]
 247:Generated_Source\PSoC4/cyfitter_cfg.c **** }
 698              		.loc 1 247 0
 699 00f2 234B     		ldr	r3, .L2+136
 700 00f4 1C60     		str	r4, [r3]
 701              	.LBE43:
ARM GAS  C:\Users\Daniela\AppData\Local\Temp\ccufXu0M.s 			page 43


 702              	.LBE45:
 703              		.loc 1 329 0
 704 00f6 F8BD     		pop	{r3, r4, r5, r6, r7, pc}
 705              	.L3:
 706              		.align	2
 707              	.L2:
 708 00f8 6CF02E40 		.word	1076818028
 709 00fc 00300F40 		.word	1074737152
 710 0100 00400F40 		.word	1074741248
 711 0104 00000240 		.word	1073872896
 712 0108 00010240 		.word	1073873152
 713 010c 00500F40 		.word	1074745344
 714 0110 10500F40 		.word	1074745360
 715 0114 0C020B40 		.word	1074463244
 716 0118 00700F40 		.word	1074753536
 717 011c 08000440 		.word	1074003976
 718 0120 00010440 		.word	1074004224
 719 0124 08010440 		.word	1074004232
 720 0128 18010440 		.word	1074004248
 721 012c 30001040 		.word	1074790448
 722 0130 001BB700 		.word	12000000
 723 0134 06000080 		.word	-2147483642
 724 0138 04010B40 		.word	1074462980
 725 013c 78002E40 		.word	1076756600
 726 0140 2D3E0000 		.word	15917
 727 0144 7C002E40 		.word	1076756604
 728 0148 64F02E40 		.word	1076818020
 729 014c DC050000 		.word	1500
 730 0150 007F2500 		.word	2457344
 731 0154 04030140 		.word	1073808132
 732 0158 00000140 		.word	1073807360
 733 015c 41FF0080 		.word	-2147418303
 734 0160 00030140 		.word	1073808128
 735 0164 40FF0080 		.word	-2147418304
 736 0168 08010B40 		.word	1074462984
 737 016c 00010B40 		.word	1074462976
 738 0170 1C010140 		.word	1073807644
 739 0174 04010140 		.word	1073807620
 740 0178 30003040 		.word	1076887600
 741 017c 30003140 		.word	1076953136
 742 0180 000E3F40 		.word	1077874176
 743              		.cfi_endproc
 744              	.LFE7:
 745              		.size	cyfitter_cfg, .-cyfitter_cfg
 746              		.text
 747              	.Letext0:
 748              		.file 2 "c:\\program files (x86)\\cypress\\psoc creator\\4.1\\psoc creator\\import\\gnu\\arm\\5.4.
 749              		.file 3 "Generated_Source\\PSoC4\\cytypes.h"
 750              		.file 4 "Generated_Source\\PSoC4\\CyLFClk.h"
 751              		.file 5 "Generated_Source\\PSoC4\\CyLib.h"