ARM GAS  C:\Users\Daniela\AppData\Local\Temp\ccm3GHIA.s 			page 1


   1              		.syntax unified
   2              		.cpu cortex-m0
   3              		.fpu softvfp
   4              		.eabi_attribute 20, 1
   5              		.eabi_attribute 21, 1
   6              		.eabi_attribute 23, 3
   7              		.eabi_attribute 24, 1
   8              		.eabi_attribute 25, 1
   9              		.eabi_attribute 26, 1
  10              		.eabi_attribute 30, 2
  11              		.eabi_attribute 34, 0
  12              		.eabi_attribute 18, 4
  13              		.thumb
  14              		.syntax unified
  15              		.file	"CyFlash.c"
  16              		.text
  17              	.Ltext0:
  18              		.section	.gnu.lto_.profile.585646c9,"",%progbits
  19 0000 789C6361 		.ascii	"x\234ca`d`c`\000\222?\230\3761\002\000\006w\002\006"
  19      60646063 
  19      6000923F 
  19      98FE3102 
  19      00067702 
  20              		.text
  21              		.section	.gnu.lto_.icf.585646c9,"",%progbits
  22 0000 789C6361 		.ascii	"x\234ca`d\000\001U\006\004`c87\373\360'.\306\225+\266"
  22      60640001 
  22      55060460 
  22      633837FB 
  22      F0272EC6 
  23 0017 DB32AD3E 		.ascii	"\3332\255>q\273\225\203\371\337\233}\363\270X\276\256"
  23      71BB9583 
  23      F9DF9B7D 
  23      F3B858BE 
  23      AE
  24 0028 7D788899 		.ascii	"}x\210\231\365q\367\212n6\006\000Y\031\021\307"
  24      F571F78A 
  24      6E360600 
  24      591911C7 
  25              		.text
  26              		.section	.gnu.lto_.jmpfuncs.585646c9,"",%progbits
  27 0000 789C5D8D 		.ascii	"x\234]\2151\016\202@\020E\377\233],H\210\027\340\242"
  27      310E8240 
  27      1045FF9B 
  27      5D2C4888 
  27      17E0A2
  28 0013 56D87809 		.ascii	"V\330x\011/ Tv&TtDoaEeic\210\201\0350!\361%\323\314"
  28      2F205476 
  28      26547444 
  28      6F614565 
  28      69638881 
  29 002e BC3F3F0A 		.ascii	"\274??\0129gmdiL\012\006\241\252l]\356$\242\354@\362"
  29      39676D64 
  29      694C0A06 
  29      A1AA6C5D 
  29      EE24A2EC 
  30 0044 F91AB7E1 		.ascii	"\371\032\267\341\321\347o;\005q\204\013\245\024\201"
ARM GAS  C:\Users\Daniela\AppData\Local\Temp\ccm3GHIA.s 			page 2


  30      D1E76F3B 
  30      0571840B 
  30      A51481
  31 0053 453717AE 		.ascii	"E7\027\256\257\366S\270\220\022\324~W\366\367\021\236"
  31      AFF653B8 
  31      9012D47E 
  31      57F6F711 
  31      9E
  32 0064 D30F4F8C 		.ascii	"\323\017O\214\367\241\333{\302\230DC\271\025\256\005"
  32      F7A1DB7B 
  32      C2984443 
  32      B915AE05 
  33 0074 9A01504A 		.ascii	"\232\001PJ#R"
  33      2352
  34              		.text
  35              		.section	.gnu.lto_.inline.585646c9,"",%progbits
  36 0000 789C9590 		.ascii	"x\234\225\220\275J\003A\024\205\357\231\235\335\035"
  36      BD4A0341 
  36      1485EF99 
  36      9DDD1D
  37 000f 5CB2AE8A 		.ascii	"\\\262\256\212\215(\331\200E*\361\021|\000\315kD\364"
  37      8D28D980 
  37      452AF111 
  37      7C00CD6B 
  37      44F4
  38 0021 25B609A8 		.ascii	"%\266\011\250 l\021$\212b\212\200?\233\324\202\021\024"
  38      206C1124 
  38      8A628A80 
  38      3F9BD482 
  38      1114
  39 0033 111B1545 		.ascii	"\021\033\025E\020\254lDI\031\301R\215\363\263\033Tl"
  39      10AC6C44 
  39      4919C152 
  39      8DF3B31B 
  39      546C
  40 0045 32C59CE1 		.ascii	"2\305\234\341~\003\367\234\303\011\244\316<\243\376"
  40      7E03F79C 
  40      C309A4CE 
  40      3CA3FE
  41 0054 B1498C8F 		.ascii	"\261I\214\217\200\330\364Y\007\344\324\363\032\261\177"
  41      80D8F459 
  41      07E4D4F3 
  41      1AB17F
  42 0063 66568C57 		.ascii	"fV\214W\232\202\240\260\374\311p\372\362\270\360\316"
  42      9A82A0B0 
  42      FCC970FA 
  42      F2B8F0CE 
  43 0073 2A96859E 		.ascii	"*\226\205\236\213=L\022\205\213Z\021.K\274Q9\277u\025"
  43      8B3D4C12 
  43      858B5A11 
  43      2E4BBC51 
  43      39BF7515 
  44 0087 E720ECEB 		.ascii	"\347 \354\353\361\222V\371M\342\370\341j\235+l\243g"
  44      F19256F9 
  44      4DE2F8E1 
  44      6A9D2B6C 
  44      A367
ARM GAS  C:\Users\Daniela\AppData\Local\Temp\ccm3GHIA.s 			page 3


  45 0099 E140CFCB 		.ascii	"\341@\317\313\251J\213P\227\353tg\314r^\317G\362\276"
  45      A94A8B50 
  45      97EB7467 
  45      CC725ECF 
  45      47F2BE
  46 00ac 1B8E3827 		.ascii	"\033\2168'V\035*\222\363\341E,\340TCu\027R\225e\217"
  46      561D2A92 
  46      F3E1452C 
  46      E0544375 
  46      17529565 
  47 00c1 E40371C9 		.ascii	"\344\003q\311<\350\267\360\234\022\213\342\022q\232"
  47      3CE8B7F0 
  47      9C128BE2 
  47      12719A
  48 00d0 28C03529 		.ascii	"(\3005)\356\273\327;\236\361\021\3400MaT\341\267\233"
  48      EEBBD73B 
  48      9EF111E0 
  48      304D6154 
  48      E1B79B
  49 00e3 AD67DFE0 		.ascii	"\255g\337\340\020I\212\223>n\037\235\\\332\006\317\242"
  49      10498A93 
  49      3E6E1F9D 
  49      5CDA06CF 
  49      A2
  50 00f4 99E26616 		.ascii	"\231\342f\026BHS?\355\257\214EL\310\024\322y(H\324\374"
  50      4248533F 
  50      EDAF8C45 
  50      4CC814D2 
  50      792848D4 
  51 0109 39251D3F 		.ascii	"9%\035?\020\3444F\263\014i\202\010\022B\017\310\216"
  51      10E43446 
  51      B30C6982 
  51      0812420F 
  51      C88E
  52 011b F14485AC 		.ascii	"\361D\205\254\370\325\355\315\3045\315[h\245K[\246\370"
  52      F8D5EDCD 
  52      C435CD5B 
  52      68A54B5B 
  52      A6F8
  53 012d BF4D0FD8 		.ascii	"\277M\017\330\354\227(\022o\344t\263k\2708\036\264Y"
  53      EC972812 
  53      6FE474B3 
  53      6BB8381E 
  53      B459
  54 013f FA060D28 		.ascii	"\372\006\015(j6"
  54      6A36
  55              		.text
  56              		.section	.gnu.lto_.pureconst.585646c9,"",%progbits
  57 0000 789C6361 		.ascii	"x\234ca`d\340g```e\330\305\310\264\213\221y\027#\213"
  57      6064E067 
  57      60606065 
  57      D8C5C8B4 
  57      8B917917 
  58 0016 14EB2E46 		.ascii	"\024\353.F\000\032\005\003."
  58      001A0503 
  58      2E
  59              		.text
ARM GAS  C:\Users\Daniela\AppData\Local\Temp\ccm3GHIA.s 			page 4


  60              		.section	.gnu.lto_CySysFlashClockBackup.585646c9,"",%progbits
  61 0000 789C7D54 		.ascii	"x\234}TKl\023W\024}\367\275\231\361d\374K7]E\010\004"
  61      4B6C1357 
  61      147DF7BD 
  61      99F164FC 
  61      4B375D45 
  62 0016 51C5A651 		.ascii	"Q\305\246Q\020\013\244\252l\220\332\025\037\025\251"
  62      100BA4AA 
  62      6C90DA15 
  62      1F15A9
  63 0025 2B10B2C0 		.ascii	"+\020\262\300j\027\264P\023$\272\312K\3541\244\252("
  63      6A17B450 
  63      1324BACA 
  63      4BEC31A4 
  63      AA28
  64 0037 166ACA37 		.ascii	"\026j\3127\026a\021\314\317\016M\011n\022b\022\223\020"
  64      166111CC 
  64      CF0E4D09 
  64      6E126212 
  64      9310
  65 0049 CAA7B4A2 		.ascii	"\312\247\264\242?\250\024>\241R\024Q\033\005\2424$\351"
  65      3FA8143E 
  65      A1521451 
  65      1B05A234 
  65      24E9
  66 005b BDF3C621 		.ascii	"\275\363\306!\361\"O\362\035\277w\357=\347\3343\037"
  66      F1224FF2 
  66      1DBF77EF 
  66      3DE7DC33 
  66      1F
  67 006c 8D01A3D5 		.ascii	"\215\001\243\325\2553\366>^\327\343\017<\014\370\241"
  67      AD33F63E 
  67      5ED7E30F 
  67      3C0CF8A1 
  68 007c 3B8C3598 		.ascii	";\2145\230\234\213\301 \223\2266\264\226I\237\000C\035"
  68      9C8BC120 
  68      939636B4 
  68      96499F00 
  68      431D
  69 008e 6B5CA703 		.ascii	"k\\\247\003\313\240\244O/\035\033\000\364G\232\300\352"
  69      CBA0A44F 
  69      2F1D1B00 
  69      F4479AC0 
  69      EA
  70 009f B9D07403 		.ascii	"\271\320t\003\352\341%\237\346p/\2269!\306\271-\030"
  70      EAE1259F 
  70      E6702F96 
  70      3921C6B9 
  70      2D18
  71 00b1 68B82DDE 		.ascii	"h\270-\336>\366$@[\200\245\270=.\177i\362\254l\223\262"
  71      3EF62440 
  71      5B80A5B8 
  71      3D2E7F69 
  71      F2AC6C93 
  72 00c6 510E5FBF 		.ascii	"Q\016_\277\352K]\372YV\330\202\263Y\316\340\014TA\033"
  72      EA4B5DFA 
  72      5956D882 
ARM GAS  C:\Users\Daniela\AppData\Local\Temp\ccm3GHIA.s 			page 5


  72      B359CEE0 
  72      0C54411B 
  73 00da 5491AA14 		.ascii	"T\221\252\024\254dX}\254k\374\246\256\260L\334v>?\327"
  73      AC64587D 
  73      AC6BFCA6 
  73      AEB04CDC 
  73      763E3FD7 
  74 00ee E9575839 		.ascii	"\351WX9JOO\034\212jb\005\320\377\327\277e\007\274\325"
  74      4A4F4F1C 
  74      8A6A6205 
  74      D0FFD7BF 
  74      6507BCD5 
  75 0102 A765BE41 		.ascii	"\247e\276A\346\022\317\366\035\226\362\206\324l!\340"
  75      E612CFF6 
  75      1D96F286 
  75      D46C21E0 
  76 0112 3C08023F 		.ascii	"<\010\002?\207\340g\035pF\345G\276\333\237\012\210\032"
  76      87E0671D 
  76      7046E547 
  76      BEDB9F0A 
  76      881A
  77 0124 A7F5E1DD 		.ascii	"\247\365\341\335{#\032\266\242\246\334\344\223\335\211"
  77      7B231AB6 
  77      A2A6DCE4 
  77      93DD89
  78 0133 A86AE570 		.ascii	"\250j\345pQ\265\276\321\345\264>n\237\371\326o\304$"
  78      51B5BED1 
  78      E5B43E6E 
  78      9FF9D66F 
  78      C424
  79 0145 AEA59086 		.ascii	"\256\245\220\206j\270\000\325\244\037eg\300@\213y\351"
  79      6AB800D5 
  79      A41F6567 
  79      C0408B79 
  79      E9
  80 0156 34FD514E 		.ascii	"4\375QN\316\316Fenby\342L\253\377-`\224\321\230-4\203"
  80      CECE4665 
  80      6E6279E2 
  80      4CABFF2D 
  80      6094D198 
  81 016d 4205058B 		.ascii	"B\005\005\213\202\227\202\217\202\237B\200B\220B%\005"
  81      8297828F 
  81      829F4280 
  81      42904225 
  81      05
  82 017e C60A084F 		.ascii	"\306\012\010Ov\0279\247\253x\014\215(\265\000\016#b"
  82      761739A7 
  82      AB780C8D 
  82      28B5000E 
  82      2362
  83 0190 A2AC66BB 		.ascii	"\242\254f\273\357\256\207\314\341H\323\216r\237A\337"
  83      EFAE87CC 
  83      E148D38E 
  83      729F41DF 
  84 01a0 78E6E5D1 		.ascii	"x\346\345\321}T\203\371\364Xv\3221Ow\206\216\037\031"
  84      7D5483F9 
  84      F45876D2 
ARM GAS  C:\Users\Daniela\AppData\Local\Temp\ccm3GHIA.s 			page 6


  84      314F7786 
  84      8E1F19
  85 01b3 C99BB569 		.ascii	"\311\233\265i\031k\220r\233-\014\322\013\227\324\224"
  85      196B9072 
  85      9B2D0CD2 
  85      0B97D494 
  86 01c3 F03DD462 		.ascii	"\360=\324b\311\300\323d\306\351\320\340\362\257\002"
  86      C9C0D364 
  86      C6E9D0E0 
  86      F2AF02
  87 01d2 3A1CCCC6 		.ascii	":\034\314\306\027\373\237\267\364\007\0114*\264\371"
  87      17FB9FB7 
  87      F4070934 
  87      2AB4F9
  88 01e1 BC1E0737 		.ascii	"\274\036\0077\233\035{\340\251\237\226\007\244\254\304"
  88      9B1D7BE0 
  88      A99F9607 
  88      A4ACC4
  89 01f0 B326A14C 		.ascii	"\263&\241L\033\275u?o%\341$\262\321\271\011\227\361"
  89      1BBD753F 
  89      6F25E124 
  89      B2D1B909 
  89      97F1
  90 0202 79F981E8 		.ascii	"y\371\201\3500y\360J\246\311\254\271@\216\312\"\330"
  90      3079F04A 
  90      A6C9ACB9 
  90      408ECA22 
  90      D8
  91 0213 A2023A21 		.ascii	"\242\002:!\0113\3345\374\367?\343_\223TZ'\015[Xp\005"
  91      0933DC35 
  91      FCF73FE3 
  91      5F93545A 
  91      270D5B58 
  92 0229 6A4A5AE9 		.ascii	"jJZ\351\326\317\\+x\025\245Lb\273\027\262P\213S\374"
  92      D6CF5C2B 
  92      7815A54C 
  92      62BB17B2 
  92      508B53FC 
  93 023d 08F56442 		.ascii	"\010\365dB\363\251%\256\005\035\371\301\270\251,\000"
  93      F3A925AE 
  93      051DF9C1 
  93      B8A92C00 
  94 024d DCB6F6FD 		.ascii	"\334\266\366\375\0357\312-\350r-\350\206Z\234O\015\374"
  94      1D37CA2D 
  94      E8722DE8 
  94      865A9C4F 
  94      0DFC
  95 025f AAE5F4DB 		.ascii	"\252\345\364\333j`\243\314\271)(\263\016\363#\375\255"
  95      6A60A3CC 
  95      B92928B3 
  95      0EF323FD 
  95      AD
  96 0270 237E9443 		.ascii	"#~\224C\353>\346}\320\343\310\271\352\312y\364\216+"
  96      EB3EE67D 
  96      D0E3C8B9 
  96      EACA79F4 
  96      8E2B
ARM GAS  C:\Users\Daniela\AppData\Local\Temp\ccm3GHIA.s 			page 7


  97 0282 67CE39BF 		.ascii	"g\3169\277\343\\\323\037\355S>\265= s\222\274m\355\372"
  97      E35CD31F 
  97      ED533EB5 
  97      3D207392 
  97      BC6DEDFA 
  98 0296 E6B89F5C 		.ascii	"\346\270\237\\#\256\367\360Q\010@\016\037\306^\342\202"
  98      23AEF7F0 
  98      5108400E 
  98      1FC65EE2 
  98      82
  99 02a7 6BE8112A 		.ascii	"k\350\021*r\356sa\342h\013\270\260\303\003\027\307\014"
  99      72EE7361 
  99      E2680BB8 
  99      B0C30317 
  99      C70C
 100 02b9 85137371 		.ascii	"\205\023sq\246&\036v{\027\342\364\315\341\364#\016\326"
 100      A6261E76 
 100      7B17E2F4 
 100      CDE1F423 
 100      0ED6
 101 02cb F4FC9BEA 		.ascii	"\364\374\233\352\011\250\273\335\214\312M\310c\366\037"
 101      09A8BBDD 
 101      8CCA4DC8 
 101      63F61F
 102 02da 90FD854F 		.ascii	"\220\375\205O\010\230\206[C\\\377}u'\031\015(;*\026"
 102      0898865B 
 102      435CFF7D 
 102      7527190D 
 102      283B2A16 
 103 02ee 688485FA 		.ascii	"h\204\205\372\256#.6D_\033\252\330R\365\371\304\344"
 103      AE232E36 
 103      445F1BAA 
 103      D852F5F9 
 103      C4E4
 104 0300 178A860C 		.ascii	"\027\212\206\014\012\302\000\026?\202\330_\302\255r"
 104      0AC20016 
 104      3F82D85F 
 104      C2AD72
 105 030f 0E6815B9 		.ascii	"\016h\025\271`\203AA\224\226\312y\027\243\033,\243\363"
 105      60834141 
 105      9496CA79 
 105      17A31B2C 
 105      A3F3
 106 0321 A9FAB4FD 		.ascii	"\251\372\264\3754e*\276Y\200\033\016v\221klh\355|d\377"
 106      34652ABE 
 106      59801B0E 
 106      76916B6C 
 106      68ED7C64 
 107 0336 62C84365 		.ascii	"b\310Ce\310\001\254/\311~\340\312\016 @[G\357\214\371"
 107      C801AC2F 
 107      C97EE0CA 
 107      0E20405B 
 107      47EF8CF9 
 108 034a 66340B6E 		.ascii	"f4\013n\316M\242\263\203\253\346\363\005\027\343\373"
 108      CE4DA2B3 
 108      83ABE6F3 
 108      0517E3FB 
ARM GAS  C:\Users\Daniela\AppData\Local\Temp\ccm3GHIA.s 			page 8


 109 035a A98CAF12 		.ascii	"\251\214\257\022\353\347\224\033\245\367_n-\275\374"
 109      EBE7941B 
 109      A5F75F6E 
 109      2DBDFC
 110 0369 51016C14 		.ascii	"Q\001l\024?\010\211\321aP\035\364\235\177\001\370t\370"
 110      3F0889D1 
 110      61501DF4 
 110      9D7F01F8 
 110      74F8
 111 037b C489DE78 		.ascii	"\304\211\336x\325\374\267_\303\257\303-\250\322\030"
 111      D5FCB75F 
 111      C3AFC32D 
 111      A8D218
 112 038a E2EAF461 		.ascii	"\342\352\364a\001\002\304Wm\331\207\341\317\303\221"
 112      0102C457 
 112      6DD987E1 
 112      CFC391
 113 0399 505D78C7 		.ascii	"P]x\307\266\315\273\366F\266\207\267l\332\274k\335\352"
 113      B6CDBBF6 
 113      46B687B7 
 113      6CDABC6B 
 113      DDEA
 114 03ab 2DEBBEFC 		.ascii	"-\353\276\374`gh\317\247\357ng\326\356P$\364Y\270.\034"
 114      606768CF 
 114      A7EF6E67 
 114      D6EE5024 
 114      F459B82E 
 115 03c0 D96346C2 		.ascii	"\331cF\302u\037\207v\356\015\353\0336n\262\330\377<"
 115      751F8776 
 115      EE0DEB1B 
 115      366EB2D8 
 115      FF3C
 116 03d2 B3018B   		.ascii	"\263\001\213"
 117              		.text
 118              		.section	.gnu.lto_CySysFlashClockRestore.585646c9,"",%progbits
 119 0000 789C7D54 		.ascii	"x\234}T]LTG\024\2363s\357\335\313\335?|\361\21146)i"
 119      5D4C5447 
 119      149E3373 
 119      EFDDCBDD 
 119      3F7CF189 
 120 0018 7C91D0F8 		.ascii	"|\221\320\370`\322\350\213\211>\371\223\232\364\311"
 120      60D2E88B 
 120      893EF993 
 120      9AF4C9
 121 0027 C66CEC26 		.ascii	"\306l\354&}\260jWL\364\211\201\335\313\2171*i*F\260"
 121      7DB06A57 
 121      4CF48981 
 121      DDCB8F31 
 121      2A692A46 
 122 003c A4F840A9 		.ascii	"\244\370@\251\305\005J\305\025ZWXA\320jm\304\177\015"
 122      C5054AC5 
 122      155A5758 
 122      41D06A6D 
 122      C47F0D
 123 004f FEA08992 		.ascii	"\376\240\211\222\015\213\030\242\010\333s\356\334E\330"
 123      0D8B18A2 
 123      08DB73EE 
ARM GAS  C:\Users\Daniela\AppData\Local\Temp\ccm3GHIA.s 			page 9


 123      DC45D8
 124 005e 0726D973 		.ascii	"\007&\331sw\346\234\371\276\357|w\356h\014\030\215^"
 124      77E69CF9 
 124      BEEF7C77 
 124      EE680C18 
 124      8D5E
 125 0070 9DB1B5F8 		.ascii	"\235\261\265\370\334\204?\3600\340\307\2563Var.\006"
 125      DC843FF0 
 125      30E0C7AE 
 125      33566172 
 125      2E06
 126 0082 834C5ADA 		.ascii	"\203LZ\332\320:&}\002\014\265\254q\235\026,\203\222"
 126      D03A267D 
 126      020CB5AC 
 126      719D162C 
 126      8392
 127 0094 3E3DB76C 		.ascii	">=\267l\000\320\037i\002+\347B\323\015(\207\267|\226"
 127      00D01F69 
 127      022BE742 
 127      D30D2887 
 127      B77C96
 128 00a7 C3CD587B 		.ascii	"\303\315X{\243\230\342\266`\240\3414\363\317\311g\001"
 128      A398E2B6 
 128      60A0E134 
 128      F3CFC967 
 128      01
 129 00b8 9A02ACC0 		.ascii	"\232\002\254\300i\203\374\257\326\263\262E\312J9j\247"
 129      6983FCAF 
 129      D6B3B245 
 129      CA4A396A 
 129      A7
 130 00c9 FDAD9DFF 		.ascii	"\375\255\235\377\312\002[p\226\345\014~\205\"h\201\""
 130      CA025B70 
 130      96E50C7E 
 130      85226881 
 130      22
 131 00da 52D50A2B 		.ascii	"R\325\012+\031V\237\354\231\032\326\025\226\211\323"
 131      19569FEC 
 131      991AD615 
 131      9689D3
 132 00e9 EEF4996E 		.ascii	"\356\364\231n\277\302JRzv\372XT\023\237\001\375\377"
 132      BFC24A52 
 132      7A76FA58 
 132      54139F01 
 132      FDFF
 133 00fb 703B31E0 		.ascii	"p;1\340->-S\02529\233>\360\243\224W\244f\013\001\277"
 133      2D3E2D53 
 133      1532399B 
 133      3EF0A394 
 133      57A4660B 
 134 0111 8320F033 		.ascii	"\203 \3603\010\376\233\003\316\250\374D}uk@\2248[\037"
 134      08FE9B03 
 134      CEA8FC44 
 134      7D756B40 
 134      94385B1F 
 135 0125 DEB839A6 		.ascii	"\336\2709\246\341V\324\224|\233\336[\027U[9\234U[?\352"
 135      E156D494 
ARM GAS  C:\Users\Daniela\AppData\Local\Temp\ccm3GHIA.s 			page 10


 135      7C9BDE5B 
 135      17555B39 
 135      9C555B3F 
 136 013a 72B63EED 		.ascii	"r\266>\355\230\373\311o\304$\216\025\020\207bh\203b"
 136      98FBC96F 
 136      C4248E15 
 136      10876268 
 136      8362
 137 014c D28FB2DB 		.ascii	"\322\217\262\333\301@\213yn5\376URf\263Q\231|\263\252"
 137      C1408B79 
 137      6E35FE55 
 137      5266B351 
 137      997CB3AA 
 138 0160 AEA633B0 		.ascii	"\256\2463\260\014\030e4f\013\315\240P@\301\242\340\245"
 138      0C186534 
 138      660BCDA0 
 138      5040C1A2 
 138      E0A5
 139 0172 E0A3E0A7 		.ascii	"\340\243\340\247\020\240\020\244PH\201\261\011\204'"
 139      10A010A4 
 139      504881B1 
 139      098427
 140 0181 BB339CD3 		.ascii	"\2733\234\323S<\205J\224:\001\016#b\242\254\343v\337"
 140      533C854A 
 140      943A010E 
 140      2362A2AC 
 140      E376DF
 141 0194 0D0F99C3 		.ascii	"\015\017\231\303\221\246\003\345\276\200\276\251\211"
 141      91A603E5 
 141      BE80BEA9 
 141      89
 142 01a1 5B8D07A8 		.ascii	"[\215\007\250\006\363\361\361\304;\307<\335i\272\352"
 142      06F3F1F1 
 142      C43BC73C 
 142      DD69BAEA 
 143 01b1 C458CA2C 		.ascii	"\304X\312,\215\313X\205\224;la\220^\350T]\302\037P\212"
 143      8DCB5885 
 143      943B6C61 
 143      905EE854 
 143      5DC21F50 
 144 01c6 25AFED97 		.ascii	"%\257\355\227\323\016\242\006\347F\004t9\230\225\223"
 144      D30EA206 
 144      E7460474 
 144      39989593 
 145 01d6 D52F86FB 		.ascii	"\325/\206\373\203\004\032\025\332B^\217\203\233H\214"
 145      83041A15 
 145      DA425E8F 
 145      839B488C 
 146 01e6 3FF094CF 		.ascii	"?\360\224\317\312\032)\013q\255V(\323^]\033IYMp\012"
 146      CA1A290B 
 146      71AD5628 
 146      D35E5D1B 
 146      49594D70 
 147 01fb D968DD84 		.ascii	"\331h\335\204sx^\376$:L\0369\337^k\226\264\221\2432"
 147      73785EFE 
 147      243A4C1E 
 147      39DF5E6B 
ARM GAS  C:\Users\Daniela\AppData\Local\Temp\ccm3GHIA.s 			page 11


 147      96B491A3 
 148 0210 03B62880 		.ascii	"\003\266(\200nh\2029\356\032~\347^\325a\222J\343\224"
 148      6E688239 
 148      EE1A7EE7 
 148      5ED56192 
 148      4AE394
 149 0223 610B0BCE 		.ascii	"a\013\013\316CIN+\275\372\271K\023^E)\233p\273\027\022"
 149      43494E2B 
 149      BDFAB94B 
 149      135E4529 
 149      9B70BB17 
 150 0238 508A5D5C 		.ascii	"P\212]\\\200r2\341\370/\237\270\026t\245\006\253Le\001"
 150      807232E1 
 150      F82F9FB8 
 150      1674A506 
 150      AB4C6501 
 151 024c E0B4B9EF 		.ascii	"\340\264\271\357Q\225\221oA\217kA/\224b\177\252\341"
 151      5195916F 
 151      418F6B41 
 151      2F94627F 
 151      AAE1
 152 025e F4F0E9E5 		.ascii	"\364\360\351\345\252a#\317\271\031\310\263\016\363c"
 152      AA6123CF 
 152      B919C8B3 
 152      0EF363
 153 026d FDCD637E 		.ascii	"\375\315c~\224Cc\004\363>\370\313\221\363\267+\347\311"
 153      94436304 
 153      F33EF8CB 
 153      91F3B72B 
 153      E7C9
 154 027f E7AE9C79 		.ascii	"\347\256\234y\347\374\216s\265w;f|jZ#\223\222\274m\356"
 154      E7FC8E73 
 154      B5773B66 
 154      7C6A5A23 
 154      9392BC6D 
 155 0294 39DAE027 		.ascii	"9\332\340'\327\210\353K<\012\001H\342a\274H\\p\011="
 155      D788EB4B 
 155      3C0A0148 
 155      E261BC48 
 155      5C70093D 
 156 02a8 4245CE7B 		.ascii	"BE\316{n\277\323\3703\270\260\243\003g\307\015\205\023"
 156      6EBFD3F8 
 156      33B8B0A3 
 156      0367C70D 
 156      8513
 157 02ba 737166A6 		.ascii	"sqf\246\037\366z\027\343\364\315\343\364#\016\326\\"
 157      1FF67A17 
 157      E3F4CDE3 
 157      F4230ED6 
 157      5C
 158 02cb 6F6B88FB 		.ascii	"ok\210\373\324\333\256G\345&\2440\373\022d\377\343\010"
 158      D4DBAE47 
 158      E526A430 
 158      FB1264FF 
 158      E308
 159 02dd 0153736B 		.ascii	"\001Ssk\210\353\375\241\201\253\321\200\262\243`\221"
 159      88EBFDA1 
ARM GAS  C:\Users\Daniela\AppData\Local\Temp\ccm3GHIA.s 			page 12


 159      81ABD180 
 159      B2A36091 
 160 02ed 4658ACEF 		.ascii	"FX\254\3572\342\342\206\350\007C\025[\252>U\367\356"
 160      32E2E286 
 160      E8074315 
 160      5BAA3E55 
 160      F7EE
 161 02ff 07454306 		.ascii	"\007EC\006\005a\000\213\237@\354\276p\253\234\005\032"
 161      0561008B 
 161      9F40ECBE 
 161      70AB9C05 
 161      1A
 162 0310 192ED860 		.ascii	"\031.\330`P\020\245\245r\336\245\350\006\363\350|\252"
 162      5010A5A5 
 162      72DEA5E8 
 162      06F3E87C 
 162      AA
 163 0321 3E6E3F6F 		.ascii	">n?o5\025_\026\340\212\203\235\341\032\033Z\267\020"
 163      35155F16 
 163      E08A839D 
 163      E11A1B5A 
 163      B710
 164 0333 D9BF14F2 		.ascii	"\331\277\024\362P\036r\000\353s\262\037\270\262\003"
 164      501E7200 
 164      EB73B21F 
 164      B8B203
 165 0342 08D0D275 		.ascii	"\010\320\322uq\316\374\330\232\005\303\363\235\350\354"
 165      71CEFCD8 
 165      9A05C3F3 
 165      9DE8EC
 166 0351 C8170BF9 		.ascii	"\310\027\013\371\202K\361]\315\343+\304\372y\345F\356"
 166      824BF15D 
 166      CDE32BC4 
 166      FA79E546 
 166      EE
 167 0362 FB97DFE4 		.ascii	"\373\227\337\344>\376\250\000\366\012/\204\354\344("
 167      3EFEA800 
 167      F60A2F84 
 167      ECE428
 168 0371 A81D74CF 		.ascii	"\250\035t\317O\002\236\016\2378\\_]\264\360\353\327"
 168      4F029E0E 
 168      9F385C5F 
 168      5DB4F0EB 
 168      D7
 169 0382 F076B806 		.ascii	"\360v\270\006E\032C\\\235.\026 @\374\324>\335\030\336"
 169      451A435C 
 169      9D2E1620 
 169      40FCD43E 
 169      DD18DE
 170 0395 1D8E84CA 		.ascii	"\035\216\204\312\302\337\356\330\266g\177dgx\373\326"
 170      C2DFEED8 
 170      B6677F64 
 170      6778FBD6 
 171 03a5 6D7BD6AF 		.ascii	"m{\326\257\336\276\376\340\206]\241}\337\255\332\311"
 171      DEBEFEE0 
 171      865DA17D 
 171      DFADDAC9 
ARM GAS  C:\Users\Daniela\AppData\Local\Temp\ccm3GHIA.s 			page 13


 172 03b5 ACBDA148 		.ascii	"\254\275\241H\350\373pY8\262\317\214\204\313\276\016"
 172      E8FB7059 
 172      38B2CF8C 
 172      84CBBE0E 
 173 03c5 EDDA1FD6 		.ascii	"\355\332\037\3267o\331j\261\377\001+l\002b"
 173      376FD96A 
 173      B1FF012B 
 173      6C0262
 174              		.text
 175              		.section	.gnu.lto_CySysFlashWriteRow.585646c9,"",%progbits
 176 0000 789C7D57 		.ascii	"x\234}WklT\327\021\276s\317\276_^\343\365{Ch\024\313"
 176      6B6C54D7 
 176      11BE73CF 
 176      BE5F5EE3 
 176      F57B4368 
 177 0016 20548C31 		.ascii	" T\2141\224\242P\211`\302CU\322(\226\332\376@\252,\272"
 177      94A25089 
 177      60C24355 
 177      D22896DA 
 177      FE40AA2C 
 178 002b 551F04A8 		.ascii	"U\037\004\250c\224\264R\341\332\353u\010R\300@\200\360"
 178      6394B452 
 178      E1DAEB75 
 178      0852C040 
 178      80F0
 179 003d 88802230 		.ascii	"\210\200\"0\264\016\306\346i x\001cC\022\343\332\200"
 179      B40EC6E6 
 179      69207801 
 179      634312E3 
 179      DA80
 180 004f 6BB0CDC3 		.ascii	"k\260\315\303`\207:\016]\363N\\\330\316\234s\357>.h"
 180      60873A0E 
 180      5DF34E5C 
 180      D8CE9C73 
 180      EF3E2E68 
 181 0063 57F2F8DE 		.ascii	"W\362\370\33693\337\314\2313\337\231]\203\004\022}\376"
 181      3933DFCC 
 181      9933DF99 
 181      5D830412 
 181      7DFE
 182 0075 EA96A43F 		.ascii	"\352\226\244?\342\177\037\276\302K\022\310U\027$\251"
 182      E27F1FBE 
 182      C24B12C8 
 182      551724A9 
 183 0085 CC22CB6C 		.ascii	"\314\"\313lE\256\244\330\262I:\230lh\371\011\275\235"
 183      45AEA4D8 
 183      B2493A98 
 183      6C68F909 
 183      BD9D
 184 0097 4FC73783 		.ascii	"O\3077\203l\342kF\276f\004\223p1\311\346P*\252-\333"
 184      6CE26B46 
 184      BE660493 
 184      7031C9E6 
 184      502AAA2D 
 185 00ac 7F8A6A33 		.ascii	"\177\212j3\330\204\332\"[Ia\263\321\242\303\252\251"
 185      D884DA22 
 185      5B4961B3 
ARM GAS  C:\Users\Daniela\AppData\Local\Temp\ccm3GHIA.s 			page 14


 185      D1A2C3AA 
 185      A9
 186 00bd 6DB2FDD8 		.ascii	"m\262\375\330hT{;\363Pm\227\035\0342\231C:d'Grq$'\270"
 186      68547B3B 
 186      F3506D97 
 186      1D1C3299 
 186      433A6427 
 187 00d7 858B4B4E 		.ascii	"\205\213KN\342Hn\216\224\244\251\335\220,\036\222\345"
 187      E2486E8E 
 187      94A4A9DD 
 187      902C1E92 
 187      E5
 188 00e8 511C249D 		.ascii	"Q\034$\235\203\214\222S8\210\207\203\244@\2320\362\310"
 188      838C9253 
 188      38888783 
 188      A4409A30 
 188      F2C8
 189 00fa A91C248D 		.ascii	"\251\034$\215\203\244j\3524H\027\017\351r\006\317+\213"
 189      83A46AEA 
 189      3448170F 
 189      E97206CF 
 189      2B8B
 190 010c E7952167 		.ascii	"\347\225!g^\312\243\267\023\250sdB\2260\312\002\257"
 190      5ECAA3B7 
 190      13A87364 
 190      429630CA 
 190      02AF
 191 011e 78C8D61E 		.ascii	"x\310\326\036\274\000\364\240X@Z.3\203\321d\266Xmv\207"
 191      BC00F4A0 
 191      58405A2E 
 191      3383D164 
 191      B6586D76 
 192 0133 D395E44E 		.ascii	"\323\225\344N\036\225\342IMK\317\310\314\312\366\302"
 192      1E95E249 
 192      4D4BCFC8 
 192      CCCAF6C2 
 193 0143 7278283F 		.ascii	"rx(?\225\241\275b\377V\366@\0160\011\014\370:\334\272"
 193      95A1BD62 
 193      FF56F640 
 193      0E30090C 
 193      F83ADCBA 
 194 0157 F9968B5E 		.ascii	"\371\226\213^\001\306\340\353\026\245\343#\363\270j"
 194      01C6E0EB 
 194      16A5E323 
 194      F3B86A
 195 0166 4529576E 		.ascii	"E)Wn\354\032\234\261\306\037\230\033`\262\024\226%\330"
 195      EC1A9CB1 
 195      C61F981B 
 195      60B21496 
 195      25D8
 196 0178 035EA806 		.ascii	"\003^\250\006/\036\030\354\205qh\273q\333\356~;{\025"
 196      2F1E18EC 
 196      857168BB 
 196      71DBEE7E 
 196      3B7B15
 197 018b 247CAE5F 		.ascii	"$|\256_\275\275\025rw\221\237\262\336\247X\321\011\376"
 197      BDBD1572 
ARM GAS  C:\Users\Daniela\AppData\Local\Temp\ccm3GHIA.s 			page 15


 197      77919FB2 
 197      DEA758D1 
 197      09FE
 198 019d 012CD68F 		.ascii	"\001,\326\217p\340\237\220\213\326_\216<\331mc\343\271"
 198      70E09F90 
 198      8BD65F8E 
 198      3CD96D63 
 198      E3B9
 199 01af A7B2EAD8 		.ascii	"\247\262\352\330\210Q\365\354\345\236\014j\364\236\230"
 199      8851F5EC 
 199      E59E0C6A 
 199      F49E98
 200 01be ECE7904B 		.ascii	"\354\347\220K\346\353\356\365\0365\261\002\356zu_U\205"
 200      E6EBEEF5 
 200      1E35B102 
 200      EE7A755F 
 200      5585
 201 01d0 2D6727B9 		.ascii	"-g'\271\006{+]\033\225`\331\230\0003\300>\341^\340\205"
 201      067B2B5D 
 201      1B9560D9 
 201      980033C0 
 201      3EE15EE0 
 202 01e5 895EDE69 		.ascii	"\211^\336ih[\323\332\322\243n{\005\320\373\236\336\001"
 202      685BD3DA 
 202      D2A36E7B 
 202      05D0FB9E 
 202      DE01
 203 01f7 B3D877D0 		.ascii	"\263\330w\320\202\357O\037W\371\015l&\307}\322\337\377"
 203      82EF4F1F 
 203      57F90D6C 
 203      26C77DD2 
 203      DFFF
 204 0209 D08AB84D 		.ascii	"\320\212\270MeJ\260\2739\015e\005\342\032\241^\340\326"
 204      654AB0BB 
 204      390D6505 
 204      E21AA15E 
 204      E0D6
 205 021b 615AFB21 		.ascii	"aZ\373!\202|\256o\343)\231\275\311=\017o\335>lD\317"
 205      827CAE6F 
 205      E32999BD 
 205      C93D0F6F 
 205      DD3E6C44 
 206 0230 0ABF12EC 		.ascii	"\012\277\022\354jv(Ue\226\0003\301\301\370\375\250\216"
 206      6A762855 
 206      65960033 
 206      C1C1F8FD 
 206      A88E
 207 0242 9F6EFC70 		.ascii	"\237n\374p\257\213\315\347\216[7]<\2449vF\035\017\277"
 207      AF8BCDE7 
 207      8E5B375D 
 207      3CA43976 
 207      461D0FBF 
 208 0256 D0B1AFEE 		.ascii	"\320\261\257\356\331z\247\251B\301\317\0308\0029p\010"
 208      D97AA7A9 
 208      42C1CF18 
 208      38023970 
 208      08
ARM GAS  C:\Users\Daniela\AppData\Local\Temp\ccm3GHIA.s 			page 16


 209 0267 FF0EE05F 		.ascii	"\377\016\340_-\344\320Q\341\011\035\005\023\262\312"
 209      2DE4D051 
 209      E1091D05 
 209      13B2CA
 210 0276 A85F45E7 		.ascii	"\250_E\347\236\266\366~\203Z\264\366\301%k\374\3129"
 210      9EB6F67E 
 210      835AB4F6 
 210      C1256BFC 
 210      CA39
 211 0288 C51060E6 		.ascii	"\305\020`\346\027\305\202\006\310\251}'\250\204\303"
 211      17C58206 
 211      C8A97D27 
 211      A884C3
 212 0297 98D665D3 		.ascii	"\230\326e\323\251\037\\?\007<\015\213L\202\221\260\003"
 212      A91F5C3F 
 212      073C0D8B 
 212      4C8291B0 
 212      03
 213 02a8 1DA903E8 		.ascii	"\035\251\003\350x\334\244H!\341!\221J\"\215D:\211\014"
 213      78DCA448 
 213      21E12191 
 213      4A228D44 
 213      3A890C
 214 02bb 129924B2 		.ascii	"\022\231$\262H\320\251ZFK\224\324\030z|\205D\016\211"
 214      48D0A95A 
 214      464B94D4 
 214      187A7C85 
 214      440E89
 215 02ce 5C126349 		.ascii	"\\\022cI\214#1\236\304\004\022y$&\222\310'1\211D\001"
 215      8C23319E 
 215      C4041279 
 215      242692C8 
 215      27318944 
 216 02e3 89C924A6 		.ascii	"\211\311$\246\220\230Jb\032\211\327HL'1\203:\357uz\232"
 216      90984A62 
 216      1A89D748 
 216      4C273183 
 216      3AEF757A 
 217 02f8 49A290C4 		.ascii	"I\242\220\304,\276\2657\350q6\2119$\346r\345<.%)\204"
 217      2CBEB537 
 217      E8713689 
 217      3924E672 
 217      E53C2E25 
 218 030e 75245E0D 		.ascii	"u$^\015\3132\375g\003p\372A\350r\273\221\227\366\010"
 218      CB32FD67 
 218      0370FA41 
 218      E872BB91 
 218      97F608
 219 0321 2FE586C0 		.ascii	"/\345\206\300\3516\336CXk8\2065#\233\252N\340&Tu\322"
 219      E936DE43 
 219      586B3886 
 219      35239BAA 
 219      4EE02654 
 220 0337 DD848A36 		.ascii	"\335\204\2126\177\365\252\014R\372\231\035\335\032\373"
 220      7FF5AA0C 
 220      52FA991D 
 220      DD1AFB
ARM GAS  C:\Users\Daniela\AppData\Local\Temp\ccm3GHIA.s 			page 17


 221 0346 BBDE242F 		.ascii	"\273\336$/\031\302f8\256\226zXf\322\212\\\206\326\335"
 221      19C26638 
 221      AE967A58 
 221      66D28A5C 
 221      86D6DD
 222 0359 FE015918 		.ascii	"\376\001Y\030;bc0\214q\"bl\220vf\263;P\031\334\324\342"
 222      3B626330 
 222      8C712262 
 222      6C907666 
 222      B33B5019 
 223 0370 20636A8B 		.ascii	" cj\213\206\206\241n\363\362\247\312\012Eq\007\2305"
 223      8686A16E 
 223      F3F2A7CA 
 223      0A457107 
 223      9835
 224 0382 2CD3BDFA 		.ascii	",\323\275\372\005,\247\265\263\341\307\301$\202\261"
 224      052CA7B5 
 224      B3E1C7C1 
 224      2482B1
 225 0391 015D0283 		.ascii	"\001]\002\203='\013\363k\225\2122E9\000\224?\365\307"
 225      3D270BF3 
 225      6B958A32 
 225      45390094 
 225      3FF5C7
 226 03a4 49818ECB 		.ascii	"I\201\216\313m\327\203\273\354\210D\237\277\005\230"
 226      6DD783BB 
 226      EC88449F 
 226      BF0598
 227 03b3 1D1A219F 		.ascii	"\035\032!\237G\201 ,\027y\035\0368\337l\023\200\012"
 227      4781202C 
 227      17791D1E 
 227      38DF6C13 
 227      800A
 228 03c5 C029F006 		.ascii	"\300)\360\006\230\203\366\332\345\037Y\375-\213n\266"
 228      9883F6DA 
 228      E51F59FD 
 228      2D8B6EB6 
 229 03d5 EAF2571F 		.ascii	"\352\362W\037\033\310\316\002a\006\247\325\015\204d"
 229      1BC8CE02 
 229      6106A7D5 
 229      0D8464
 230 03e4 A3D4E164 		.ascii	"\243\324\341d\303\262\211\366\201e\333P\367\254\314"
 230      C3B289F6 
 230      8165DB50 
 230      F7ACCC
 231 03f3 4C5EE852 		.ascii	"L^\350R;\324\360\275S@S2\201cw\356\270\324d\177\245"
 231      3BD4F0BD 
 231      53405332 
 231      816377EE 
 231      B8D4647F 
 232 0408 E57A4600 		.ascii	"\345zF\000A\023\344\373\2612T\370\375M\345\032\302\301"
 232      4113E4FB 
 232      B13254F8 
 232      FD4DE51A 
 232      C2C1
 233 041a A6964A8B 		.ascii	"\246\226J\213@ \256?{\324?S\017pV\005h\206|\264\030"
 233      4020AE3F 
ARM GAS  C:\Users\Daniela\AppData\Local\Temp\ccm3GHIA.s 			page 18


 233      7BD43F53 
 233      0F705605 
 233      68867CB4 
 234 042f 3937D098 		.ascii	"97\320\230$N2,A\013?\312\362{\037v\356\331\014b+n]\""
 234      244E322C 
 234      410B3FCA 
 234      F27B1F76 
 234      EED90C62 
 235 0447 F7419709 		.ascii	"\367A\227\011\256\177\262\273o\263S\255\332\027@e;\007"
 235      AE7FB2BB 
 235      6FB353AD 
 235      DA174065 
 235      3B07
 236 0459 F918E23C 		.ascii	"\371\030\342<\036\001m\361f\216\232^\344L\235|\203\037"
 236      1E016DF1 
 236      668E9A5E 
 236      E44C9D7C 
 236      831F
 237 046b 75D58D38 		.ascii	"u\325\2158\304\353\012%\250\320\255\374\367\343\253"
 237      C4EB0A25 
 237      A8D0ADFC 
 237      F7E3AB
 238 047a B738B7C1 		.ascii	"\2678\267\301ge\024\213z\334\005_!/\277\244X\3605l\003"
 238      6765148B 
 238      7ADC055F 
 238      212FBFA4 
 238      58F0356C 
 239 048f CC886F3A 		.ascii	"\314\210o:t\266\336\252\242\336h\3367d\0220\025*\314"
 239      74B6DEAA 
 239      A2DE68DE 
 239      37641230 
 239      152ACC
 240 04a2 C8E39E13 		.ascii	"\310\343\236\023\366x\230\326\010\314\005\204A\233\325"
 240      F67898D6 
 240      08CC0584 
 240      419BD5
 241 04b1 35BB8698 		.ascii	"5\273\206\2308 \272Q,\320\206\253\337\200r\346S\033"
 241      3820BA51 
 241      2CD086AB 
 241      DF8072E6 
 241      531B
 242 04c3 3F721AD0 		.ascii	"?r\032\320\024\352\207\225w\367\374Z\024#%.C\210\317"
 242      14EA8795 
 242      77F7FC5A 
 242      1423252E 
 242      4388CF
 243 04d6 EE5F088B 		.ascii	"\356_\010\213\366\376\377\231\204\261G\3307\255\371"
 243      F6FEFF99 
 243      84B147D8 
 243      37ADF9
 244 04e5 FECF220A 		.ascii	"\376\317\"\012\225'\011\332\0055\256\252\255\342\341"
 244      952709DA 
 244      0535AEAA 
 244      ADE2E1
 245 04f4 0AFCDCE3 		.ascii	"\012\374\334\343'v\343\324\320!\265k\016\327\372-\320"
 245      2776E3D4 
 245      D021B56B 
ARM GAS  C:\Users\Daniela\AppData\Local\Temp\ccm3GHIA.s 			page 19


 245      0ED7FA2D 
 245      D0
 246 0505 015EC350 		.ascii	"\001^\303PcM\022.]\333\260\351\003m\205\301E\360\032"
 246      634D122E 
 246      5DDBB0E9 
 246      036D85C1 
 246      45F01A
 247 0518 890F66A9 		.ascii	"\211\017f\251\303\314\342\263LM\224\345%]\226i\302\276"
 247      C3CCE2B3 
 247      4C4D94E5 
 247      255D9669 
 247      C2BE
 248 052a 36707BAF 		.ascii	"6p{\257E\355V\200\313<\245a\331\"u\244pp\2330NO\204"
 248      45ED5680 
 248      CB3CA561 
 248      D92275A4 
 248      70709B30 
 249 0541 DCA943CE 		.ascii	"\334\251C\316@{m\267\335\352n3\020\240\372`\3433K\264"
 249      407B6DB7 
 249      DDEA6E33 
 249      10A0FA60 
 249      E3334BB4 
 250 0555 2236F877 		.ascii	"\"6\370w\204\334Vi\255+6^f\242x]\272xYh\037\311\334"
 250      84DC5669 
 250      AD2B365E 
 250      66A2785D 
 250      BA785968 
 251 056c A6D16B47 		.ascii	"\246\321kG\252vo\371q\014\223f\270\245\303(<\274\244"
 251      AA766FF9 
 251      710C9366 
 251      B8A5C328 
 251      3CBCA4
 252 057f E687E15F 		.ascii	"\346\207\341_\244jbY\210\337+\340\212v82\226\312\334"
 252      A46A6259 
 252      88DF2BE0 
 252      8A763832 
 252      96CADC
 253 0592 D3BE1F48 		.ascii	"\323\276\037He\2210\234\225\342\330\245v\033^G\376`"
 253      6591309C 
 253      95E2D8A5 
 253      761B5E47 
 253      FE60
 254 05a4 E3CAD102 		.ascii	"\343\312\321\002b\364s\027RR\030oR\011\256\"\033\002"
 254      62F47317 
 254      5252186F 
 254      5209AE22 
 254      1B02
 255 05b6 D8BD7DC0 		.ascii	"\330\275}\300o9\032\000h-\221\363\305\225/\013\3471"
 255      6F391A00 
 255      682D91F3 
 255      C5952F0B 
 255      E731
 256 05c8 CF392787 		.ascii	"\3179'\207\361~\224\240\233;\217\342\033\3301Z\273g"
 256      F17E94A0 
 256      9B3B8FE2 
 256      1BD8315A 
 256      BB67
ARM GAS  C:\Users\Daniela\AppData\Local\Temp\ccm3GHIA.s 			page 20


 257 05da D1816BEA 		.ascii	"\321\201k\352:\357\231\005\300+\244\026[Z\246i\256D"
 257      3AEF9905 
 257      C02BA416 
 257      5B5AA669 
 257      AE44
 258 05ec EAEB90F6 		.ascii	"\352\353\220\366\030Y\037\224\343\374\013A\374<U\216"
 258      18591F94 
 258      E3FC0B41 
 258      FC3C558E 
 259 05fc AF9FCEA7 		.ascii	"\257\237\316\247g\030\257X\375\250\245\271\000=\304"
 259      6718AF58 
 259      FDA8A5B9 
 259      003DC4
 260 060b 09E8C5C8 		.ascii	"\011\350\305\310\015\361C\300\214u\272\246\016\201P"
 260      0DF143C0 
 260      8C75BAA6 
 260      0E8150
 261 061a D3966564 		.ascii	"\323\226ed\243\243\262;\376\350\256\013\006\356\330"
 261      A3A3B23B 
 261      FEE8AE0B 
 261      06EED8
 262 0629 547DDAAE 		.ascii	"T}\332\256\266t;\203\033\332 i\316V!bi\354\216'\361"
 262      B6743B83 
 262      1BDA2069 
 262      CE562162 
 262      69EC8E27 
 263 063e 4D01F1E0 		.ascii	"M\001\361\340n\340c\243\200X\317I\334\247\222x\313\335"
 263      6EE063A3 
 263      8058CF49 
 263      DCA79278 
 263      CBDD
 264 0650 B10412C3 		.ascii	"\261\004\022\303\342GG\3756R\371\331\353\211\263\273"
 264      E24747FD 
 264      3652F9D9 
 264      EB89B3BB 
 265 0660 156D2C6E 		.ascii	"\025m,n>\023=bh+t\032m\261\252N\251\021\324\256\345"
 265      3E133D62 
 265      682B741A 
 265      6DB1AA4E 
 265      A911D4AE 
 266 0675 6B8589E1 		.ascii	"k\205\211\341o\353\340g\241G\244o]\322 \213\305z#1V"
 266      6FEBE067 
 266      A147A46F 
 266      5DD2208B 
 266      C57A2331 
 267 068a BF0E6B36 		.ascii	"\277\016k6z\304pN\350b\010\226$\335\224c\341\347$\206"
 267      7AC4704E 
 267      E8620896 
 267      24DD9463 
 267      E1E72486 
 268 069e 1FD0C1CF 		.ascii	"\037\320\301\317E\217H\252n\265\231\224\237iM\341g\363"
 268      458F48AA 
 268      6EB59994 
 268      9F694DE1 
 268      67F3
 269 06b0 24EAAE5E 		.ascii	"$\352\256^\301\005\361u\002\243u\254\274\304\242,\234"
 269      C105F175 
ARM GAS  C:\Users\Daniela\AppData\Local\Temp\ccm3GHIA.s 			page 21


 269      02A375AC 
 269      BCC4A22C 
 269      9C
 270 06c1 47749A87 		.ascii	"Gt\232\207\373v\016\015Wz\250;]H\247\271I\204\231Lt"
 270      FB760E0D 
 270      577AA83B 
 270      5D48A7B9 
 270      4984994C 
 271 06d6 E21DDDBB 		.ascii	"\342\035\335\273V\355\350\234(I\227i\232hG\217\242$"
 271      56EDE89C 
 271      28499769 
 271      9A68478F 
 271      A224
 272 06e8 78E35D5B 		.ascii	"x\343][\253\315\203\330q\365\276~n~\303\307\336\347"
 272      ABCD83D8 
 272      71F5BE7E 
 272      6E7EC3C7 
 272      DEE7
 273 06fa 651B8F68 		.ascii	"e\033\217h\327l\035\203;\242\363N\326]/\267\212\030"
 273      D76C1D83 
 273      3BA2F34E 
 273      D65D2FB7 
 273      8A18
 274 070c B9F1386E 		.ascii	"\271\3618n=\314\177p\300aaB\225=\352\3553VL\375\216"
 274      3DCC7F70 
 274      C0616142 
 274      953DEAED 
 274      33564CFD 
 275 0721 D0D79FD9 		.ascii	"\320\327\237\331\305\000v\303 \207\365?\251l2\010\243"
 275      C50076C3 
 275      2087F53F 
 275      A96C3208 
 275      A3
 276 0732 71088CA6 		.ascii	"q\010\214\246\234\263\360|\266\317E\371\226\206\374"
 276      9CB3F07C 
 276      B6CF45F9 
 276      9686FC
 277 0741 3831929B 		.ascii	"81\222\233k\216\251#y\274n\217\353L\211Gr/\037\311C"
 277      6B8EA923 
 277      79BC6E8F 
 277      EB4C8947 
 277      722F1FC9 
 278 0756 7C247FA7 		.ascii	"|$\177\247\215\344\037\253\341\343\006n\221n\340\336"
 278      8DE41FAB 
 278      E1E3066E 
 278      916EE0DE 
 279 0766 E50377BC 		.ascii	"\345\003w\274`\366\355z\273\352\0237]\213t\323\365\277"
 279      60F6ED7A 
 279      BBEA1337 
 279      5D8B74D3 
 279      F5BF
 280 0778 82980FAB 		.ascii	"\202\230\017\253\366]Q\271\035\340\304\014\251\304\374"
 280      F65D51B9 
 280      1DE0C40C 
 280      A9C4FC
 281 0787 C4AE9BAE 		.ascii	"\304\256\233\256\327j>\020\373\232\220\350\266\037\326"
 281      D76A3E10 
ARM GAS  C:\Users\Daniela\AppData\Local\Temp\ccm3GHIA.s 			page 22


 281      FB9A90E8 
 281      B61FD6
 282 0796 DDF67968 		.ascii	"\335\366yh\257\237\245y1\244L\211\222\222\257ML\004"
 282      AF9FA579 
 282      31A44C89 
 282      9292AF4D 
 282      4C04
 283 07a8 7E4F078E 		.ascii	"~O\007\216U\237\030\351sO\224\222|qR\"\244\373:\244"
 283      559F18E9 
 283      734F9492 
 283      7C715222 
 283      A4FB3AA4 
 284 07bc 02B4D70F 		.ascii	"\002\264\327\017\301\202\030B\246F\011\311\327&'\002"
 284      C1821842 
 284      A64609C9 
 284      D7262702 
 285 07cc 7FA0039F 		.ascii	"\177\240\003\237"
 286 07d0 82F69134 		.ascii	"\202\366\2214\323T&l\330\361R\224k\214\270\306pC)\347"
 286      D354266C 
 286      D8F15294 
 286      6B8CB8C6 
 286      704329E7 
 287 07e4 CCC41A0F 		.ascii	"\314\304\032\0172mJ*\231\247G\230\326z_e\332\324\347"
 287      326D4A2A 
 287      99A74798 
 287      D67A5F65 
 287      DAD4E7
 288 07f7 66C7D418 		.ascii	"f\307\324\030\246eH\353\014|\3225\254\312\021\253\323"
 288      A66548EB 
 288      0C7CD235 
 288      ACCA11AB 
 288      D3
 289 0808 5E34ACF0 		.ascii	"^4\254\360K\011<\214\035V\257F\207\32541\254\332\016"
 289      4B093C8C 
 289      1D56AF46 
 289      87D53431 
 289      ACDA0E
 290 081b A8247B4D 		.ascii	"\250${M\013\330\355\337\007\232*\0321Sj\222E\212\227"
 290      0BD8EDDF 
 290      079A2A1A 
 290      31536A92 
 290      458A97
 291 082e 6EA9294E 		.ascii	"n\251)N\347\036\021\372\210MN\347\326Yb\022W\004\257"
 291      E71E11FA 
 291      884D4EE7 
 291      D6596212 
 291      5704AF
 292 0841 5C70BDF8 		.ascii	"\\p\275\370\207AJX\246\011\366\010\263\303\301\033`"
 292      87414A58 
 292      A609F608 
 292      B3C3C11B 
 292      60
 293 0852 1EEE972D 		.ascii	"\036\356\227-}7I\334 =;c\177\343\234\272Q?l\027\337"
 293      7D3749DC 
 293      203D3B63 
 293      7FE39CBA 
 293      513F6C17 
ARM GAS  C:\Users\Daniela\AppData\Local\Temp\ccm3GHIA.s 			page 23


 294 0867 8C0DF058 		.ascii	"\214\015\360X-\262W\373E\264\241\356\332\031\3658g\360"
 294      2DB257FB 
 294      45B4A1EE 
 294      DA19F538 
 294      67F0
 295 0879 0B6A10D4 		.ascii	"\013j\020\324\337.3\304\327| K\034\373?\232\343[\344"
 295      DF2E33C4 
 295      D77C204B 
 295      1CFB3F9A 
 295      E35BE4
 296 088c 2B292EF5 		.ascii	"+).\365\375\3667E\213\227\226,\360\315\177\273hq\341"
 296      FDF63745 
 296      8B97962C 
 296      F0CD7FBB 
 296      6871E1
 297 089f E4F9857F 		.ascii	"\344\371\205\177\231\275\260\370\275\337OX \231J\026"
 297      99BDB0F8 
 297      BDDF4F58 
 297      20994A16 
 298 08af BFFFD6D2 		.ascii	"\277\377\326\322w\315\370oVqi\261\353\017\213J}%%K\227"
 298      77CDF86F 
 298      567169B1 
 298      EB0F8B4A 
 298      7D25254B 
 299 08c4 941695A2 		.ascii	"\224\026\225\242\233mIqI\361\273>T\275\347Z\260\360"
 299      9B6D4971 
 299      49F1BB3E 
 299      54BDE75A 
 299      B0F0
 300 08d6 4F858B7E 		.ascii	"O\205\213~\367\216\257\364\227\305\013\227\372,%\352"
 300      F78EAFF4 
 300      97C50B97 
 300      FA2C25EA 
 301 08e6 83F1AD5F 		.ascii	"\203\361\255_\274m\223\376\017h\032\231\365"
 301      BC6D93FE 
 301      0F681A99 
 301      F5
 302              		.text
 303              		.section	.gnu.lto_CySysFlashSetWaitCycles.585646c9,"",%progbits
 304 0000 789C9554 		.ascii	"x\234\225T\353KTA\024?g\346>\366\241\273V\020T\233\030"
 304      EB4B5441 
 304      143F67E6 
 304      3EF6A1BB 
 304      5610549B 
 305 0015 2426440A 		.ascii	"$&D\012\006\375\001A}\215\374X\024b\033\005\241\266"
 305      06FD0141 
 305      7D8DFC58 
 305      14621B05 
 305      A1B6
 306 0027 69D02747 		.ascii	"i\320'Gw\327\036D\004QA&\022\021\225\226\317L77\273"
 306      77D71E44 
 306      04514126 
 306      12119596 
 306      CF4C3737 
 307 003c 49D6874A 		.ascii	"I\326\207J\321\244\017=\2544,BH\303\324B\275\235\271"
 307      D1A40F3D 
 307      AC342C42 
ARM GAS  C:\Users\Daniela\AppData\Local\Temp\ccm3GHIA.s 			page 24


 307      48C3D442 
 307      BD9DB9
 308 004f A35BF610 		.ascii	"\243[\366\020\032\330s\357\234\371\235\337\371\375\346"
 308      1AD873EF 
 308      9CF99DDF 
 308      F9FDE6
 309 005e CEAC0608 		.ascii	"\316\254\006\010r\234\322\0006\321\263\210~\350\001"
 309      729CD200 
 309      36D1B388 
 309      7EE801
 310 006d 64A7BB01 		.ascii	"d\247\273\001\312\\\214\361x*\010\217\326\237\005\""
 310      CA5C8CF1 
 310      782A088F 
 310      D69F0522 
 311 007d 89A35BA5 		.ascii	"\211\243[\2455\246;i\303I\353\363i\203\231\317)\341"
 311      35A63B69 
 311      C349EBF3 
 311      698399CF 
 311      29E1
 312 008f 71DDA1C5 		.ascii	"q\335\241\305$s>\355\232\177q#\312\027\341B(e\\\323"
 312      24733EED 
 312      9A7F7123 
 312      CA17E142 
 312      28655CD3 
 313 00a3 0D9352A5 		.ascii	"\015\223R\245\370\225\3150\354<:\034c\231W\005\215\267"
 313      F895CD30 
 313      EC3C3A1C 
 313      63995705 
 313      8DB7
 314 00b5 5DCD39E2 		.ascii	"]\3159\342\232\205Q\016`3G\036\340U\314$To\244\341\""
 314      9A85510E 
 314      6033471E 
 314      E055CC24 
 314      546FA4E1 
 315 00ca 1F67518E 		.ascii	"\037gQ\216\250\321t\354\351\205!\237\2342L\243i\317"
 315      A8D174EC 
 315      E985219F 
 315      9C324CA3 
 315      69CF
 316 00dc C4FB4B7E 		.ascii	"\304\373K~\276\026\201\336OvOt`\306\025!\312\205\250"
 316      BE1681DE 
 316      4F764F74 
 316      60C61521 
 316      CA85A8
 317 00ef 0C0A7794 		.ascii	"\014\012w\224s\254AN|x\035\003x\015\003@)\300Z\314\220"
 317      73AC414E 
 317      7C781D03 
 317      780D0340 
 317      29C05ACC 
 318 0104 F0335F5E 		.ascii	"\3603_^\267\031<\323)}Qw:\342I\277,K\255\306J\337ya"
 318      B7193CD3 
 318      297D5177 
 318      3AE249BF 
 318      2C4BADC6 
 319 011c 95A545B9 		.ascii	"\225\245E\271\2067TyN\000\263\003\216(\302\0166\316"
 319      86375479 
 319      4E00B303 
ARM GAS  C:\Users\Daniela\AppData\Local\Temp\ccm3GHIA.s 			page 25


 319      8E28C20E 
 319      36CE
 320 012e 9E4D3622 		.ascii	"\236M6\"Rv\032\336\304t%\030\353\320\240}E\231\251\337"
 320      52761ADE 
 320      C4742518 
 320      EBD0A07D 
 320      4599A9DF 
 321 0142 6E09DB0E 		.ascii	"n\011\333\016\013\253z\325\375\276\324e\032\310\244"
 321      0BAB7AD5 
 321      FDBED465 
 321      1AC8A4
 322 0151 8EB2B141 		.ascii	"\216\262\261A\022tS\006\267\014\036\031\2742$\313\340"
 322      12745306 
 322      B70C1E19 
 322      BC3224CB 
 322      E0
 323 0162 93C12F03 		.ascii	"\223\301/\003\300(\261\312\255\033cL>\371G\014[-\225"
 323      C028B1CA 
 323      AD1B634C 
 323      3EF9470C 
 323      5B2D95
 324 0175 CB659F30 		.ascii	"\313e\2370\227;\021\213\215\2744Kg\3041!R\242\334\260"
 324      973B118B 
 324      8DBC344B 
 324      67C43121 
 324      52A2DCB0 
 325 0189 996C5F8F 		.ascii	"\231l_\217\245Tn\302 2G\0215&4\274\303HO\370C\353:U"
 325      A5546EC2 
 325      20324711 
 325      352634BC 
 325      C3484FF8 
 326 01a1 AD5375DF 		.ascii	"\255Su\337\350\223*\257\334G\035S\260\001\225\2731\306"
 326      E8932AAF 
 326      DC471D53 
 326      B00195BB 
 326      31C6
 327 01b3 219ECA87 		.ascii	"!\236\312\207\261\363\373\211\201\317\027P\301\015\202"
 327      B1F3FB89 
 327      81CF1750 
 327      C10D82
 328 01c2 9F8B76F6 		.ascii	"\237\213v\366\230\022\356r\366kj\250n\304\245\246\015"
 328      9812EE72 
 328      F66B6AA8 
 328      6EC4A5A6 
 328      0D
 329 01d3 C212524E 		.ascii	"\302\022RN\270\245\355\262\247\032\253\312\"\364\025"
 329      B8A5EDB2 
 329      A71AABCA 
 329      22F415
 330 01e2 DDD8443B 		.ascii	"\335\330D;\336(i\261\031\253\021\2061<]1\275B\021\232"
 330      DE2869B1 
 330      19AB1186 
 330      313C5D31 
 330      BD42119A 
 331 01f6 8AB36322 		.ascii	"\212\263c\"zX)\230\266m\333\217\267\010N\255\317]J\227"
 331      7A582998 
 331      B66DDB8F 
ARM GAS  C:\Users\Daniela\AppData\Local\Temp\ccm3GHIA.s 			page 26


 331      B7084EAD 
 331      CF5D4A97 
 332 020a B0059465 		.ascii	"\260\005\224eB\344\302B\332\026\242%*G\265\006\375Y"
 332      42E4C242 
 332      DA16A225 
 332      2A47B506 
 332      FD59
 333 021c DCF138F9 		.ascii	"\334\3618\371\253\307\304Y\3211\015o'<\352\360x\251"
 333      ABC7C459 
 333      D1310D6F 
 333      273CEAF0 
 333      78A9
 334 022e F2389BF0 		.ascii	"\3628\233\360\350^\314Ak\302\301\270\241\340\036\252"
 334      E85ECC41 
 334      6BC2C1B8 
 334      A1E01EAA 
 335 023e 98D31B9E 		.ascii	"\230\323\033\236J\370\362\322\002\361\334z\360\250\302"
 335      4AF8F2D2 
 335      02F1DC7A 
 335      F0A8C2
 336 024d A5DA22B6 		.ascii	"\245\332\"\266\375\227\251\230c\312\353\3104\340\370"
 336      FD97A998 
 336      63CAEBC8 
 336      34E0F8
 337 025c 6A65AA36 		.ascii	"je\2526\276\376\247\251\366\326\370C]\261g\343\235\204"
 337      BEFEA7A9 
 337      F6D6F843 
 337      5DB167E3 
 337      9D84
 338 026e 2913DE2C 		.ascii	")\023\336,Q\246\206\247\232\346L%/f\252=a\252\337Tp"
 338      51A686A7 
 338      9AE64C25 
 338      2F66AA3D 
 338      61AADF54 
 339 0283 1F55FC34 		.ascii	"\037U\3744\365j\245\312\372i\201x\272\354I\313\257\332"
 339      F56AA5CA 
 339      FA698178 
 339      BAEC49CB 
 339      AFDA
 340 0295 328CCF9B 		.ascii	"2\214\317\233\312\370\233\251\035\277\231\272\353\230"
 340      CAF89BA9 
 340      1DBF99BA 
 340      EB98
 341 02a3 F23B325D 		.ascii	"\362;2]P\343\245\243\034\261Z\007|\262\026\3768\310"
 341      50E3A5A3 
 341      1CB15A07 
 341      7CB216FE 
 341      38C8
 342 02b5 1E9B0E3C 		.ascii	"\036\233\016<`\007\035dZ\253\037\211}K\226m\275\010"
 342      60071D64 
 342      5AAB1F89 
 342      7D4B966D 
 342      BD08
 343 02c7 780F0351 		.ascii	"x\017\003Q\236\344\360\270\347\356D\304\352\035`\377"
 343      9EE4F0B8 
 343      E7EE44C4 
 343      EA1D60FF 
ARM GAS  C:\Users\Daniela\AppData\Local\Temp\ccm3GHIA.s 			page 27


 344 02d7 24A27F13 		.ascii	"$\242\177\023\264\210\210\256\200,\374\204\345\326\263"
 344      B48888AE 
 344      802CFC84 
 344      E5D6B3
 345 02e6 5D0E5A8E 		.ascii	"]\016Z\216Q\2721\304B\335\326l\015\026\004Cy\305\301"
 345      51BA31C4 
 345      42DDD66C 
 345      0D160443 
 345      79C5C1
 346 02f9 3DBB730B 		.ascii	"=\273s\013KB\371\301\235\333r\0137o\334\271\371\310"
 346      4B42F9C1 
 346      9DDB720B 
 346      376FDCB9 
 346      F9C8
 347 030b 96037987 		.ascii	"\226\003y\207\366m\310\007mo(x\320\267\277\2408\030"
 347      F66DC807 
 347      6D6F2878 
 347      D0B7BFA0 
 347      3818
 348 031d 0A951415 		.ascii	"\012\225\024\025\347\026\023\370\007B9\234s"
 348      E71613F8 
 348      0742399C 
 348      73
 349              		.text
 350              		.section	.gnu.lto_CySysSFlashWriteUserRow.585646c9,"",%progbits
 351 0000 789C7D57 		.ascii	"x\234}W{P\224\327\025\377\316w\367\275\313\356\002\313"
 351      7B5094D7 
 351      15FFCE77 
 351      F7BDCBEE 
 351      02CB
 352 0012 9B1A9209 		.ascii	"\233\032\222\011\203\031\237\250\343dL\314\003\232\266"
 352      83199FA8 
 352      E3644CCC 
 352      039AB6
 353 0021 FF24CD84 		.ascii	"\377$\315\204N\323\3518\323\241\226N\037F-\301\261\375"
 353      4ED3E938 
 353      D3A1964E 
 353      1F462DC1 
 353      B1FD
 354 0033 A3F2E1B2 		.ascii	"\243\362\341\262\212\311\244bS\221W\007\215#\306\372"
 354      8AC9A462 
 354      53915707 
 354      8D23C6FA 
 355 0043 407C8010 		.ascii	"@|\200\020\015\013A%I\011b\214O\010\210B\250\241\024"
 355      0D0B4125 
 355      4909628C 
 355      4F088842 
 355      A8A114
 356 0056 0C820664 		.ascii	"\014\202\006d{\316\275\337\276>\235\335\031\316~\337"
 356      7BCEBDDF 
 356      BE3E9DDD 
 356      19CE7EDF 
 357 0066 B9E7FCCE 		.ascii	"\271\347\374\316\271\347\236\337=\213N\002\211>\207"
 357      B9E79EDF 
 357      3D8B4E02 
 357      893E87
 358 0075 1C92F407 		.ascii	"\034\222\364\007\374~\023_!U\002\271\364\013I*2\311"
ARM GAS  C:\Users\Daniela\AppData\Local\Temp\ccm3GHIA.s 			page 28


 358      FC7E135F 
 358      215502B9 
 358      F40B492A 
 358      32C9
 359 0087 322BC990 		.ascii	"2+\311\220\024K2I\033\223u'\332$z\355\261\342\253N6"
 359      144B3249 
 359      1B937527 
 359      DA247AED 
 359      B1E2AB4E 
 360 009c F0453D5F 		.ascii	"\360E=_\324\203A\370\030d\343X\034\252M\273\237E\265"
 360      D48341F8 
 360      1864E358 
 360      1CAA4DBB 
 360      9F45B5
 361 00af 112C426D 		.ascii	"\021,Bm\222\315\244\260Xh\321f\366\253-\262\265y\016"
 361      92CDA4B0 
 361      5868D166 
 361      F6AB2DB2 
 361      B5790E
 362 00c2 AA532E2F 		.ascii	"\252S./B\265U\266q\310h\016i\223\2438\222\235#E\201"
 362      42B555B6 
 362      71C8680E 
 362      6993A338 
 362      929D2345 
 363 00d7 53B8D865 		.ascii	"S\270\330e\007Grr$\207_\355\204h\361\020-\307p\220\004"
 363      07477272 
 363      24875FED 
 363      8468F110 
 363      2DC77090 
 364 00ec 0E1223C7 		.ascii	"\016\022#\307r\020\027\007\211\205xa\344\222\3438H<"
 364      72101707 
 364      89857861 
 364      E492E338 
 364      483C
 365 00fe 0789F3AB 		.ascii	"\007\211\363\253\343!A<$\310\211<\257$\236W\"$\011u"
 365      E321413C 
 365      24C8893C 
 365      AF249E57 
 365      22240975 
 366 0112 12A48887 		.ascii	"\022\244\210\207d\377C\012\000=(&\220\012e\246\323\033"
 366      64FF430A 
 366      003D2826 
 366      900A65A6 
 366      D31B
 367 0124 8C26B3C5 		.ascii	"\214&\263\305j\213\262;\234\3211\261\256\270\370\204"
 367      6A8BB23B 
 367      9CD131B1 
 367      AEB8F884 
 368 0134 C4A4E414 		.ascii	"\304\244\344\024(\204{\362C\031\272\213\217V\263\011"
 368      28847BF2 
 368      4319BA8B 
 368      8F56B309 
 369 0144 D9C324D0 		.ascii	"\331\303$\320\341\353xg\345-;\275\002\244\341k\225r"
 369      E1EB7867 
 369      E52D3BBD 
 369      02A4E16B 
 369      9572
ARM GAS  C:\Users\Daniela\AppData\Local\Temp\ccm3GHIA.s 			page 29


 370 0156 719BF199 		.ascii	"q\233\361\231\375\212\262Y\351?;\231\275\303\355\371"
 370      FD8AB259 
 370      E93F3B99 
 370      BDC3EDF9 
 371 0166 8987C992 		.ascii	"\211\207\311\222O\226\340CH\205\375x2x<\007\340\031"
 371      4F96E043 
 371      4885FD78 
 371      32783C07 
 371      E019
 372 0178 B4DD5553 		.ascii	"\264\335US;heO\203\204\317\307\266\357\356\204\214}"
 372      3B68654F 
 372      8384CFC7 
 372      B6EFEE84 
 372      8C7D
 373 018a E4A7D4E4 		.ascii	"\344\247\324\344)ft\202\177\001\013\365#\0348\010\031"
 373      29667482 
 373      7F010BF5 
 373      231C3808 
 373      19
 374 019b 68FDD9F4 		.ascii	"h\375\331\364\375Z\013\233\307=\225\2775O\353U\317)"
 374      FD5A0B9B 
 374      C73D95BF 
 374      354FEB55 
 374      CF29
 375 01ad EEC9E090 		.ascii	"\356\311\340\220\326\023\223=\014\031d\376\376\335\336"
 375      D613933D 
 375      0C1964FE 
 375      FEDDDE
 376 01bc 5306B694 		.ascii	"S\006\266\224\273^?RZlI\337K\256\336\226\032\373.\305"
 376      BB5E3F52 
 376      5A6C49DF 
 376      4BAEDE96 
 376      1AFB2EC5 
 377 01d0 5B94E661 		.ascii	"[\224\346a:8\"\334\227\246\302\342T\336[h{\250\363|"
 377      3A3822DC 
 377      97A6C2E2 
 377      54DE5B68 
 377      7BA8F37C 
 378 01e4 8FBAED12 		.ascii	"\217\272\355\022\240\367\017{\207\214b\337^\023\276"
 378      A0F70F7B 
 378      878C62DF 
 378      5E13BE
 379 01f3 3F9C2A75 		.ascii	"?\234*u\353X\026\307\275?8x\317\214\270\355E\212\367"
 379      EB5816C7 
 379      BD3F3878 
 379      CF8CB8ED 
 379      458AF7
 380 0206 4C5F3CCA 		.ascii	"L_<\312b\304\325\3031\201[\217i\035\205\000r\307\300"
 380      62C4D5C3 
 380      31815B8F 
 380      691D8500 
 380      72C7C0
 381 0219 AE5699BD 		.ascii	"\256V\231\275\312=\033\252w\217\353\321\263\330\255"
 381      CA3D1BAA 
 381      778FEBD1 
 381      B3D8AD
 382 0228 789BFB6C 		.ascii	"x\233\373lJi\221\311\303\014p\"|?\252c\371\256\255\007"
ARM GAS  C:\Users\Daniela\AppData\Local\Temp\ccm3GHIA.s 			page 30


 382      4A6991C9 
 382      C30C7022 
 382      7C3FAA63 
 382      F9AEAD07 
 383 023c EC6C1577 		.ascii	"\354l\025w\254\256\370\362\244\337\361T\320\261\341"
 383      ACAEF8F2 
 383      A4DFF154 
 383      D0B1E1
 384 024b B18E03F5 		.ascii	"\261\216\003\365\263;\243\014\305\012~\322\240\021\322"
 384      B33BA30C 
 384      C50A7ED2 
 384      A011D2
 385 025a E124FE1D 		.ascii	"\341$\376\035\307\277:H\247\243\302\023:\005\006\344"
 385      C7BF3A48 
 385      A7A3C213 
 385      3A0506E4 
 386 026a 915EBB8A 		.ascii	"\221^\273\212\316=]\335\203:\265h\335w\326\357p+\035"
 386      CE3D5DDD 
 386      833AB568 
 386      DD77D6EF 
 386      702B1D
 387 027d 8ACEC38C 		.ascii	"\212\316\303\214\217\213\005M\220^\367\206W\361\371"
 387      8F8B054D 
 387      905EF786 
 387      57F1F9
 388 028c 30ADC627 		.ascii	"0\255\306'Z\233W\277\002x\032&\231\004#a\005:R\033\320"
 388      5A9B57BF 
 388      02781A26 
 388      99042361 
 388      053A521B 
 389 02a1 F1384911 		.ascii	"\3618I\021K\302E\"\216D<\211\004\022\211$\222H$\223"
 389      4BC24522 
 389      8E443C89 
 389      04128924 
 389      92482493 
 390 02b5 A05335CD 		.ascii	"\240S5\315\221(\2514z|\212D:\211\271$\346\221\230Ob"
 390      9128A934 
 390      7A7C8A44 
 390      3A89B924 
 390      E691984F 
 391 02ca 01898524 		.ascii	"\001\211\205$\026\221XL\"\223\304\022\022\313H,'\261"
 391      1691584C 
 391      2293C412 
 391      12CB482C 
 391      27B1
 392 02dc 821AEC39 		.ascii	"\202\032\3549zz\236\304J\022/\360\035\274H\217/\221"
 392      7A7A9EC4 
 392      4A122FF0 
 392      1DBC488F 
 392      2F91
 393 02ee 78994416 		.ascii	"x\231D\026Wfs)IcX.b\317\270,\3237\033\202\266\211\243"
 393      57667329 
 393      4963582E 
 393      62CFB82C 
 393      D3371B82 
 394 0305 A357F4BC 		.ascii	"\243W\364\274\202\215\274be\236\266.\336*XRh\306\322"
 394      828DBC62 
ARM GAS  C:\Users\Daniela\AppData\Local\Temp\ccm3GHIA.s 			page 31


 394      659EB62E 
 394      DE2A5852 
 394      68C6D2
 395 0318 90CD8551 		.ascii	"\220\315\205Q#7\241\342\222\356&\024w\271\017\266$\222"
 395      2337A1E2 
 395      92EE2614 
 395      77B90FB6 
 395      2492
 396 032a D2CDACE8 		.ascii	"\322\315\254\350\266\255\272\342 w\223\201\301GjE\307"
 396      B6ADBAE2 
 396      20779381 
 396      C1476A45 
 396      C7
 397 033b 65269564 		.ascii	"e&\225d0\264\276\341\376^\026\306\266\320\030\014c\234"
 397      30B4BEE1 
 397      FE5E16C6 
 397      B6D0180C 
 397      639C
 398 034d 0E18EBA4 		.ascii	"\016\030\353\244\312'\311\370\252\273\245\345[\026\304"
 398      CA27C9F8 
 398      AABBA5E5 
 398      5B16C4
 399 035c 2EFDEAF3 		.ascii	".\375\352\363\367tdn\002\037\2033\252\375\230\254\227"
 399      F774646E 
 399      021F8333 
 399      AAFD98AC 
 399      97
 400 036d 3A9D6C5C 		.ascii	":\235l\\6\220\033fY6>\271\225\247\211.u#M\017\242\310"
 400      36901B66 
 400      59363EB9 
 400      95A7892E 
 400      75234D0F 
 401 0383 C5CC1BCE 		.ascii	"\305\314\033\316\323<<l\317\254S\212\213\024\345M\332"
 401      D33C3C6C 
 401      CFAC538A 
 401      8B14E54D 
 401      DA
 402 0394 1A75C8C7 		.ascii	"\032u\310\307\002\010Z \323\215\211\320>\307f\002\010"
 402      02085A20 
 402      D38D89D0 
 402      3EC76602 
 402      08
 403 03a5 27DACF6F 		.ascii	"'\332\317o1\011\004b\320\354\344`\226\026\300\253\002"
 403      31090462 
 403      D0ECE460 
 403      9616C0AB 
 403      02
 404 03b6 B442265A 		.ascii	"\264B&ZLw\014\2658D\341|\022\264\341\3320l\361N\365"
 404      4C770CB5 
 404      3844E17C 
 404      12B4E1DA 
 404      306CF14E 
 405 03cb D9089092 		.ascii	"\331\010\220\222hj\032\271a,|\250\224(\212\323\303,"
 405      686A1AB9 
 405      612C7CA8 
 405      94288AD3 
 405      C32C
ARM GAS  C:\Users\Daniela\AppData\Local\Temp\ccm3GHIA.s 			page 32


 406 03dd 3E99EEFE 		.ascii	">\231\356\376O\240\220\326\316\372\246\274\016\021\215"
 406      4FA090D6 
 406      CEFAA6BC 
 406      0E118D
 407 03ec AEAD3B3D 		.ascii	"\256\255;=\037g\253\321\216\203?\\\273\010\207\313]"
 407      1F67ABD1 
 407      8E833F5C 
 407      BB0887CB 
 407      5D
 408 03fd 7DDE7D56 		.ascii	"}\336}VD\242\317_=\314\012g!\223G\201sP(J\3340\364\351"
 408      44A2CF5F 
 408      3DCC0A67 
 408      21934781 
 408      7350284A 
 409 0415 398B0054 		.ascii	"9\213\000T\000\316C\252\207\331p\213\233\357n\035\362"
 409      00CE43AA 
 409      87D9708B 
 409      9BEF6E1D 
 409      F2
 410 0426 5582A8AD 		.ascii	"U\202\250\255SS\231\357@S\032\\\377G\355@e\224\032\352"
 410      535399EF 
 410      40531A5C 
 410      FF47ED40 
 410      65941AEA 
 411 043a 0C50AC0E 		.ascii	"\014P\254\016\310\304\274?\305\274\251\3467\323\325"
 411      C8C4BC3F 
 411      C5BCA9E6 
 411      37D3D5
 412 0449 7A05CE34 		.ascii	"z\005\3164\212W|\333\325\372i\233x-Q\274\012]\276\037"
 412      8A577CDB 
 412      D5FA699B 
 412      782D51BC 
 412      0A5DBE1F 
 413 045d 7CB4BD2A 		.ascii	"|\264\275*\252\006\376YD\261\226bs\332\341s\244\337"
 413      AA06FE59 
 413      44B19662 
 413      73DAE173 
 413      A4DF
 414 046f 67140BFE 		.ascii	"g\024\013\376\0155\200\031\211S\230m4\253\250\375\347"
 414      0D358019 
 414      8953986D 
 414      34ABA8FD 
 414      E7
 415 0480 8E8C1804 		.ascii	"\216\214\030\004L\261\0123=\325s\332\032\016\323\031"
 415      4CB10A33 
 415      3DD573DA 
 415      1A0ED319 
 416 0490 80F90261 		.ascii	"\200\371\002a\320f\373\241}#Lt\014]\034&\350\302\325"
 416      D066FBA1 
 416      7D234C74 
 416      0C5D1C26 
 416      E8C2D5
 417 04a3 6F40F964 		.ascii	"o@\371d\346\011^'\374\344Q\250\357\337\231\365\375B"
 417      E6095E27 
 417      FCE451A8 
 417      EFDF99F5 
 417      FD42
ARM GAS  C:\Users\Daniela\AppData\Local\Temp\ccm3GHIA.s 			page 33


 418 04b5 1423362C 		.ascii	"\024#6,C\010\317\356\002\302\242\275{\306 \214]\302"
 418      4308CFEE 
 418      02C2A2BD 
 418      7BC6208C 
 418      5DC2
 419 04c7 BE7DC783 		.ascii	"\276}\307\203?\211(T\036\007t\013j\\W{\327\305\025\370"
 419      3F892854 
 419      1E07740B 
 419      6A5C577B 
 419      D7C515F8 
 420 04db B9CB5BA8 		.ascii	"\271\313[\250\277u\344\244\332\306\015un\023\\\204T"
 420      BF75E4A4 
 420      DAC60D75 
 420      6E135C84 
 420      54
 421 04ec DDCCC3C3 		.ascii	"\335\314\303\303\016\\\372\272\254\342\317\376\025\006"
 421      0E5CFABA 
 421      ACE2CFFE 
 421      1506
 422 04fa 5F42AA9E 		.ascii	"_B\252\236\370`\224j\315,<\313\270HY^\322d\031/\354"
 422      F860946A 
 422      CD2C3CCB 
 422      B848595E 
 422      D264192F 
 423 050f EB3CB70F 		.ascii	"\353<\267\017\230T\372\000|\305S\032\227M\322D\002\007"
 423      9854FA00 
 423      7CC5531A 
 423      974DD244 
 423      0207
 424 0521 B708E384 		.ascii	"\267\010\343\204H\310\2275\310\211h\357\337\355\015"
 424      48C89735 
 424      C88968EF 
 424      DFED0D
 425 0530 75B78908 		.ascii	"u\267\211\010\260\377D\313\254)X\021\013\\\011\220\333"
 425      B0FF44CB 
 425      AC295811 
 425      0B5C0990 
 425      DB
 426 0541 2C554587 		.ascii	",UE\207\306K\212\024\357\252&^2\332\0072\267\370\371"
 426      C64B8A14 
 426      EFAA265E 
 426      32DA0732 
 426      B7F8F9
 427 0554 BE27CE7F 		.ascii	"\276'\316\177o\271q\332\362\033\240\275\374\227\302"
 427      6FB971DA 
 427      F21BA0BD 
 427      FC97C2
 428 0563 2395D4FC 		.ascii	"#\225\324\3740\334kUM\350\265\200\277\036\340\232\377"
 428      30DC6B55 
 428      4DE8B580 
 428      BF1EE09A 
 428      FF
 429 0574 70642C95 		.ascii	"pd,\225q\306W\017\2442I\030\316Lq\254\322\003\033\033"
 429      71C6570F 
 429      A4324918 
 429      CE4C71AC 
 429      D2031B1B 
ARM GAS  C:\Users\Daniela\AppData\Local\Temp\ccm3GHIA.s 			page 34


 430 0588 06B7F7F8 		.ascii	"\006\267\367\370@\277\272\3079\217\320\330\341\303\253"
 430      40BFBAC7 
 430      398FD0D8 
 430      E1C3AB
 431 0597 5482EB48 		.ascii	"T\202\353H\007\017\266\357\000\360k\216.z\264\226\310"
 431      070FB6EF 
 431      00F06B8E 
 431      2E7AB496 
 431      C8
 432 05a8 BB71604C 		.ascii	"\273q`L\365N{\304;\332\2077\244\0047\270w\014\337\302"
 432      F54E7BC4 
 432      3BDA8737 
 432      A40437B8 
 432      770CDFC2 
 433 05bc 9E39FE9B 		.ascii	"\2369\376\233\026\035\270\246\276\253|\223\000x\212"
 433      161DB8A6 
 433      BEAB7C93 
 433      00788A
 434 05cb D4625301 		.ascii	"\324bS\001\315\265@\205m\322i\003\033\200\3158\350\306"
 434      CDB54085 
 434      6DD26903 
 434      1B80CD38 
 434      E8C6
 435 05dd 207C702A 		.ascii	" |p*{\317\266\002\343\203\322\207\327\254v\252\322l"
 435      7BCFB602 
 435      E383D287 
 435      D7AC76AA 
 435      D26C
 436 05ef 801EE205 		.ascii	"\200\036\342\005\364b\354\246\360A`\304Z}\255\016\202"
 436      F462ECA6 
 436      F04160C4 
 436      5A7DAD0E 
 436      82
 437 0600 B1F6AA4D 		.ascii	"\261\366\252Md\243\241\2633\374\370\372\004\013\367"
 437      64A3A1B3 
 437      33FCF8FA 
 437      040BF7
 438 060f 54EC6FB3 		.ascii	"T\354o\263\252m\335\315\240_\305(=\227\242B\204R\331"
 438      AA6DDDCD 
 438      A05FC528 
 438      3D97A242 
 438      8452D9
 439 0622 194EE49B 		.ascii	"\031N\344\233\002bb\324\363\236^@\354\344D\036P\211"
 439      026262D4 
 439      F39E5E40 
 439      ECE4441E 
 439      5089
 440 0634 5C353A97 		.ascii	"\\5:\227@B\230<y\312m!\225\233=\0279\273[\301\346\342"
 440      4042983C 
 440      79CA6D21 
 440      959B3D17 
 440      39BB5BC1 
 441 064a E6CFA347 		.ascii	"\346\317\243G\010u\205\316O]\254k\024\036\243\332\271"
 441      087585CE 
 441      4F5DAC6B 
 441      141EA3DA 
 441      B9
ARM GAS  C:\Users\Daniela\AppData\Local\Temp\ccm3GHIA.s 			page 35


 442 065b 7C6D6564 		.ascii	"|med\370\333\032\370\027\320#\320\273v\351\222.\024"
 442      F8DB1AF8 
 442      17D023D0 
 442      BB76E992 
 442      2E14
 443 066d EBC5C858 		.ascii	"\353\305\310X\203\032\254\227\320#\204wB\027B2\207t"
 443      831AAC97 
 443      D0238477 
 443      42174232 
 443      8774
 444 067f 9885C2BF 		.ascii	"\230\205\302\277\034\031~H\003\237\205\036\201T\235"
 444      1C197E48 
 444      039F851E 
 444      81549D
 445 068e 6A3B292B 		.ascii	"j;)+\375M\341f\331\022\357/\225\017\3427\005\206\273"
 445      FD4DE166 
 445      D912EF2F 
 445      950FE237 
 445      0586BB
 446 06a1 F8CE2516 		.ascii	"\370\316%\026\244b6q*\0337\03652\276\305E\015jGNe9\010"
 446      A4623671 
 446      2A1B371E 
 446      3532BEC5 
 446      450D6A47 
 447 06b9 349A38C5 		.ascii	"4\2328\305\233\372ry\276h\341\364 S7\3715\301\246\216"
 447      9BFA7279 
 447      BE68E1F4 
 447      205337F9 
 447      35C1A68E 
 448 06cd A12C78E7 		.ascii	"\241,x\347])\377;\250S!thm\324\216\363o\3704n\275]\333"
 448      5D29FF3B 
 448      A8532174 
 448      686DD48E 
 448      F36FF834 
 449 06e5 2CABBD77 		.ascii	",\253\275w\205\301\260\350\275\312\372\236\362R?J\310"
 449      85C1B0E8 
 449      BDCAFA9E 
 449      F2523F4A 
 449      C8
 450 06f6 48DFA81D 		.ascii	"H\337\250\035\351\377\241\337\004V10/\277\2737A$6W\023"
 450      E9FFA1DF 
 450      04563130 
 450      2FBFBB37 
 450      41243657 
 451 070b FB7D43E4 		.ascii	"\373}C\344\201\331\313\007\346\035>0\277\365\017\314"
 451      81D9CB07 
 451      E61D3E30 
 451      BFF50FCC 
 452 071b 056AF8B0 		.ascii	"\005j\370\260q\230\243\031\207#|\034\316\025\234\353"
 452      7198A319 
 452      87237C1C 
 452      CE159CEB 
 453 072b 2D6FF0E7 		.ascii	"-o\360\347\0346\374r4\303\357\277\2023\325\023=\327"
 453      1C36FC72 
 453      34C3EFBF 
 453      8233D513 
 453      3DD7
ARM GAS  C:\Users\Daniela\AppData\Local\Temp\ccm3GHIA.s 			page 36


 454 073d 406CBD9C 		.ascii	"@l\275\234sfT\345\314\375_k\206\337\350\273n\207\330"
 454      736654E5 
 454      CCFD5F6B 
 454      86DFE8BB 
 454      6E87D8
 455 0750 D9BC48B7 		.ascii	"\331\274H\267\361\3774\267\361|\264\327\316\272\371"
 455      F1FF34B7 
 455      F17CB4D7 
 455      CEBAF9
 456 075f 2184890D 		.ascii	"!\204\211\015\022\206\257-\210\004>\246\001_\210\366"
 456      1286AF2D 
 456      88043EA6 
 456      015F88F6 
 457 076f 811E7405 		.ascii	"\201\036t\005\351\302\027\027EB\032\327 -F{\355\220"
 457      E9C21717 
 457      45421AD7 
 457      202D467B 
 457      ED90
 458 0781 5A1C4296 		.ascii	"Z\034B\226\270 Y\370Zf$\360\273\032\360%h\037H3^m\322"
 458      B82059F8 
 458      5A6624F0 
 458      BB1AF025 
 458      681F4833 
 459 0798 B23D3F08 		.ascii	"\262=?\010\322\200\021\015\030n(\266\303H\015\355B\022"
 459      D280110D 
 459      186E28B6 
 459      C3480DED 
 459      4212
 460 07aa 2C8923F3 		.ascii	",\211#\363\204\000\011n\373o\366e\217\334\354\313BH"
 460      8400096E 
 460      FB6FF665 
 460      8FDCECCB 
 460      4248
 461 07bc 90286DD1 		.ascii	"\220(m\321\363I\264\363\326\005\235X^\376\270Y\202\277"
 461      F349B4F3 
 461      D6059D58 
 461      5EFEB859 
 461      82BF
 462 07ce 1AE0     		.ascii	"\032\340"
 463 07d0 BBD059F2 		.ascii	"\273\320Y\362tp\226,\347HIb\246\025{+n\015\303\343\177"
 463      7470962C 
 463      E7484962 
 463      A6157B2B 
 463      6E0DC3E3 
 464 07e5 98C6FA64 		.ascii	"\230\306\372d\032\004\023\210\203#\314\303\\\3341Y\232"
 464      1A041388 
 464      8323CCC3 
 464      5CDC3159 
 464      9A
 465 07f6 9C2F7838 		.ascii	"\234/x8R\376\263\220\177\027Z\373\217\215[\305\257^"
 465      52FEB390 
 465      7F175AFB 
 465      8F8D5BC5 
 465      AF5E
 466 0808 1DDC53EB 		.ascii	"\035\334S\353\221\342\377\347\242\254~\264\374Y\221"
 466      91E2FFE7 
 466      A2AC7EB4 
ARM GAS  C:\Users\Daniela\AppData\Local\Temp\ccm3GHIA.s 			page 37


 466      FC5991
 467 0817 F00A4EF3 		.ascii	"\360\012N\363;\240\376\033\260B\374\204\007\262\304"
 467      3BA0FE1B 
 467      B042FC84 
 467      07B2C4
 468 0826 01FAE48F 		.ascii	"\001\372\344\217\363\326\346\345\347\026\344\375\346"
 468      F3D6E6E5 
 468      E716E4FD 
 468      E6
 469 0833 5739EB36 		.ascii	"W9\3536\344\257\316[\365z\316\272\354e\253\262\377\362"
 469      E4AFCE5B 
 469      F57ACEBA 
 469      EC65ABB2 
 469      FFF2
 470 0845 A335B96F 		.ascii	"\2435\271o\377n\341j\311\220\277n\343k\033\3362\342"
 470      FF6EE16A 
 470      C990BF6E 
 470      E36B1BDE 
 470      32E2
 471 0857 D70F730B 		.ascii	"\327\017s\013r\355\277_[\220\227\237\277a}AN\001\272"
 471      72EDBF5F 
 471      5B90979F 
 471      BF617D41 
 471      4E01BA
 472 086a 59D6E7E6 		.ascii	"Y\326\347\346\347\276\225\207\252\267\355\253\327\374"
 472      E7BE9587 
 472      AAB7EDAB 
 472      D7FC
 473 0878 317BED6F 		.ascii	"1{\355o\337\310+\370y\356\232\015y\246|\365A\377\332"
 473      DFC82BF8 
 473      79EE9A0D 
 473      79A67CF5 
 473      41FFDA
 474 088b 4F5FB748 		.ascii	"O_\267H\377\007\372\207e\013"
 474      FF07FA87 
 474      650B
 475              		.text
 476              		.section	.gnu.lto_.symbol_nodes.585646c9,"",%progbits
 477 0000 789C5D8E 		.ascii	"x\234]\216\273\012\302@\020E\357\316\335\335\304Gee"
 477      BB0AC240 
 477      1045EFCE 
 477      DDDDC447 
 477      6565
 478 0012 A796827E 		.ascii	"\247\226\202~\343lae\243\277\240\344'\264\012A,D\264"
 478      E36C6165 
 478      A3BFA0E4 
 478      27B40A41 
 478      2C44B4
 479 0025 F1032CC4 		.ascii	"\361\003,\304\004\261\265\025\227\200`\254.\347\014"
 479      04B1B515 
 479      978060AC 
 479      2EE70C
 480 0034 07C6C2A0 		.ascii	"\007\306\302\240m\000\210W`y\002\342l\302*\020p\202"
 480      6D008857 
 480      607902E2 
 480      6CC22A10 
 480      7082
ARM GAS  C:\Users\Daniela\AppData\Local\Temp\ccm3GHIA.s 			page 38


 481 0046 D00328A9 		.ascii	"\320\003(\251\232\277\223P\345\253\266a\024\205U6\205"
 481      9ABF9350 
 481      E5ABB661 
 481      14855536 
 481      85
 482 0057 53DB10A6 		.ascii	"S\333\020\246\243\256\026@\010\303\310m\365\015ni\322"
 482      A3AE1640 
 482      08C3C86D 
 482      F50D6E69 
 482      D2
 483 0068 E0AEA6BF 		.ascii	"\340\256\246\277L\246\310^S2\301lq\024\306/\212z\005"
 483      4CA6C85E 
 483      5332C16C 
 483      7114C62F 
 483      8A7A05
 484 007b EBB2F2A4 		.ascii	"\353\262\362\244\307\355\221\217i\023d\327\267\241m"
 484      C7ED918F 
 484      691364D7 
 484      B7A16D
 485 008a 213B5C84 		.ascii	"!;\\\204\326c7\177\016\350b\276\177z\272\330\237\357"
 485      D663377F 
 485      0EE862BE 
 485      7F7ABAD8 
 485      9FEF
 486 009c 4217FB7A 		.ascii	"B\027\373z\005\305=\357\323y\314\312j\202\017\271\316"
 486      05C53DEF 
 486      D379CCCA 
 486      6A820FB9 
 486      CE
 487 00ad 4070     		.ascii	"@p"
 488              		.text
 489              		.section	.gnu.lto_.refs.585646c9,"",%progbits
 490 0000 789C6361 		.ascii	"x\234ca`d\340f`\000\222L\214\314\214L@\202\001\000\001"
 490      6064E066 
 490      6000924C 
 490      8CCC8C4C 
 490      40820100 
 491 0015 700021   		.ascii	"p\000!"
 492              		.text
 493              		.section	.gnu.lto_.decls.585646c9,"",%progbits
 494 0000 789CAD57 		.ascii	"x\234\255WkP\024W\026\356\333=\0140\014`\341\2636\324"
 494      6B501457 
 494      16EEDB3D 
 494      0C300C60 
 494      E1B336D4 
 495 0014 2E5A5ABA 		.ascii	".ZZ\272?Bb4\251T\252\266j\223\251\230l\305d\\'\232\244"
 495      3F426234 
 495      A954AAB6 
 495      6A93A998 
 495      6CC5645C 
 496 002b 6A6AA9B1 		.ascii	"jj\251\261mqJ\230ag\206J\330\255\255m\005\214\240\304"
 496      6D714A98 
 496      6167864A 
 496      D8ADAD6D 
 496      058CA0C4 
 497 003f 417C8006 		.ascii	"A|\200\006AD\005\035\204\010\202\362\220\361\201\"\021"
 497      4144051D 
ARM GAS  C:\Users\Daniela\AppData\Local\Temp\ccm3GHIA.s 			page 39


 497      840882F2 
 497      90F18122 
 497      11
 498 0050 157C4144 		.ascii	"\025|ADa\005E\024\237\020_@\330s\357\355\236\236Qg\263"
 498      61054514 
 498      9F105F40 
 498      D873EFED 
 498      9E9E5167 
 499 0065 56A58B33 		.ascii	"V\245\2133\335\367\364w\316\371\316=\247\357\275\250"
 499      DDF7F477 
 499      CEF9CE3D 
 499      A7EFBDA8 
 500 0075 18C4E0EB 		.ascii	"\030\304\340\353v\030\303\364\263\014s\000d\024.5\350"
 500      7618C3F4 
 500      B30C7300 
 500      64142E35 
 500      E8
 501 0086 1682E0BB 		.ascii	"\026\202\340\273\036$\022\244\024\244\004\244\022d:"
 501      1E2412A4 
 501      14A404A4 
 501      12643A
 502 0095 43AF6090 		.ascii	"C\257`\220:\220z\220c \215 M \247AZ@zA\372@p\224a\306"
 502      3A907A90 
 502      63208D20 
 502      4D20A741 
 502      5A407A41 
 503 00af F7C276E1 		.ascii	"\367\302v\341 \021 \343@\2521\016Q\337z)\036\013\343"
 503      201120E3 
 503      40AA310E 
 503      51DF7A29 
 503      1E0BE3
 504 00c2 21B80F4A 		.ascii	"!\270\017J\2619\030\253@\202@\324\210\372},\371\257"
 504      B13918AB 
 504      408240D4 
 504      88FA7D2C 
 504      F9AF
 505 00d4 F313A7FE 		.ascii	"\363\023\247\3767\216S\357'\016\316\177\274W\034y\256"
 505      378E53EF 
 505      270ECE7F 
 505      BC571C79 
 505      AE
 506 00e5 2A40C210 		.ascii	"*@\302\020\215S-\315]8\242\261q\214\361^q&\200\234\005"
 506      8D532DCD 
 506      5D38A2B1 
 506      718CF15E 
 506      7126809C 
 507 00fa FD44B8D7 		.ascii	"\375D\270\327\302}\022\334\233%\377\201R\214^inq\276"
 507      C27D12DC 
 507      9B25FF81 
 507      528C5E69 
 507      6E71BE
 508 010d BF4394CF 		.ascii	"\277C\224\317i\346\305\013\327\"\224\241u\364\346T!"
 508      69E6C50B 
 508      D72294A1 
 508      75F4E654 
 508      21
 509 011e 719063C9 		.ascii	"q\220c\311\261q,\\g9\236J\362\201c\365\371\211\321\364"
ARM GAS  C:\Users\Daniela\AppData\Local\Temp\ccm3GHIA.s 			page 40


 509      B1712C5C 
 509      67399E4A 
 509      F28163F5 
 509      F989D1F4 
 510 0132 0A39EBA5 		.ascii	"\0129\353\245\274_5\347\246W\310y\204EW\032\213\367"
 510      BC5F35E7 
 510      A657C879 
 510      8445571A 
 510      8BF7
 511 0144 70832C9A 		.ascii	"p\203,\232\256A\270\223\303AU\332\177\360i(UaD\347\323"
 511      AE41B893 
 511      C34155DA 
 511      7FF06928 
 511      556144E7 
 512 0159 A239D12E 		.ascii	"\2429\321.\021.\247(\262\254b\332\324y\375a0\027B@-"
 512      112EA728 
 512      B2AC62DA 
 512      D479FD61 
 512      30174240 
 513 016e 2965DF63 		.ascii	")e\337c7\021\032\244\202\341\203\346\315\335a0\034\247"
 513      37111AA4 
 513      82E183E6 
 513      CDDD6130 
 513      1CA7
 514 0180 4151232C 		.ascii	"AQ#,[\271=o \000if\254\022\305\025\2423Y\214h\014c\220"
 514      5BB93D6F 
 514      20006966 
 514      AC12C515 
 514      A233598C 
 515 0198 0B45A23D 		.ascii	"\013E\242=(\222A{\321\014\034\253\030E3\250\010\224"
 515      2892417B 
 515      D10C1CAB 
 515      184533A8 
 515      0894
 516 01aa BB40B913 		.ascii	"\273@\271\023\307\353\272P\366\247\203\2428\006\225"
 516      C7EBBA50 
 516      F6A783A2 
 516      380695
 517 01b9 200DDA8D 		.ascii	" \015\332\2158\002\201n\232\256\241\004\252]\245\331"
 517      3802816E 
 517      9AAEA104 
 517      AA5DA5D9 
 518 01c9 9C069C26 		.ascii	"\234\006\234&\377\177NQ)\322\340\374R{\212\203\200\\"
 518      FF7F4E51 
 518      29D2E0FC 
 518      527B8A83 
 518      805C
 519 01db 24A48CBC 		.ascii	"$\244\214\274\362\215\244\371\346dv\377\022\302\315"
 519      F28DA4F9 
 519      E66476FF 
 519      12C2CD
 520 01ea C6CFECB9 		.ascii	"\306\317\354\271\356=}*4CC\350\270\317\377^dQ\005p\331"
 520      EE3D7D2A 
 520      344343E8 
 520      B8CFFF5E 
 520      64510570 
 521 01ff A77089C4 		.ascii	"\247p\211\304\\H^\367\013D\365$\006\315\212DoB\250r"
ARM GAS  C:\Users\Daniela\AppData\Local\Temp\ccm3GHIA.s 			page 41


 521      5C485EF7 
 521      0B44F524 
 521      06CD8A44 
 521      6F42A872 
 522 0213 881F29C5 		.ascii	"\210\037)\305\377\001\342\227A|p~\277xt0\\#\341\235"
 522      FF01E297 
 522      417C707E 
 522      BF787430 
 522      5C23E19D 
 523 0227 BF8EBF95 		.ascii	"\277\216\277\225\221\337\031\252MW\346\015\355\207\370"
 523      91DF19AA 
 523      4D57E60D 
 523      ED87F8
 524 0236 72960CAA 		.ascii	"r\226\014\252DZ\\\015|\007t\321\271\001Qs\031\265#\216"
 524      445A5C0D 
 524      7C0774D1 
 524      B9015173 
 524      19B5238E 
 525 024a 91562AF2 		.ascii	"\221V*\362\351\342_D\204\241B\206\360\3002\364AVy.\006"
 525      E9E25F44 
 525      84A14286 
 525      F0C032F4 
 525      4156792E 
 526 025f D137ACA4 		.ascii	"\3217\254\244e\024g\344O\262'-C.\342D\361\216$#\344"
 526      651467E4 
 526      4FB2272D 
 526      432EE244 
 526      F18E2423 
 527 0274 61405E53 		.ascii	"a@^S#\344\361Jo\254b\341\345\3579F2g9\014\303\312m\350"
 527      23E4F14A 
 527      6FAC62E1 
 527      E5EF3946 
 527      3267390C 
 528 028c 3E9A57A4 		.ascii	">\232W\244\342\336#\265\273P\231\332\037\302\315#\265"
 528      E2DE23B5 
 528      BB5099DA 
 528      1FC2CD23 
 528      B5
 529 029d 2BD9B6A6 		.ascii	"+\331\266\246T\355\267\351j\3745\235\273\275\367\313"
 529      54EDB7E9 
 529      6AFC359D 
 529      BBBDF7CB 
 530 02ad 645144A8 		.ascii	"dQD\250\032&\372\340\213M\267i\364av\330\244\215\344"
 530      1A26FAE0 
 530      8B4DB769 
 530      F46176D8 
 530      A48DE4
 531 02c0 7B4816A3 		.ascii	"{H\026\243T\004\247\024\244\026M\202\337E*\012\336r"
 531      5404A714 
 531      A4164D82 
 531      DF452A0A 
 531      DE72
 532 02d2 F25A9E7A 		.ascii	"\362Z\236zJ\276\350.\023\273\006V\376+\273\265G\024"
 532      4ABEE82E 
 532      13BB0656 
 532      FE2BBBB5 
 532      4714
ARM GAS  C:\Users\Daniela\AppData\Local\Temp\ccm3GHIA.s 			page 42


 533 02e4 23541884 		.ascii	"#T\030\204\016(\256\017\340z1\250\012]\206\334\352\320"
 533      0E28AE0F 
 533      E07A31A8 
 533      0A5D86DC 
 533      EAD0
 534 02f6 1430DCB1 		.ascii	"\0240\334\261\333U\022\314\375\223$\325Sx\2768\230:"
 534      DB5512CC 
 534      FD9324D5 
 534      5378BE38 
 534      983A
 535 0308 71DFB7E4 		.ascii	"q\337\267\344\210\356\024\210\315\022'\207\024'\207"
 535      88EE1488 
 535      CD122787 
 535      142787
 536 0317 BC9DD413 		.ascii	"\274\235\324\023'\303\313\017Uk\270u\210x\331\352L\375"
 536      27C3CB0F 
 536      556BB875 
 536      8878D9EA 
 536      4CFD
 537 0329 AB8AA5AD 		.ascii	"\253\212\245\255\202\371\201*{0y\205\226\350\360\007"
 537      82F9812A 
 537      7B307985 
 537      96E8F007 
 538 0339 761811E5 		.ascii	"v\030\021\345\017\015k[B\275\363+\361\311\357(\311\357"
 538      0F0D6B5B 
 538      42BDF32B 
 538      F1C9EF28 
 538      C9EF
 539 034b 089212DC 		.ascii	"\010\222\022\334_\236\237\021\000\334\362\201\333\271"
 539      5F9E9F11 
 539      00DCF281 
 539      DBB9
 540 0359 955A0F39 		.ascii	"\225Z\0179\200!\267B\316\355M\356\030!W\277\363\374"
 540      8021B742 
 540      CEED4DEE 
 540      182157BF 
 540      F3FC
 541 036b 86606E07 		.ascii	"\206`n\007%w\347^^s\240\207\011e\367\363@\376\255 o"
 541      2577E75E 
 541      5E73A087 
 541      0965F7F3 
 541      40FEAD20 
 542 0380 220B2778 		.ascii	"\"\013'x\3618Ax\034\227y\024\247\357\270\035*\361\310"
 542      F1384178 
 542      1C977914 
 542      A7EFB81D 
 542      2AF1C8
 543 0393 DDC27978 		.ascii	"\335\302yx\000\0145(<\032\274y4\022\036\3176|[\030\302"
 543      000C3528 
 543      3C1ABC79 
 543      34121ECF 
 543      367C5B18 
 544 03a8 D5511EB9 		.ascii	"\325Q\036\271\271\307\313Y\311\315\376<\337tN*nNz\273"
 544      B9C7CB59 
 544      C9CDFE3C 
 544      DF744E2A 
 544      6E4E7ABB 
ARM GAS  C:\Users\Daniela\AppData\Local\Temp\ccm3GHIA.s 			page 43


 545 03bc 69A2E9F4 		.ascii	"i\242\351\3645\355\342\270\013\324\315\365My\267\325"
 545      35EDE2B8 
 545      0BD4CDF5 
 545      4D79B7D5 
 546 03cc 249D0A4F 		.ascii	"$\235\012O:\256\352\216~\265\337t\232I:\247\344t\272"
 546      3AAEEA8E 
 546      7EB5DF74 
 546      9A493AA7 
 546      E474BA
 547 03df B76F5913 		.ascii	"\267oY\023\002<\272`\021\254Z\033;\260OL\011\306\030"
 547      023CBA60 
 547      11AC5A1B 
 547      3BB04F4C 
 547      09C618
 548 03f2 F4A342E2 		.ascii	"\364\243B\342GB\002\036N\023\002\256\232\334\241 n5"
 548      4742021E 
 548      4E1302AE 
 548      9ADCA120 
 548      6E35
 549 0404 4B089C5D 		.ascii	"K\010\234]\335\220\034\356\035\254\302\247\210g}\232"
 549      DD901CEE 
 549      1DACC2A7 
 549      88677D9A 
 550 0414 B4A830AB 		.ascii	"\264\2500\253@M\203\2717\237\321\272\235\010\003\320"
 550      404D83B9 
 550      379FD1BA 
 550      9D0803D0 
 551 0424 1925D419 		.ascii	"\031%\324\0319T\013\011\265ewM\271\232+\240\241\232"
 551      39540B09 
 551      B565774D 
 551      B99A2BA0 
 551      A19A
 552 0436 4BFB56AB 		.ascii	"K\373V\253\271b:(\333r\243\011\327\021\235#\026X\263"
 552      B9623A28 
 552      DB72A309 
 552      D7119D23 
 552      1658B3
 553 0449 DCBD2B94 		.ascii	"\334\275+\224\333K_\027\354\330\332\032\214__\200\327"
 553      DB4B5F17 
 553      ECD8DA1A 
 553      8C5F5F80 
 553      D7
 554 045a E83C6DB8 		.ascii	"\350<m\270\275\256\2412\015\231\254\205\023|\266$\375"
 554      BDAEA132 
 554      0D99AC85 
 554      137CB624 
 554      FD
 555 046b 8B5B929E 		.ascii	"\213[\222\236.\321\205O\357Ui\271J\342\224\315\317("
 555      2ED1854F 
 555      EF5569B9 
 555      4AE294CD 
 555      CF28
 556 047d E90B90D7 		.ascii	"\351\013\220\327\350\256\241,\343@*.Y\007d\374\223\222"
 556      E8AEA12C 
 556      E3402A2E 
 556      590764FC 
 556      9392
ARM GAS  C:\Users\Daniela\AppData\Local\Temp\ccm3GHIA.s 			page 44


 557 048f 82DEB34E 		.ascii	"\202\336\263N\277\260\024\\\206\245@/-\005\355\240l"
 557      BFB0145C 
 557      86A5402F 
 557      2D05EDA0 
 557      6C
 558 04a0 A34BEFC9 		.ascii	"\243K\357\311\334\314b\332\223\330\325%J\366\247\341"
 558      DCCC62DA 
 558      93D8D525 
 558      4AF6A7E1 
 559 04b0 AC674144 		.ascii	"\254gAD\371\251\026]\241\272\364\366C\353h\265\027h"
 559      F9A9165D 
 559      A1BAF4F6 
 559      43EB68B5 
 559      1768
 560 04c2 D155AABB 		.ascii	"\321U\252\273\230\274\346Q\330\344:.O\014\"9\325\345"
 560      98BCE651 
 560      D8E43A2E 
 560      4F0C2239 
 560      D5E5
 561 04d4 F495AB08 		.ascii	"\364\225\253\010\246\013M&\232G\3272\262\002\271z\216"
 561      A60B4D26 
 561      9A47D732 
 561      B202B97A 
 561      8E
 562 04e5 24F4206F 		.ascii	"$\364 o`'v\201\256\001\343\377\340.\000\345`GNm\000"
 562      60277681 
 562      AE01E3FF 
 562      E02E00E5 
 562      60474E6D 
 563 04fa 778222F6 		.ascii	"w\202\"\366l*<Kf\266\007O]7\2152\224q\253;\304\273\314"
 563      6C2A3C4B 
 563      66B6074F 
 563      5D378D32 
 563      9471AB3B 
 564 0511 40404A0B 		.ascii	"@@J\013]\007\010\272A\012\335)\267U[}\372\303@\\i\247"
 564      5D0708BA 
 564      410ADD29 
 564      B7555B7D 
 564      FAC3405C 
 565 0527 D8557F75 		.ascii	"\330U\177ub6\264U\2328\3512\213q\250U\236,t\021\251"
 565      6236B455 
 565      9A38E932 
 565      8B71A855 
 565      9E2C7411 
 566 053c F08896BC 		.ascii	"\360\210\226\274\227\224\274\254:ce0wXE\270T\226t]\014"
 566      9794BCAC 
 566      3A636530 
 566      775845B8 
 566      5496745D 
 567 0551 97BBF38C 		.ascii	"\227\273\363\214Ww\336T\346\373\246l\337G\354\257\266"
 567      5777DE54 
 567      E6FBA66C 
 567      DF47ECAF 
 567      B6
 568 0562 6C6F67B9 		.ascii	"log\271Fj\377`8\267*\230\036\026\306\301p\244\323\351"
 568      466AFF60 
 568      38B72A98 
ARM GAS  C:\Users\Daniela\AppData\Local\Temp\ccm3GHIA.s 			page 45


 568      1E16C6C1 
 568      70A4D3E9 
 569 0576 0CA48785 		.ascii	"\014\244\207\205|\274\037\267\336?\225\033B_\217\301"
 569      7CBC1FB7 
 569      DE3F951B 
 569      425F8FC1 
 570 0586 D16E9C3C 		.ascii	"\321n\234<\256\241\257E\374\372\356\221\254\277q\355"
 570      AEA1AF45 
 570      FCFAEE91 
 570      ACBF71ED 
 571 0596 D4D3A30B 		.ascii	"\324\323\243\013\353E\216\353\241\203\203'\216\2529"
 571      EB458EEB 
 571      A1838327 
 571      8EAA39
 572 05a5 31803C1F 		.ascii	"1\200<\037yX\266KK}p0\274\367\270 -\010o\273\242\274"
 572      7958B64B 
 572      4B7D7030 
 572      BCF7B820 
 572      2D086FBB 
 573 05bb 8D46787F 		.ascii	"\215Fx\177\017\003\010\272\003\275\021\211\036\322\322"
 573      0F0308BA 
 573      03BD1189 
 573      1ED2D2
 574 05ca 0FAFCF7A 		.ascii	"\017\257\317z\302F8\2453\317\237\035dU\272\013\360;"
 574      C24638A5 
 574      33CF9F1D 
 574      6455BA0B 
 574      F03B
 575 05dc 043E8822 		.ascii	"\004>\210\"d#@\253\312\216\327\274\206\306N\235:#S2"
 575      642340AB 
 575      CA8ED7BC 
 575      86C64E9D 
 575      3A235332 
 576 05f0 10918341 		.ascii	"\020\221\203A\375\000\277\215\333\353>L\312\317h,\236"
 576      FD00BF8D 
 576      DBEB3E4C 
 576      CACF682C 
 576      9E
 577 0601 18F4045A 		.ascii	"\030\364\004Z\355\021\232\212\036\243\251dv\012pCv\325"
 577      ED119A8A 
 577      1EA3A964 
 577      760A7043 
 577      76D5
 578 0613 DDFAB2B6 		.ascii	"\335\372\262\266\015v\206uZ\022\350\236d\340i\3207p"
 578      0D768675 
 578      5A12E89E 
 578      64E069D0 
 578      3770
 579 0625 D0999114 		.ascii	"\320\231\221\024\017\037\351V\275\3504a\026\350\201"
 579      0F1FE956 
 579      BDE83461 
 579      16E881
 580 0634 0495B951 		.ascii	"\004\225\271Q\250\013\263\224v\263\316\357\306\211b"
 580      A80BB394 
 580      76B3CEEF 
 580      C68962
 581 0643 10063152 		.ascii	"\020\0061Ri\244m\263\267r\357\2350\256\214L\027[x\255"
ARM GAS  C:\Users\Daniela\AppData\Local\Temp\ccm3GHIA.s 			page 46


 581      69A46DB3 
 581      B772EF9D 
 581      30AE8C4C 
 581      175B78AD 
 582 0657 3A07CE39 		.ascii	":\007\3169c\251M\315\031\204m\206\300\361S\245\242\330"
 582      63A94DCD 
 582      19846D86 
 582      C0F153A5 
 582      A2D8
 583 0669 05C3BC3C 		.ascii	"\005\303\274<\307g\220\227\277\034!Vy\336\362\003\001"
 583      C7679097 
 583      BF1C2156 
 583      79DEF203 
 583      01
 584 067a D3B68BEE 		.ascii	"\323\266\213\356|\274\015N\273\262B\024\203\211\373"
 584      7CBC0D4E 
 584      BBB24214 
 584      8389FB
 585 0689 5BD4BDC7 		.ascii	"[\324\275\307\021\2035\360;\214\246\341\315%\367\342"
 585      118335F0 
 585      3B8CA6E1 
 585      CD25F7E2 
 586 0699 D610FF55 		.ascii	"\326\020\377U\033\221\253\366&)\332\346\232\301\246"
 586      1B91ABF6 
 586      2629DAE6 
 586      9AC1A6
 587 06a8 005AF220 		.ascii	"\000Z\362 \030V\335\335S\025J\333\306M\276\334\321\316"
 587      1856DDDD 
 587      53154ADB 
 587      C64DBEDC 
 587      D1CE
 588 06ba AD9C5453 		.ascii	"\255\234TS\267\\\323Qp\366\013q&\262\021\262K\262[\326"
 588      B75CD351 
 588      70F60B71 
 588      26B211B2 
 588      4BB25BD6 
 589 06ce 35ECD678 		.ascii	"5\354\326x\243K\375\242\321r6\002,.=\353k\010\3649\251"
 589      A34BFDA2 
 589      D1723602 
 589      2C2E3DEB 
 589      6B08F439 
 590 06e3 0D79D590 		.ascii	"\015y\325\220A+XzR\203;>;\347\334\274\350{\256\363\335"
 590      412B587A 
 590      52833B3E 
 590      3BE7DCBC 
 590      E87BAEF3 
 591 06f8 66932574 		.ascii	"f\223%t2A;\267\015\335\014\367A\227\372\240S$t\012A"
 591      32413BB7 
 591      0DDD0CF7 
 591      4197FAA0 
 591      5324740A 
 592 070d 575F15BF 		.ascii	"W_\025\277\017\340Zhe\017\036\270\355\012\243\247\240"
 592      0FE05A68 
 592      650F1EB8 
 592      ED0AA3A7 
 592      A0
 593 071e 979C92BF 		.ascii	"\227\234\222\277e\375\036\275\237\3503\323\360:\272"
ARM GAS  C:\Users\Daniela\AppData\Local\Temp\ccm3GHIA.s 			page 47


 593      65FD1EBD 
 593      9FE833D3 
 593      F03ABA
 594 072d 92D5A054 		.ascii	"\222\325\240T\326\323\005\245\362\014U6\266\354\367"
 594      D6D305A5 
 594      F20C5536 
 594      B6ECF7
 595 073c CD172315 		.ascii	"\315\027#\025N\253$N\253\010\247U\227\373\007\245\357"
 595      4EAB244E 
 595      AB08A755 
 595      97FB07A5 
 595      EF
 596 074d 71320C0F 		.ascii	"q2\014\017g\237\272\022\352\277\262\351\254T\3314\226"
 596      679FBA12 
 596      EABFB2E9 
 596      AC54D934 
 596      96
 597 075e 94D6D57C 		.ascii	"\224\326\325|\242C\372\357b\025^\002\\EWnH+\206\033"
 597      A243FAEF 
 597      62155E02 
 597      5C45576E 
 597      482B861B 
 598 0772 D7FA444F 		.ascii	"\327\372DOGK\350\363\337\353\0326\022\255f\261\273\014"
 598      474BE8F3 
 598      DFEB1A36 
 598      12AD66B1 
 598      BB0C
 599 0784 522DE214 		.ascii	"R-\342\024{k\255\333X\025\346\215.\365\213F\337\221"
 599      7B6BADDB 
 599      5815E68D 
 599      2EF58B46 
 599      DF91
 600 0796 DA0E3F6A 		.ascii	"\332\016?j\311g}r\305\013\246\302w\255\224\353Z\222"
 600      C9677D72 
 600      C50BA6C2 
 600      77AD94EB 
 600      5A92
 601 07a8 6B5BEDA9 		.ascii	"k[\355\251A\316\263q\320\335\177\315\365\316}\001\262"
 601      41CEB371 
 601      D0DD7FCD 
 601      F5CE7D01 
 601      B2
 602 07b9 8714ECE1 		.ascii	"\207\024\354\3413\357\355\377S\255\364\245\244\337-"
 602      33EFEDFF 
 602      53ADF4A5 
 602      A4DF2D
 603 07c8 E8A7B699 		.ascii	"\350\247\266\231\254\0269Y"
 603      AC163959 
 604 07d0 3FC63E67 		.ascii	"?\306>g\007X\364iq\000\232\332\326\326F7\255,\260_G"
 604      0758F469 
 604      71009ADA 
 604      D6D64637 
 604      AD2CB05F 
 605 07e5 ED7B2A5A 		.ascii	"\355{*ZG\302\376\3276\261\201\305\333\304z\026o\023"
 605      47C2FED7 
 605      36B181C5 
 605      DBC47A16 
ARM GAS  C:\Users\Daniela\AppData\Local\Temp\ccm3GHIA.s 			page 48


 605      6F13
 606 07f7 788077E5 		.ascii	"x\200w\345ci\273}S>\353\223\362F)\345\215$\345\336\221"
 606      6369BB7D 
 606      533EEB93 
 606      F24629E5 
 606      8D24E5DE 
 607 080c 27D59C0F 		.ascii	"'\325\234\017\272\326\007\275IBo\"\350\316\216\264\356"
 607      BAD607BD 
 607      49426F22 
 607      E8CE8EB4 
 607      EE
 608 081d 101F74B3 		.ascii	"\020\037t\263\017:[Bg\023t\353hJf0w\211\256\353\247"
 608      0F3A5B42 
 608      671374EB 
 608      684A6630 
 608      7789AEEB 
 609 0832 B6ED680E 		.ascii	"\266\355h\016\364\034\250\365\233\361\201z\235(\252"
 609      F41CA8F5 
 609      9BF1817A 
 609      9D28AA
 610 0841 E8993A47 		.ascii	"\350\231:G\351SxT\216h\233\331)L\320G\237-\210\322\315"
 610      E9537854 
 610      8E689BD9 
 610      294CD047 
 610      9F2D88D2 
 611 0856 9CC9A813 		.ascii	"\234\311\250\023\315\026\307\254\267&\177$X\004\233"
 611      CD16C7AC 
 611      B7267F24 
 611      58049B
 612 0865 C9212C8E 		.ascii	"\311!,\2161X\023m\274`\234g\260\352f\033\371$GR\202"
 612      3158136D 
 612      BC609C67 
 612      B0EA661B 
 612      F9244752 
 613 087a 608F5ECA 		.ascii	"`\217^\312\004`\340\273\343uI\206$\373\2348\223}\251"
 613      0460E0BB 
 613      E3754986 
 613      24FB9C38 
 613      937DA9
 614 088d 2ECECA2F 		.ascii	".\316\312/\373\300\304/KL\010\342\223\354\016\223#\321"
 614      FBC0C42F 
 614      4B4C08E2 
 614      93EC0E93 
 614      23D1
 615 089f EECF8D2E 		.ascii	"\356\317\215.\211\230D\363\314\204\347\034\314\027\354"
 615      899844F3 
 615      CC84E71C 
 615      CC17EC
 616 08ae 0EAB4D88 		.ascii	"\016\253M\210P\324_\330\314\016a\276\365\353\211\212"
 616      50D45FD8 
 616      CC0E61BE 
 616      F5EB898A 
 617 08be CA2038BE 		.ascii	"\312 8\2760\231\035\272$>N\260S\275A\301.\260\0136\300"
 617      30991DBA 
 617      243E4EB0 
 617      53BD41C1 
 617      2EB00B36 
ARM GAS  C:\Users\Daniela\AppData\Local\Temp\ccm3GHIA.s 			page 49


 618 08d3 03B50FBF 		.ascii	"\003\265\017\277\001\020\250\314\274)\316 \360\016\263"
 618      0110A8CC 
 618      BC29CE20 
 618      F00EB3
 619 08e2 D5F207BF 		.ascii	"\325\362\007\277\214\346\232\027AZ\300\347C\213C\260"
 619      8CE69A17 
 619      415AC0E7 
 619      438B43B0 
 620 08f2 3D67A68E 		.ascii	"=g\246\216\027\342\371\204$U\234`Z\022h\261:\226\332"
 620      17E2F984 
 620      24559C60 
 620      5A1268B1 
 620      3A96DA
 621 0905 AC5FABED 		.ascii	"\254_\253\355\346\177\0101\216\177\363\357\031\023l"
 621      E67F0831 
 621      8E7FF3EF 
 621      19136C
 622 0914 D6589B29 		.ascii	"\326X\233)>j\211\031\010E\315\370\346\335w\376\010S"
 622      3E6A8919 
 622      0845CDF8 
 622      E6DD77FE 
 622      0853
 623 0926 956013EC 		.ascii	"\225`\023\354vc\202\335\312G\3616\301\004y\031gG\317"
 623      766382DD 
 623      CA47F136 
 623      C1047919 
 623      6747CF
 624 0939 F45598E3 		.ascii	"\364U\230\343\023\2546\2071\326\222h4\331\342\215oG"
 624      13AC3687 
 624      31D69268 
 624      34D9E28D 
 624      6F47
 625 094b 63449C79 		.ascii	"cD\234y\2211\226\347\261\346u\213\325\"\274.\230\026"
 625      913196E7 
 625      B1E6758B 
 625      D522BC2E 
 625      9816
 626 095d 99A57766 		.ascii	"\231\245wf\013\037\227\270X0\332\035\213\027\013K\200"
 626      0B1F97B8 
 626      5830DA1D 
 626      8B170B4B 
 626      80
 627 096e 319A19B8 		.ascii	"1\232\031\270\304\022eO\020x f\261$\306\305\375\375"
 627      C412654F 
 627      10782066 
 627      B124C6C5 
 627      FDFD
 628 0980 B767E4CB 		.ascii	"\267g\344\313D\341`3[b\201\203Z\227\364\261)\3161\206"
 628      44E16033 
 628      5B628183 
 628      5A97F4B1 
 628      29CE3186 
 629 0994 F7948836 		.ascii	"\367\224\2106\202\206\217[\366\227x\353\274\304\370"
 629      82868F5B 
 629      F69778EB 
 629      BCC4F8
 630 09a3 84D7F897 		.ascii	"\204\327\370\227u\212\301aK\344\035\241<\326@U\035\340"
ARM GAS  C:\Users\Daniela\AppData\Local\Temp\ccm3GHIA.s 			page 50


 630      758AC161 
 630      4BE41DA1 
 630      3CD64055 
 630      1DE0
 631 09b5 EE579B66 		.ascii	"\356W\233f)\023\245\373*\306\360\225!f\316\334\367\015"
 631      2913A5FB 
 631      2AC6F095 
 631      2166CEDC 
 631      F70D
 632 09c7 1FC7E8E6 		.ascii	"\037\307\350\346\352u\237\304|\360\276\356\223\005\363"
 632      EA759FC4 
 632      7CF0BEEE 
 632      9305F3
 633 09d6 620C9FCF 		.ascii	"b\014\237\317_\240\373<\300&\304\316z\353\371\346\324"
 633      5FA0FB3C 
 633      C026C4CE 
 633      7AEBF9E6 
 633      D4
 634 09e7 592D4BCC 		.ascii	"Y-K\314\261\377\005M\017\233\344"
 634      B1FF054D 
 634      0F9BE4
 635              		.text
 636              		.section	.gnu.lto_.symtab.585646c9,"",%progbits
 637 0000 43795379 		.ascii	"CySysFlashWriteRow\000"
 637      73466C61 
 637      73685772 
 637      69746552 
 637      6F7700
 638 0013 00       		.ascii	"\000"
 639 0014 00       		.ascii	"\000"
 640 0015 00       		.ascii	"\000"
 641 0016 00000000 		.ascii	"\000\000\000\000\000\000\000\000"
 641      00000000 
 642 001e C4000000 		.ascii	"\304\000\000\000"
 643 0022 43795379 		.ascii	"CySysFlashSetWaitCycles\000"
 643      73466C61 
 643      73685365 
 643      74576169 
 643      74437963 
 644 003a 00       		.ascii	"\000"
 645 003b 00       		.ascii	"\000"
 646 003c 00       		.ascii	"\000"
 647 003d 00000000 		.ascii	"\000\000\000\000\000\000\000\000"
 647      00000000 
 648 0045 C8000000 		.ascii	"\310\000\000\000"
 649 0049 43795379 		.ascii	"CySysSFlashWriteUserRow\000"
 649      7353466C 
 649      61736857 
 649      72697465 
 649      55736572 
 650 0061 00       		.ascii	"\000"
 651 0062 00       		.ascii	"\000"
 652 0063 00       		.ascii	"\000"
 653 0064 00000000 		.ascii	"\000\000\000\000\000\000\000\000"
 653      00000000 
 654 006c CA000000 		.ascii	"\312\000\000\000"
 655 0070 43794578 		.ascii	"CyExitCriticalSection\000"
ARM GAS  C:\Users\Daniela\AppData\Local\Temp\ccm3GHIA.s 			page 51


 655      69744372 
 655      69746963 
 655      616C5365 
 655      6374696F 
 656 0086 00       		.ascii	"\000"
 657 0087 02       		.ascii	"\002"
 658 0088 00       		.ascii	"\000"
 659 0089 00000000 		.ascii	"\000\000\000\000\000\000\000\000"
 659      00000000 
 660 0091 CE000000 		.ascii	"\316\000\000\000"
 661 0095 4379456E 		.ascii	"CyEnterCriticalSection\000"
 661      74657243 
 661      72697469 
 661      63616C53 
 661      65637469 
 662 00ac 00       		.ascii	"\000"
 663 00ad 02       		.ascii	"\002"
 664 00ae 00       		.ascii	"\000"
 665 00af 00000000 		.ascii	"\000\000\000\000\000\000\000\000"
 665      00000000 
 666 00b7 D1000000 		.ascii	"\321\000\000\000"
 667 00bb 43794861 		.ascii	"CyHalt\000"
 667      6C7400
 668 00c2 00       		.ascii	"\000"
 669 00c3 02       		.ascii	"\002"
 670 00c4 00       		.ascii	"\000"
 671 00c5 00000000 		.ascii	"\000\000\000\000\000\000\000\000"
 671      00000000 
 672 00cd E9000000 		.ascii	"\351\000\000\000"
 673              		.text
 674              		.section	.gnu.lto_.opts,"",%progbits
 675 0000 272D666D 		.ascii	"'-fmath-errno' '-fsigned-zeros' '-ftrapping-math' '"
 675      6174682D 
 675      6572726E 
 675      6F272027 
 675      2D667369 
 676 0033 2D666E6F 		.ascii	"-fno-trapv' '-fno-openmp' '-fno-openacc' '-mcpu=cor"
 676      2D747261 
 676      70762720 
 676      272D666E 
 676      6F2D6F70 
 677 0066 7465782D 		.ascii	"tex-m0' '-mthumb' '-g' '-O3' '-ffunction-sections' "
 677      6D302720 
 677      272D6D74 
 677      68756D62 
 677      2720272D 
 678 0099 272D6666 		.ascii	"'-ffat-lto-objects' '-finline-functions' '-flto'\000"
 678      61742D6C 
 678      746F2D6F 
 678      626A6563 
 678      74732720 
 679              		.text
 680              		.cfi_sections	.debug_frame
 681              		.section	.text.CySysFlashWriteRow,"ax",%progbits
 682              		.align	2
 683              		.global	CySysFlashWriteRow
 684              		.code	16
ARM GAS  C:\Users\Daniela\AppData\Local\Temp\ccm3GHIA.s 			page 52


 685              		.thumb_func
 686              		.type	CySysFlashWriteRow, %function
 687              	CySysFlashWriteRow:
 688              	.LFB2:
 689              		.file 1 "Generated_Source\\PSoC4\\CyFlash.c"
   1:Generated_Source\PSoC4/CyFlash.c **** /***************************************************************************//**
   2:Generated_Source\PSoC4/CyFlash.c **** * \file CyFlash.c
   3:Generated_Source\PSoC4/CyFlash.c **** * \version 5.60
   4:Generated_Source\PSoC4/CyFlash.c **** *
   5:Generated_Source\PSoC4/CyFlash.c **** * \brief Provides an API for the FLASH.
   6:Generated_Source\PSoC4/CyFlash.c **** *
   7:Generated_Source\PSoC4/CyFlash.c **** * \note This code is endian agnostic.
   8:Generated_Source\PSoC4/CyFlash.c **** *
   9:Generated_Source\PSoC4/CyFlash.c **** * \note Documentation of the API's in this file is located in the System
  10:Generated_Source\PSoC4/CyFlash.c **** * Reference Guide provided with PSoC Creator.
  11:Generated_Source\PSoC4/CyFlash.c **** *
  12:Generated_Source\PSoC4/CyFlash.c **** ********************************************************************************
  13:Generated_Source\PSoC4/CyFlash.c **** * \copyright
  14:Generated_Source\PSoC4/CyFlash.c **** * Copyright 2010-2017, Cypress Semiconductor Corporation.  All rights reserved.
  15:Generated_Source\PSoC4/CyFlash.c **** * You may use this file only in accordance with the license, terms, conditions,
  16:Generated_Source\PSoC4/CyFlash.c **** * disclaimers, and limitations in the end user license agreement accompanying
  17:Generated_Source\PSoC4/CyFlash.c **** * the software package with which this file was provided.
  18:Generated_Source\PSoC4/CyFlash.c **** *******************************************************************************/
  19:Generated_Source\PSoC4/CyFlash.c **** 
  20:Generated_Source\PSoC4/CyFlash.c **** #include "CyFlash.h"
  21:Generated_Source\PSoC4/CyFlash.c **** 
  22:Generated_Source\PSoC4/CyFlash.c **** 
  23:Generated_Source\PSoC4/CyFlash.c **** /*******************************************************************************
  24:Generated_Source\PSoC4/CyFlash.c **** * Cypress identified a defect with the Flash write functionality of the
  25:Generated_Source\PSoC4/CyFlash.c **** * PSoC 4000, PSoC 4000U, PSoC 4100, and PSoC 4200 devices. The 
  26:Generated_Source\PSoC4/CyFlash.c **** * CySysFlashWriteRow() function now checks the data to be written and, if 
  27:Generated_Source\PSoC4/CyFlash.c **** * necessary, modifies it to have a non-zero checksum. After writing to Flash, 
  28:Generated_Source\PSoC4/CyFlash.c **** * the modified data is replaced (Flash program) with 
  29:Generated_Source\PSoC4/CyFlash.c **** * the correct (original) data.
  30:Generated_Source\PSoC4/CyFlash.c **** *******************************************************************************/
  31:Generated_Source\PSoC4/CyFlash.c **** #define CY_FLASH_CHECKSUM_WORKAROUND    (CY_PSOC4_4000 || CY_PSOC4_4100 || CY_PSOC4_4200 || CY_PSOC
  32:Generated_Source\PSoC4/CyFlash.c **** 
  33:Generated_Source\PSoC4/CyFlash.c **** #if (CY_IP_FM || ((!CY_PSOC4_4000) && CY_IP_SPCIF_SYNCHRONOUS) || (!CY_IP_FM) && CY_PSOC4_4000)
  34:Generated_Source\PSoC4/CyFlash.c ****     static CY_SYS_FLASH_CLOCK_BACKUP_STRUCT cySysFlashBackup;
  35:Generated_Source\PSoC4/CyFlash.c **** #endif /* (CY_IP_FM || ((!CY_PSOC4_4000) && CY_IP_SPCIF_SYNCHRONOUS) || (!CY_IP_FM) && CY_PSOC4_400
  36:Generated_Source\PSoC4/CyFlash.c **** 
  37:Generated_Source\PSoC4/CyFlash.c **** static cystatus CySysFlashClockBackup(void);
  38:Generated_Source\PSoC4/CyFlash.c **** static cystatus CySysFlashClockRestore(void);
  39:Generated_Source\PSoC4/CyFlash.c **** #if(CY_IP_SPCIF_SYNCHRONOUS)
  40:Generated_Source\PSoC4/CyFlash.c ****     static cystatus CySysFlashClockConfig(void);
  41:Generated_Source\PSoC4/CyFlash.c **** #endif  /* (CY_IP_SPCIF_SYNCHRONOUS) */
  42:Generated_Source\PSoC4/CyFlash.c **** 
  43:Generated_Source\PSoC4/CyFlash.c **** 
  44:Generated_Source\PSoC4/CyFlash.c **** /*******************************************************************************
  45:Generated_Source\PSoC4/CyFlash.c **** * Function Name: CySysFlashWriteRow
  46:Generated_Source\PSoC4/CyFlash.c **** ****************************************************************************//**
  47:Generated_Source\PSoC4/CyFlash.c **** *
  48:Generated_Source\PSoC4/CyFlash.c **** * Erases a row of Flash and programs it with the new data.
  49:Generated_Source\PSoC4/CyFlash.c **** *
  50:Generated_Source\PSoC4/CyFlash.c **** * The IMO must be enabled before calling this function. The operation of the
  51:Generated_Source\PSoC4/CyFlash.c **** * flash writing hardware is dependent on the IMO.
  52:Generated_Source\PSoC4/CyFlash.c **** *
ARM GAS  C:\Users\Daniela\AppData\Local\Temp\ccm3GHIA.s 			page 53


  53:Generated_Source\PSoC4/CyFlash.c **** * For PSoC 4000, PSoC 4100 BLE and PSoC 4200 BLE devices (PSoC 4100 BLE and
  54:Generated_Source\PSoC4/CyFlash.c **** * PSoC 4200 BLE devices with 256K of Flash memory are not affected), this API
  55:Generated_Source\PSoC4/CyFlash.c **** * will automatically modify the clock settings for the device. Writing to
  56:Generated_Source\PSoC4/CyFlash.c **** * flash requires that changes be made to the IMO and HFCLK settings. The
  57:Generated_Source\PSoC4/CyFlash.c **** * configuration is restored before returning. This will impact the operation
  58:Generated_Source\PSoC4/CyFlash.c **** * of most of the hardware in the device.
  59:Generated_Source\PSoC4/CyFlash.c **** *
  60:Generated_Source\PSoC4/CyFlash.c **** * For PSoC 4000 devices this API will automatically modify the clock settings
  61:Generated_Source\PSoC4/CyFlash.c **** * for the device. Writing to flash requires that changes be made to the IMO
  62:Generated_Source\PSoC4/CyFlash.c **** * and HFCLK settings. The configuration is restored before returning. HFCLK
  63:Generated_Source\PSoC4/CyFlash.c **** * will have several frequency changes during the operation of this API between
  64:Generated_Source\PSoC4/CyFlash.c **** * a minimum frequency of the current IMO frequency divided by 8 and a maximum
  65:Generated_Source\PSoC4/CyFlash.c **** * frequency of 12 MHz. This will impact the operation of most of the hardware
  66:Generated_Source\PSoC4/CyFlash.c **** * in the device.
  67:Generated_Source\PSoC4/CyFlash.c **** *
  68:Generated_Source\PSoC4/CyFlash.c **** * \param rowNum The flash row number. The number of the flash rows is defined by
  69:Generated_Source\PSoC4/CyFlash.c **** * the \ref CY_FLASH_NUMBER_ROWS macro for the selected device. Refer to the
  70:Generated_Source\PSoC4/CyFlash.c **** * device datasheet for the details.
  71:Generated_Source\PSoC4/CyFlash.c **** * \note The target flash array is calculated based on the specified flash row.
  72:Generated_Source\PSoC4/CyFlash.c **** *
  73:Generated_Source\PSoC4/CyFlash.c **** * \param rowData Array of bytes to write. The size of the array must be equal to
  74:Generated_Source\PSoC4/CyFlash.c **** * the flash row size. The flash row size for the selected device is defined by
  75:Generated_Source\PSoC4/CyFlash.c **** * the \ref CY_FLASH_SIZEOF_ROW macro. Refer to the device datasheet for the
  76:Generated_Source\PSoC4/CyFlash.c **** * details.
  77:Generated_Source\PSoC4/CyFlash.c **** *
  78:Generated_Source\PSoC4/CyFlash.c **** * \return \ref group_flash_status_codes
  79:Generated_Source\PSoC4/CyFlash.c **** *
  80:Generated_Source\PSoC4/CyFlash.c **** *******************************************************************************/
  81:Generated_Source\PSoC4/CyFlash.c **** uint32 CySysFlashWriteRow(uint32 rowNum, const uint8 rowData[])
  82:Generated_Source\PSoC4/CyFlash.c **** {
 690              		.loc 1 82 0
 691              		.cfi_startproc
 692              		@ args = 0, pretend = 0, frame = 160
 693              		@ frame_needed = 0, uses_anonymous_args = 0
 694              	.LVL0:
  83:Generated_Source\PSoC4/CyFlash.c ****     volatile uint32 retValue = CY_SYS_FLASH_SUCCESS;
 695              		.loc 1 83 0
 696 0000 0023     		movs	r3, #0
  82:Generated_Source\PSoC4/CyFlash.c ****     volatile uint32 retValue = CY_SYS_FLASH_SUCCESS;
 697              		.loc 1 82 0
 698 0002 30B5     		push	{r4, r5, lr}
 699              		.cfi_def_cfa_offset 12
 700              		.cfi_offset 4, -12
 701              		.cfi_offset 5, -8
 702              		.cfi_offset 14, -4
 703 0004 A9B0     		sub	sp, sp, #164
 704              		.cfi_def_cfa_offset 176
 705              		.loc 1 83 0
 706 0006 0093     		str	r3, [sp]
  84:Generated_Source\PSoC4/CyFlash.c ****     volatile uint32 clkCnfRetValue = CY_SYS_FLASH_SUCCESS;
 707              		.loc 1 84 0
 708 0008 0193     		str	r3, [sp, #4]
  85:Generated_Source\PSoC4/CyFlash.c ****     volatile uint32 parameters[(CY_FLASH_SIZEOF_ROW + CY_FLASH_SRAM_ROM_DATA) / sizeof(uint32)];
  86:Generated_Source\PSoC4/CyFlash.c ****     uint8  interruptState;
  87:Generated_Source\PSoC4/CyFlash.c **** 
  88:Generated_Source\PSoC4/CyFlash.c ****     #if (CY_FLASH_CHECKSUM_WORKAROUND)
  89:Generated_Source\PSoC4/CyFlash.c ****         uint32 needChecksumWorkaround = 0u;
ARM GAS  C:\Users\Daniela\AppData\Local\Temp\ccm3GHIA.s 			page 54


  90:Generated_Source\PSoC4/CyFlash.c ****         uint32 savedIndex = 0u;
  91:Generated_Source\PSoC4/CyFlash.c ****         uint32 savedValue = 0u;
  92:Generated_Source\PSoC4/CyFlash.c ****         uint32 checksum = 0u;
  93:Generated_Source\PSoC4/CyFlash.c ****         uint32 bits = 0u;
  94:Generated_Source\PSoC4/CyFlash.c ****         uint32 i;
  95:Generated_Source\PSoC4/CyFlash.c ****     #endif  /* (CY_FLASH_CHECKSUM_WORKAROUND) */
  96:Generated_Source\PSoC4/CyFlash.c **** 
  97:Generated_Source\PSoC4/CyFlash.c ****     if ((rowNum < CY_FLASH_NUMBER_ROWS) && (rowData != 0u))
 709              		.loc 1 97 0
 710 000a 544B     		ldr	r3, .L38
  82:Generated_Source\PSoC4/CyFlash.c ****     volatile uint32 retValue = CY_SYS_FLASH_SUCCESS;
 711              		.loc 1 82 0
 712 000c 0400     		movs	r4, r0
 713              		.loc 1 97 0
 714 000e 9842     		cmp	r0, r3
 715 0010 00D9     		bls	.LCB19
 716 0012 75E0     		b	.L2	@long jump
 717              	.LCB19:
 718              		.loc 1 97 0 is_stmt 0 discriminator 1
 719 0014 0029     		cmp	r1, #0
 720 0016 73D0     		beq	.L2
  98:Generated_Source\PSoC4/CyFlash.c ****     {
  99:Generated_Source\PSoC4/CyFlash.c ****         /* Copy data to be written into internal variable */
 100:Generated_Source\PSoC4/CyFlash.c ****         (void)memcpy((void *)&parameters[2u], rowData, CY_FLASH_SIZEOF_ROW);
 721              		.loc 1 100 0 is_stmt 1
 722 0018 8022     		movs	r2, #128
 723 001a 08A8     		add	r0, sp, #32
 724              	.LVL1:
 725 001c FFF7FEFF 		bl	memcpy
 726              	.LVL2:
 101:Generated_Source\PSoC4/CyFlash.c **** 
 102:Generated_Source\PSoC4/CyFlash.c ****         #if (CY_FLASH_CHECKSUM_WORKAROUND)
 103:Generated_Source\PSoC4/CyFlash.c **** 
 104:Generated_Source\PSoC4/CyFlash.c ****             for (i = 2u; i < ((CY_FLASH_SIZEOF_ROW / sizeof(uint32)) + 2u); i++)
 105:Generated_Source\PSoC4/CyFlash.c ****             {
 106:Generated_Source\PSoC4/CyFlash.c ****                 uint32 tmp = parameters[i];
 107:Generated_Source\PSoC4/CyFlash.c ****                 if (tmp != 0u)
 108:Generated_Source\PSoC4/CyFlash.c ****                 {
 109:Generated_Source\PSoC4/CyFlash.c ****                     checksum += tmp;
 110:Generated_Source\PSoC4/CyFlash.c ****                     bits |= tmp;
 111:Generated_Source\PSoC4/CyFlash.c ****                     savedIndex = i;
 112:Generated_Source\PSoC4/CyFlash.c ****                 }
 113:Generated_Source\PSoC4/CyFlash.c ****             }
 114:Generated_Source\PSoC4/CyFlash.c **** 
 115:Generated_Source\PSoC4/CyFlash.c ****             needChecksumWorkaround = ((checksum == 0u) && (bits != 0u)) ? 1u : 0u;
 116:Generated_Source\PSoC4/CyFlash.c ****             if (needChecksumWorkaround != 0u)
 117:Generated_Source\PSoC4/CyFlash.c ****             {
 118:Generated_Source\PSoC4/CyFlash.c ****                 savedValue = parameters[savedIndex];
 119:Generated_Source\PSoC4/CyFlash.c ****                 parameters[savedIndex] = 0u;
 120:Generated_Source\PSoC4/CyFlash.c ****             }
 121:Generated_Source\PSoC4/CyFlash.c ****         #endif  /* (CY_FLASH_CHECKSUM_WORKAROUND) */
 122:Generated_Source\PSoC4/CyFlash.c **** 
 123:Generated_Source\PSoC4/CyFlash.c ****         /* Load Flash Bytes */
 124:Generated_Source\PSoC4/CyFlash.c ****         parameters[0u] = (uint32) (CY_FLASH_GET_MACRO_FROM_ROW(rowNum)        << CY_FLASH_PARAM_MAC
 125:Generated_Source\PSoC4/CyFlash.c ****                          (uint32) (CY_FLASH_PAGE_LATCH_START_ADDR             << CY_FLASH_PARAM_ADD
 126:Generated_Source\PSoC4/CyFlash.c ****                          (uint32) (CY_FLASH_KEY_TWO(CY_FLASH_API_OPCODE_LOAD) << CY_FLASH_PARAM_KEY
 727              		.loc 1 126 0
ARM GAS  C:\Users\Daniela\AppData\Local\Temp\ccm3GHIA.s 			page 55


 728 0020 4F4B     		ldr	r3, .L38+4
 729 0022 9C42     		cmp	r4, r3
 730 0024 00D9     		bls	.LCB30
 731 0026 70E0     		b	.L20	@long jump
 732              	.LCB30:
 733 0028 4E4B     		ldr	r3, .L38+8
 734              	.L3:
 124:Generated_Source\PSoC4/CyFlash.c ****                          (uint32) (CY_FLASH_PAGE_LATCH_START_ADDR             << CY_FLASH_PARAM_ADD
 735              		.loc 1 124 0
 736 002a 0693     		str	r3, [sp, #24]
 127:Generated_Source\PSoC4/CyFlash.c ****                          CY_FLASH_KEY_ONE;
 128:Generated_Source\PSoC4/CyFlash.c ****         parameters[1u] = CY_FLASH_SIZEOF_ROW - 1u;
 737              		.loc 1 128 0
 738 002c 7F23     		movs	r3, #127
 739 002e 0793     		str	r3, [sp, #28]
 129:Generated_Source\PSoC4/CyFlash.c **** 
 130:Generated_Source\PSoC4/CyFlash.c ****         CY_FLASH_CPUSS_SYSARG_REG = (uint32) &parameters[0u];
 740              		.loc 1 130 0
 741 0030 4D4B     		ldr	r3, .L38+12
 742 0032 06AA     		add	r2, sp, #24
 743 0034 1A60     		str	r2, [r3]
 131:Generated_Source\PSoC4/CyFlash.c ****         CY_FLASH_CPUSS_SYSREQ_REG = CY_FLASH_CPUSS_REQ_START | CY_FLASH_API_OPCODE_LOAD;
 744              		.loc 1 131 0
 745 0036 4D49     		ldr	r1, .L38+16
 746 0038 4D4A     		ldr	r2, .L38+20
 747 003a 1160     		str	r1, [r2]
 132:Generated_Source\PSoC4/CyFlash.c ****         CY_NOP;
 748              		.loc 1 132 0
 749              		.syntax divided
 750              	@ 132 "Generated_Source\PSoC4\CyFlash.c" 1
 751 003c C046     		NOP
 752              	
 753              	@ 0 "" 2
 133:Generated_Source\PSoC4/CyFlash.c ****         retValue = CY_FLASH_API_RETURN;
 754              		.loc 1 133 0
 755              		.thumb
 756              		.syntax unified
 757 003e 1A68     		ldr	r2, [r3]
 758 0040 120F     		lsrs	r2, r2, #28
 759 0042 0F2A     		cmp	r2, #15
 760 0044 04D0     		beq	.L31
 761              		.loc 1 133 0 is_stmt 0 discriminator 2
 762 0046 1A68     		ldr	r2, [r3]
 763 0048 120F     		lsrs	r2, r2, #28
 764 004a 0A2A     		cmp	r2, #10
 765 004c 00D1     		bne	.LCB56
 766 004e 62E0     		b	.L21	@long jump
 767              	.LCB56:
 768              	.L31:
 769              		.loc 1 133 0 discriminator 4
 770 0050 FF22     		movs	r2, #255
 771 0052 1B68     		ldr	r3, [r3]
 772 0054 1340     		ands	r3, r2
 773              	.L5:
 774              		.loc 1 133 0 discriminator 8
 775 0056 0093     		str	r3, [sp]
 134:Generated_Source\PSoC4/CyFlash.c **** 
ARM GAS  C:\Users\Daniela\AppData\Local\Temp\ccm3GHIA.s 			page 56


 135:Generated_Source\PSoC4/CyFlash.c ****         if(retValue == CY_SYS_FLASH_SUCCESS)
 776              		.loc 1 135 0 is_stmt 1 discriminator 8
 777 0058 009B     		ldr	r3, [sp]
 778 005a 002B     		cmp	r3, #0
 779 005c 52D1     		bne	.L6
 136:Generated_Source\PSoC4/CyFlash.c ****         {
 137:Generated_Source\PSoC4/CyFlash.c ****             /***************************************************************
 138:Generated_Source\PSoC4/CyFlash.c ****             * Mask all the exceptions to guarantee that Flash write will
 139:Generated_Source\PSoC4/CyFlash.c ****             * occur in the atomic way. It will not affect system call
 140:Generated_Source\PSoC4/CyFlash.c ****             * execution (flash row write) since it is executed in the NMI
 141:Generated_Source\PSoC4/CyFlash.c ****             * context.
 142:Generated_Source\PSoC4/CyFlash.c ****             ***************************************************************/
 143:Generated_Source\PSoC4/CyFlash.c ****             interruptState = CyEnterCriticalSection();
 780              		.loc 1 143 0
 781 005e FFF7FEFF 		bl	CyEnterCriticalSection
 782              	.LVL3:
 783              	.LBB12:
 784              	.LBB13:
 144:Generated_Source\PSoC4/CyFlash.c **** 
 145:Generated_Source\PSoC4/CyFlash.c ****             clkCnfRetValue = CySysFlashClockBackup();
 146:Generated_Source\PSoC4/CyFlash.c **** 
 147:Generated_Source\PSoC4/CyFlash.c ****         #if(CY_IP_SPCIF_SYNCHRONOUS)
 148:Generated_Source\PSoC4/CyFlash.c ****             if(clkCnfRetValue == CY_SYS_FLASH_SUCCESS)
 149:Generated_Source\PSoC4/CyFlash.c ****             {
 150:Generated_Source\PSoC4/CyFlash.c ****                 retValue = CySysFlashClockConfig();
 151:Generated_Source\PSoC4/CyFlash.c ****             }
 152:Generated_Source\PSoC4/CyFlash.c ****         #endif  /* (CY_IP_SPCIF_SYNCHRONOUS) */
 153:Generated_Source\PSoC4/CyFlash.c **** 
 154:Generated_Source\PSoC4/CyFlash.c ****             if(retValue == CY_SYS_FLASH_SUCCESS)
 155:Generated_Source\PSoC4/CyFlash.c ****             {
 156:Generated_Source\PSoC4/CyFlash.c ****                 /* Write Row */
 157:Generated_Source\PSoC4/CyFlash.c ****                 parameters[0u]  = (uint32) (((uint32) CY_FLASH_KEY_TWO(CY_FLASH_API_OPCODE_WRITE_RO
 158:Generated_Source\PSoC4/CyFlash.c ****                 parameters[0u] |= (uint32)(rowNum << 16u);
 159:Generated_Source\PSoC4/CyFlash.c **** 
 160:Generated_Source\PSoC4/CyFlash.c ****                 CY_FLASH_CPUSS_SYSARG_REG = (uint32) &parameters[0u];
 161:Generated_Source\PSoC4/CyFlash.c ****                 CY_FLASH_CPUSS_SYSREQ_REG = CY_FLASH_CPUSS_REQ_START | CY_FLASH_API_OPCODE_WRITE_RO
 162:Generated_Source\PSoC4/CyFlash.c ****                 CY_NOP;
 163:Generated_Source\PSoC4/CyFlash.c ****                 retValue = CY_FLASH_API_RETURN;
 164:Generated_Source\PSoC4/CyFlash.c ****             }
 165:Generated_Source\PSoC4/CyFlash.c **** 
 166:Generated_Source\PSoC4/CyFlash.c ****             #if (CY_FLASH_CHECKSUM_WORKAROUND)
 167:Generated_Source\PSoC4/CyFlash.c **** 
 168:Generated_Source\PSoC4/CyFlash.c ****                 if ((retValue == CYRET_SUCCESS) && (needChecksumWorkaround != 0u))
 169:Generated_Source\PSoC4/CyFlash.c ****                 {
 170:Generated_Source\PSoC4/CyFlash.c ****                     (void)memset((void *)&parameters[2u], 0, CY_FLASH_SIZEOF_ROW);
 171:Generated_Source\PSoC4/CyFlash.c ****                     parameters[savedIndex] = savedValue;
 172:Generated_Source\PSoC4/CyFlash.c **** 
 173:Generated_Source\PSoC4/CyFlash.c ****                     /* Load Flash Bytes */
 174:Generated_Source\PSoC4/CyFlash.c ****                     parameters[0u] = (uint32) (CY_FLASH_GET_MACRO_FROM_ROW(rowNum)        << CY_FLA
 175:Generated_Source\PSoC4/CyFlash.c ****                                      (uint32) (CY_FLASH_PAGE_LATCH_START_ADDR             << CY_FLA
 176:Generated_Source\PSoC4/CyFlash.c ****                                      (uint32) (CY_FLASH_KEY_TWO(CY_FLASH_API_OPCODE_LOAD) << CY_FLA
 177:Generated_Source\PSoC4/CyFlash.c ****                                      CY_FLASH_KEY_ONE;
 178:Generated_Source\PSoC4/CyFlash.c ****                     parameters[1u] = CY_FLASH_SIZEOF_ROW - 1u;
 179:Generated_Source\PSoC4/CyFlash.c **** 
 180:Generated_Source\PSoC4/CyFlash.c ****                     CY_FLASH_CPUSS_SYSARG_REG = (uint32) &parameters[0u];
 181:Generated_Source\PSoC4/CyFlash.c ****                     CY_FLASH_CPUSS_SYSREQ_REG = CY_FLASH_CPUSS_REQ_START | CY_FLASH_API_OPCODE_LOAD
 182:Generated_Source\PSoC4/CyFlash.c ****                     CY_NOP;
ARM GAS  C:\Users\Daniela\AppData\Local\Temp\ccm3GHIA.s 			page 57


 183:Generated_Source\PSoC4/CyFlash.c ****                     retValue = CY_FLASH_API_RETURN;
 184:Generated_Source\PSoC4/CyFlash.c **** 
 185:Generated_Source\PSoC4/CyFlash.c **** 
 186:Generated_Source\PSoC4/CyFlash.c ****                     if(retValue == CY_SYS_FLASH_SUCCESS)
 187:Generated_Source\PSoC4/CyFlash.c ****                     {
 188:Generated_Source\PSoC4/CyFlash.c ****                         /* Program Row */
 189:Generated_Source\PSoC4/CyFlash.c ****                         parameters[0u]  =
 190:Generated_Source\PSoC4/CyFlash.c ****                             (uint32) (((uint32) CY_FLASH_KEY_TWO(CY_FLASH_API_OPCODE_PROGRAM_ROW) <
 191:Generated_Source\PSoC4/CyFlash.c ****                                                     CY_FLASH_PARAM_KEY_TWO_OFFSET) | CY_FLASH_KEY_O
 192:Generated_Source\PSoC4/CyFlash.c ****                         parameters[0u] |= (uint32)(rowNum << 16u);
 193:Generated_Source\PSoC4/CyFlash.c **** 
 194:Generated_Source\PSoC4/CyFlash.c ****                         CY_FLASH_CPUSS_SYSARG_REG = (uint32) &parameters[0u];
 195:Generated_Source\PSoC4/CyFlash.c ****                         CY_FLASH_CPUSS_SYSREQ_REG = CY_FLASH_CPUSS_REQ_START | CY_FLASH_API_OPCODE_
 196:Generated_Source\PSoC4/CyFlash.c ****                         CY_NOP;
 197:Generated_Source\PSoC4/CyFlash.c ****                         retValue = CY_FLASH_API_RETURN;
 198:Generated_Source\PSoC4/CyFlash.c ****                     }
 199:Generated_Source\PSoC4/CyFlash.c ****                 }
 200:Generated_Source\PSoC4/CyFlash.c ****             #endif  /* (CY_FLASH_CHECKSUM_WORKAROUND) */
 201:Generated_Source\PSoC4/CyFlash.c **** 
 202:Generated_Source\PSoC4/CyFlash.c ****             if(clkCnfRetValue == CY_SYS_FLASH_SUCCESS)
 203:Generated_Source\PSoC4/CyFlash.c ****             {
 204:Generated_Source\PSoC4/CyFlash.c ****                 clkCnfRetValue = CySysFlashClockRestore();
 205:Generated_Source\PSoC4/CyFlash.c **** 
 206:Generated_Source\PSoC4/CyFlash.c ****                 if(clkCnfRetValue != CY_SYS_FLASH_SUCCESS)
 207:Generated_Source\PSoC4/CyFlash.c ****                 {
 208:Generated_Source\PSoC4/CyFlash.c ****                     retValue = clkCnfRetValue;
 209:Generated_Source\PSoC4/CyFlash.c ****                 }
 210:Generated_Source\PSoC4/CyFlash.c ****             }
 211:Generated_Source\PSoC4/CyFlash.c **** 
 212:Generated_Source\PSoC4/CyFlash.c ****             CyExitCriticalSection(interruptState);
 213:Generated_Source\PSoC4/CyFlash.c ****         }
 214:Generated_Source\PSoC4/CyFlash.c ****     }
 215:Generated_Source\PSoC4/CyFlash.c ****     else
 216:Generated_Source\PSoC4/CyFlash.c ****     {
 217:Generated_Source\PSoC4/CyFlash.c ****         retValue = CY_SYS_FLASH_INVALID_ADDR;
 218:Generated_Source\PSoC4/CyFlash.c ****     }
 219:Generated_Source\PSoC4/CyFlash.c **** 
 220:Generated_Source\PSoC4/CyFlash.c ****     return (retValue);
 221:Generated_Source\PSoC4/CyFlash.c **** }
 222:Generated_Source\PSoC4/CyFlash.c **** 
 223:Generated_Source\PSoC4/CyFlash.c **** 
 224:Generated_Source\PSoC4/CyFlash.c **** 
 225:Generated_Source\PSoC4/CyFlash.c **** #if (CY_IP_FLASH_PARALLEL_PGM_EN && (CY_IP_FLASH_MACROS > 1u))
 226:Generated_Source\PSoC4/CyFlash.c **** /*******************************************************************************
 227:Generated_Source\PSoC4/CyFlash.c **** * Function Name: CySysFlashStartWriteRow
 228:Generated_Source\PSoC4/CyFlash.c **** ****************************************************************************//**
 229:Generated_Source\PSoC4/CyFlash.c **** *
 230:Generated_Source\PSoC4/CyFlash.c **** * Initiates a write to a row of Flash. A call to this API is non-blocking. 
 231:Generated_Source\PSoC4/CyFlash.c **** * Use CySysFlashResumeWriteRow() to resume flash writes and 
 232:Generated_Source\PSoC4/CyFlash.c **** * CySysFlashGetWriteRowStatus() to ascertain status of the write operation.
 233:Generated_Source\PSoC4/CyFlash.c **** *
 234:Generated_Source\PSoC4/CyFlash.c **** * The devices require HFCLK to be sourced by 48 MHz IMO during flash write.
 235:Generated_Source\PSoC4/CyFlash.c **** * This API will modify IMO configuration; it can be later restored to original
 236:Generated_Source\PSoC4/CyFlash.c **** * configuration by calling \ref CySysFlashGetWriteRowStatus().
 237:Generated_Source\PSoC4/CyFlash.c **** *
 238:Generated_Source\PSoC4/CyFlash.c **** * \note The non-blocking operation does not return success status 
 239:Generated_Source\PSoC4/CyFlash.c **** * CY_SYS_FLASH_SUCCESS until the last \ref CySysFlashResumeWriteRow API 
ARM GAS  C:\Users\Daniela\AppData\Local\Temp\ccm3GHIA.s 			page 58


 240:Generated_Source\PSoC4/CyFlash.c **** * is complete. The CPUSS_SYSARG register will be reflecting the SRAM address 
 241:Generated_Source\PSoC4/CyFlash.c **** * during an ongoing non-blocking operation.
 242:Generated_Source\PSoC4/CyFlash.c **** *    
 243:Generated_Source\PSoC4/CyFlash.c **** * \param rowNum The flash row number. The number of the flash rows is defined by
 244:Generated_Source\PSoC4/CyFlash.c **** * the \ref CY_FLASH_NUMBER_ROWS macro for the selected device. Refer to the
 245:Generated_Source\PSoC4/CyFlash.c **** * device datasheet for the details.
 246:Generated_Source\PSoC4/CyFlash.c **** * \note The target flash array is calculated based on the specified flash row.
 247:Generated_Source\PSoC4/CyFlash.c **** *
 248:Generated_Source\PSoC4/CyFlash.c **** * \param rowData Array of bytes to write. The size of the array must be equal to
 249:Generated_Source\PSoC4/CyFlash.c **** * the flash row size. The flash row size for the selected device is defined by
 250:Generated_Source\PSoC4/CyFlash.c **** * the \ref CY_FLASH_SIZEOF_ROW macro. Refer to the device datasheet for the
 251:Generated_Source\PSoC4/CyFlash.c **** * details.
 252:Generated_Source\PSoC4/CyFlash.c **** *
 253:Generated_Source\PSoC4/CyFlash.c **** * \return \ref group_flash_status_codes
 254:Generated_Source\PSoC4/CyFlash.c **** *
 255:Generated_Source\PSoC4/CyFlash.c **** *******************************************************************************/
 256:Generated_Source\PSoC4/CyFlash.c **** uint32 CySysFlashStartWriteRow(uint32 rowNum, const uint8 rowData[])
 257:Generated_Source\PSoC4/CyFlash.c **** {
 258:Generated_Source\PSoC4/CyFlash.c ****     volatile uint32 retValue = CY_SYS_FLASH_SUCCESS;
 259:Generated_Source\PSoC4/CyFlash.c ****     volatile uint32 parameters[(CY_FLASH_SIZEOF_ROW + CY_FLASH_SRAM_ROM_DATA) / sizeof(uint32)];
 260:Generated_Source\PSoC4/CyFlash.c ****     uint8  interruptState;
 261:Generated_Source\PSoC4/CyFlash.c **** 
 262:Generated_Source\PSoC4/CyFlash.c **** #if(CY_IP_SPCIF_SYNCHRONOUS)
 263:Generated_Source\PSoC4/CyFlash.c ****     volatile uint32 clkCnfRetValue = CY_SYS_FLASH_SUCCESS;
 264:Generated_Source\PSoC4/CyFlash.c **** #endif  /* (CY_IP_SPCIF_SYNCHRONOUS) */    
 265:Generated_Source\PSoC4/CyFlash.c **** 
 266:Generated_Source\PSoC4/CyFlash.c ****     if ((rowNum < CY_FLASH_NUMBER_ROWS) && (rowData != 0u))
 267:Generated_Source\PSoC4/CyFlash.c ****     {
 268:Generated_Source\PSoC4/CyFlash.c ****         /* Copy data to be written into internal variable */
 269:Generated_Source\PSoC4/CyFlash.c ****         (void)memcpy((void *)&parameters[2u], rowData, CY_FLASH_SIZEOF_ROW);
 270:Generated_Source\PSoC4/CyFlash.c **** 
 271:Generated_Source\PSoC4/CyFlash.c ****         /* Load Flash Bytes */
 272:Generated_Source\PSoC4/CyFlash.c ****         parameters[0u] = (uint32) (CY_FLASH_GET_MACRO_FROM_ROW(rowNum)        << CY_FLASH_PARAM_MAC
 273:Generated_Source\PSoC4/CyFlash.c ****                          (uint32) (CY_FLASH_PAGE_LATCH_START_ADDR             << CY_FLASH_PARAM_ADD
 274:Generated_Source\PSoC4/CyFlash.c ****                          (uint32) (CY_FLASH_KEY_TWO(CY_FLASH_API_OPCODE_LOAD) << CY_FLASH_PARAM_KEY
 275:Generated_Source\PSoC4/CyFlash.c ****                          CY_FLASH_KEY_ONE;
 276:Generated_Source\PSoC4/CyFlash.c ****         parameters[1u] = CY_FLASH_SIZEOF_ROW - 1u;
 277:Generated_Source\PSoC4/CyFlash.c **** 
 278:Generated_Source\PSoC4/CyFlash.c ****         CY_FLASH_CPUSS_SYSARG_REG = (uint32) &parameters[0u];
 279:Generated_Source\PSoC4/CyFlash.c ****         CY_FLASH_CPUSS_SYSREQ_REG = CY_FLASH_CPUSS_REQ_START | CY_FLASH_API_OPCODE_LOAD;
 280:Generated_Source\PSoC4/CyFlash.c ****         CY_NOP;
 281:Generated_Source\PSoC4/CyFlash.c ****         retValue = CY_FLASH_API_RETURN;
 282:Generated_Source\PSoC4/CyFlash.c **** 
 283:Generated_Source\PSoC4/CyFlash.c ****         if(retValue == CY_SYS_FLASH_SUCCESS)
 284:Generated_Source\PSoC4/CyFlash.c ****         {
 285:Generated_Source\PSoC4/CyFlash.c ****             /***************************************************************
 286:Generated_Source\PSoC4/CyFlash.c ****             * Mask all the exceptions to guarantee that Flash write will
 287:Generated_Source\PSoC4/CyFlash.c ****             * occur in the atomic way. It will not affect system call
 288:Generated_Source\PSoC4/CyFlash.c ****             * execution (flash row write) since it is executed in the NMI
 289:Generated_Source\PSoC4/CyFlash.c ****             * context.
 290:Generated_Source\PSoC4/CyFlash.c ****             ***************************************************************/
 291:Generated_Source\PSoC4/CyFlash.c ****             interruptState = CyEnterCriticalSection();
 292:Generated_Source\PSoC4/CyFlash.c **** 
 293:Generated_Source\PSoC4/CyFlash.c ****         #if(CY_IP_SPCIF_SYNCHRONOUS)
 294:Generated_Source\PSoC4/CyFlash.c ****             clkCnfRetValue = CySysFlashClockBackup();
 295:Generated_Source\PSoC4/CyFlash.c ****             
 296:Generated_Source\PSoC4/CyFlash.c ****             if(clkCnfRetValue == CY_SYS_FLASH_SUCCESS)
ARM GAS  C:\Users\Daniela\AppData\Local\Temp\ccm3GHIA.s 			page 59


 297:Generated_Source\PSoC4/CyFlash.c ****             {
 298:Generated_Source\PSoC4/CyFlash.c ****                 retValue = CySysFlashClockConfig();
 299:Generated_Source\PSoC4/CyFlash.c ****             }
 300:Generated_Source\PSoC4/CyFlash.c ****         #else
 301:Generated_Source\PSoC4/CyFlash.c ****             (void)CySysFlashClockBackup();
 302:Generated_Source\PSoC4/CyFlash.c ****         #endif  /* (CY_IP_SPCIF_SYNCHRONOUS) */
 303:Generated_Source\PSoC4/CyFlash.c **** 
 304:Generated_Source\PSoC4/CyFlash.c ****             if(retValue == CY_SYS_FLASH_SUCCESS)
 305:Generated_Source\PSoC4/CyFlash.c ****             {
 306:Generated_Source\PSoC4/CyFlash.c ****                 /* Non-blocking Write Row */
 307:Generated_Source\PSoC4/CyFlash.c ****                 parameters[0u]  = (uint32) (((uint32) CY_FLASH_KEY_TWO(CY_FLASH_API_OPCODE_NON_BLOC
 308:Generated_Source\PSoC4/CyFlash.c ****                                                         CY_FLASH_PARAM_KEY_TWO_OFFSET) | CY_FLASH_K
 309:Generated_Source\PSoC4/CyFlash.c ****                 parameters[0u] |= (uint32)(rowNum << 16u);
 310:Generated_Source\PSoC4/CyFlash.c **** 
 311:Generated_Source\PSoC4/CyFlash.c ****                 CY_FLASH_CPUSS_SYSARG_REG = (uint32) &parameters[0u];
 312:Generated_Source\PSoC4/CyFlash.c ****                 CY_FLASH_CPUSS_SYSREQ_REG = CY_FLASH_CPUSS_REQ_START | CY_FLASH_API_OPCODE_NON_BLOC
 313:Generated_Source\PSoC4/CyFlash.c ****                 CY_NOP;
 314:Generated_Source\PSoC4/CyFlash.c ****                 retValue = CY_FLASH_API_RETURN;
 315:Generated_Source\PSoC4/CyFlash.c ****             }
 316:Generated_Source\PSoC4/CyFlash.c **** 
 317:Generated_Source\PSoC4/CyFlash.c ****             CyExitCriticalSection(interruptState);
 318:Generated_Source\PSoC4/CyFlash.c ****         }
 319:Generated_Source\PSoC4/CyFlash.c ****     }
 320:Generated_Source\PSoC4/CyFlash.c ****     else
 321:Generated_Source\PSoC4/CyFlash.c ****     {
 322:Generated_Source\PSoC4/CyFlash.c ****         retValue = CY_SYS_FLASH_INVALID_ADDR;
 323:Generated_Source\PSoC4/CyFlash.c ****     }
 324:Generated_Source\PSoC4/CyFlash.c **** 
 325:Generated_Source\PSoC4/CyFlash.c ****     return (retValue);
 326:Generated_Source\PSoC4/CyFlash.c **** }
 327:Generated_Source\PSoC4/CyFlash.c **** 
 328:Generated_Source\PSoC4/CyFlash.c **** 
 329:Generated_Source\PSoC4/CyFlash.c **** /*******************************************************************************
 330:Generated_Source\PSoC4/CyFlash.c **** * Function Name: CySysFlashGetWriteRowStatus
 331:Generated_Source\PSoC4/CyFlash.c **** ****************************************************************************//**
 332:Generated_Source\PSoC4/CyFlash.c **** *
 333:Generated_Source\PSoC4/CyFlash.c **** * Returns the current status of the flash write operation.
 334:Generated_Source\PSoC4/CyFlash.c **** *
 335:Generated_Source\PSoC4/CyFlash.c **** ** \note The non-blocking operation does not return success status 
 336:Generated_Source\PSoC4/CyFlash.c **** * CY_SYS_FLASH_SUCCESS until the last \ref CySysFlashResumeWriteRow API 
 337:Generated_Source\PSoC4/CyFlash.c **** * is complete. The CPUSS_SYSARG register will be reflecting the SRAM address 
 338:Generated_Source\PSoC4/CyFlash.c **** * during an ongoing non-blocking operation.
 339:Generated_Source\PSoC4/CyFlash.c **** * Calling this API before starting a non-blocking write row operation 
 340:Generated_Source\PSoC4/CyFlash.c **** * using the \ref CySysFlashStartWriteRow() API will cause improper operation.
 341:Generated_Source\PSoC4/CyFlash.c **** *
 342:Generated_Source\PSoC4/CyFlash.c **** * \return \ref group_flash_status_codes
 343:Generated_Source\PSoC4/CyFlash.c **** *
 344:Generated_Source\PSoC4/CyFlash.c **** *******************************************************************************/
 345:Generated_Source\PSoC4/CyFlash.c **** uint32 CySysFlashGetWriteRowStatus(void)
 346:Generated_Source\PSoC4/CyFlash.c **** {
 347:Generated_Source\PSoC4/CyFlash.c ****     volatile uint32 retValue = CY_SYS_FLASH_SUCCESS;
 348:Generated_Source\PSoC4/CyFlash.c **** 
 349:Generated_Source\PSoC4/CyFlash.c ****     CY_NOP;
 350:Generated_Source\PSoC4/CyFlash.c ****     retValue = CY_FLASH_API_RETURN;
 351:Generated_Source\PSoC4/CyFlash.c **** 
 352:Generated_Source\PSoC4/CyFlash.c ****     (void) CySysFlashClockRestore();
 353:Generated_Source\PSoC4/CyFlash.c **** 
ARM GAS  C:\Users\Daniela\AppData\Local\Temp\ccm3GHIA.s 			page 60


 354:Generated_Source\PSoC4/CyFlash.c ****     return (retValue);
 355:Generated_Source\PSoC4/CyFlash.c **** }
 356:Generated_Source\PSoC4/CyFlash.c **** 
 357:Generated_Source\PSoC4/CyFlash.c **** 
 358:Generated_Source\PSoC4/CyFlash.c **** /*******************************************************************************
 359:Generated_Source\PSoC4/CyFlash.c **** * Function Name: CySysFlashResumeWriteRow
 360:Generated_Source\PSoC4/CyFlash.c **** ****************************************************************************//**
 361:Generated_Source\PSoC4/CyFlash.c **** *
 362:Generated_Source\PSoC4/CyFlash.c **** * This API must be called, once the SPC interrupt is triggered to complete the
 363:Generated_Source\PSoC4/CyFlash.c **** * non-blocking operation. It is advised not to prolong calling this API for
 364:Generated_Source\PSoC4/CyFlash.c **** * more than 25 ms.
 365:Generated_Source\PSoC4/CyFlash.c **** *
 366:Generated_Source\PSoC4/CyFlash.c **** * The non-blocking write row API \ref CySysFlashStartWriteRow() requires that
 367:Generated_Source\PSoC4/CyFlash.c **** * this API be called 3 times to complete the write. This can be done by
 368:Generated_Source\PSoC4/CyFlash.c **** * configuring SPCIF interrupt and placing a call to this API.
 369:Generated_Source\PSoC4/CyFlash.c **** *
 370:Generated_Source\PSoC4/CyFlash.c **** * For CM0 based device, a non-blocking call to program a row of macro 0
 371:Generated_Source\PSoC4/CyFlash.c **** * requires the user to set the CPUSS_CONFIG.VECS_IN_RAM bit so that the
 372:Generated_Source\PSoC4/CyFlash.c **** * interrupt vector for the SPC is fetched from the SRAM rather than the FLASH.
 373:Generated_Source\PSoC4/CyFlash.c **** *
 374:Generated_Source\PSoC4/CyFlash.c **** * For CM0+ based device, if the user wants to keep the vector table in flash
 375:Generated_Source\PSoC4/CyFlash.c **** * when performing non-blocking flash write then they need to make sure the
 376:Generated_Source\PSoC4/CyFlash.c **** * vector table is placed in the flash macro which is not getting programmed by
 377:Generated_Source\PSoC4/CyFlash.c **** * configuring the VTOR register.
 378:Generated_Source\PSoC4/CyFlash.c **** *
 379:Generated_Source\PSoC4/CyFlash.c **** * \note The non-blocking operation does not return success status 
 380:Generated_Source\PSoC4/CyFlash.c **** * CY_SYS_FLASH_SUCCESS until the last Resume API is complete. 
 381:Generated_Source\PSoC4/CyFlash.c **** * The CPUSS_SYSARG register will be reflecting the SRAM address during an 
 382:Generated_Source\PSoC4/CyFlash.c **** * ongoing non-blocking operation.
 383:Generated_Source\PSoC4/CyFlash.c **** *
 384:Generated_Source\PSoC4/CyFlash.c **** * \return \ref group_flash_status_codes
 385:Generated_Source\PSoC4/CyFlash.c **** *
 386:Generated_Source\PSoC4/CyFlash.c **** *******************************************************************************/
 387:Generated_Source\PSoC4/CyFlash.c **** uint32 CySysFlashResumeWriteRow(void)
 388:Generated_Source\PSoC4/CyFlash.c **** {
 389:Generated_Source\PSoC4/CyFlash.c ****     volatile uint32 retValue = CY_SYS_FLASH_SUCCESS;
 390:Generated_Source\PSoC4/CyFlash.c ****     static volatile uint32 parameters[1u];
 391:Generated_Source\PSoC4/CyFlash.c **** 
 392:Generated_Source\PSoC4/CyFlash.c ****     /* Resume */
 393:Generated_Source\PSoC4/CyFlash.c ****     parameters[0u] = (uint32) (((uint32) CY_FLASH_KEY_TWO(CY_FLASH_API_OPCODE_RESUME_NON_BLOCKING) 
 394:Generated_Source\PSoC4/CyFlash.c ****                                          CY_FLASH_PARAM_KEY_TWO_OFFSET) | CY_FLASH_KEY_ONE);
 395:Generated_Source\PSoC4/CyFlash.c ****     CY_FLASH_CPUSS_SYSARG_REG = (uint32) &parameters[0u];
 396:Generated_Source\PSoC4/CyFlash.c ****     CY_FLASH_CPUSS_SYSREQ_REG = CY_FLASH_CPUSS_REQ_START | CY_FLASH_API_OPCODE_RESUME_NON_BLOCKING;
 397:Generated_Source\PSoC4/CyFlash.c ****     
 398:Generated_Source\PSoC4/CyFlash.c ****     CY_NOP;
 399:Generated_Source\PSoC4/CyFlash.c ****     retValue = CY_FLASH_API_RETURN;
 400:Generated_Source\PSoC4/CyFlash.c ****     
 401:Generated_Source\PSoC4/CyFlash.c ****     return (retValue);
 402:Generated_Source\PSoC4/CyFlash.c **** }
 403:Generated_Source\PSoC4/CyFlash.c **** 
 404:Generated_Source\PSoC4/CyFlash.c **** #endif /* (CY_IP_FLASH_PARALLEL_PGM_EN && (CY_IP_FLASH_MACROS > 1u)) */
 405:Generated_Source\PSoC4/CyFlash.c **** 
 406:Generated_Source\PSoC4/CyFlash.c **** 
 407:Generated_Source\PSoC4/CyFlash.c **** /*******************************************************************************
 408:Generated_Source\PSoC4/CyFlash.c **** * Function Name: CySysFlashSetWaitCycles
 409:Generated_Source\PSoC4/CyFlash.c **** ****************************************************************************//**
 410:Generated_Source\PSoC4/CyFlash.c **** *
ARM GAS  C:\Users\Daniela\AppData\Local\Temp\ccm3GHIA.s 			page 61


 411:Generated_Source\PSoC4/CyFlash.c **** * Sets the number of clock cycles the cache will wait before it samples data
 412:Generated_Source\PSoC4/CyFlash.c **** * coming back from Flash. This function must be called before increasing the
 413:Generated_Source\PSoC4/CyFlash.c **** * SYSCLK clock frequency. It can optionally be called after lowering SYSCLK
 414:Generated_Source\PSoC4/CyFlash.c **** * clock frequency in order to improve the CPU performance.
 415:Generated_Source\PSoC4/CyFlash.c **** *
 416:Generated_Source\PSoC4/CyFlash.c **** * \param freq The System clock frequency in MHz.
 417:Generated_Source\PSoC4/CyFlash.c **** *
 418:Generated_Source\PSoC4/CyFlash.c **** * \note Invalid frequency will be ignored in Release mode and the CPU will be
 419:Generated_Source\PSoC4/CyFlash.c **** * halted if project is compiled in Debug mode.
 420:Generated_Source\PSoC4/CyFlash.c **** *
 421:Generated_Source\PSoC4/CyFlash.c **** *******************************************************************************/
 422:Generated_Source\PSoC4/CyFlash.c **** void CySysFlashSetWaitCycles(uint32 freq)
 423:Generated_Source\PSoC4/CyFlash.c **** {
 424:Generated_Source\PSoC4/CyFlash.c ****     uint8  interruptState;
 425:Generated_Source\PSoC4/CyFlash.c **** 
 426:Generated_Source\PSoC4/CyFlash.c ****     interruptState = CyEnterCriticalSection();
 427:Generated_Source\PSoC4/CyFlash.c **** 
 428:Generated_Source\PSoC4/CyFlash.c ****     #if (CY_IP_CPUSS)
 429:Generated_Source\PSoC4/CyFlash.c **** 
 430:Generated_Source\PSoC4/CyFlash.c ****         if ( freq <= CY_FLASH_SYSCLK_BOUNDARY_MHZ )
 431:Generated_Source\PSoC4/CyFlash.c ****         {
 432:Generated_Source\PSoC4/CyFlash.c ****             CY_SYS_CLK_SELECT_REG &= (uint32)(~CY_FLASH_WAIT_STATE_EN);
 433:Generated_Source\PSoC4/CyFlash.c ****         }
 434:Generated_Source\PSoC4/CyFlash.c ****         else
 435:Generated_Source\PSoC4/CyFlash.c ****         {
 436:Generated_Source\PSoC4/CyFlash.c ****             CY_SYS_CLK_SELECT_REG |= CY_FLASH_WAIT_STATE_EN;
 437:Generated_Source\PSoC4/CyFlash.c ****         }
 438:Generated_Source\PSoC4/CyFlash.c ****     #else
 439:Generated_Source\PSoC4/CyFlash.c ****         #if (CY_IP_CPUSS_FLASHC_PRESENT)
 440:Generated_Source\PSoC4/CyFlash.c ****             /* CY_IP_FM and CY_IP_FS */
 441:Generated_Source\PSoC4/CyFlash.c ****             if (freq <= CY_FLASH_CTL_WS_0_FREQ_MAX)
 442:Generated_Source\PSoC4/CyFlash.c ****             {
 443:Generated_Source\PSoC4/CyFlash.c ****                 CY_FLASH_CTL_REG = (CY_FLASH_CTL_REG & ~CY_FLASH_CTL_WS_MASK) | CY_FLASH_CTL_WS_0_V
 444:Generated_Source\PSoC4/CyFlash.c ****             } else
 445:Generated_Source\PSoC4/CyFlash.c ****             if (freq <= CY_FLASH_CTL_WS_1_FREQ_MAX)
 446:Generated_Source\PSoC4/CyFlash.c ****             {
 447:Generated_Source\PSoC4/CyFlash.c ****                 CY_FLASH_CTL_REG = (CY_FLASH_CTL_REG & ~CY_FLASH_CTL_WS_MASK) | CY_FLASH_CTL_WS_1_V
 448:Generated_Source\PSoC4/CyFlash.c ****             } else
 449:Generated_Source\PSoC4/CyFlash.c ****             #if (CY_IP_FMLT || CY_IP_FSLT)
 450:Generated_Source\PSoC4/CyFlash.c ****                 if (freq <= CY_FLASH_CTL_WS_2_FREQ_MAX)
 451:Generated_Source\PSoC4/CyFlash.c ****                 {
 452:Generated_Source\PSoC4/CyFlash.c ****                     CY_FLASH_CTL_REG = (CY_FLASH_CTL_REG & ~CY_FLASH_CTL_WS_MASK) | CY_FLASH_CTL_WS
 453:Generated_Source\PSoC4/CyFlash.c ****                 }
 454:Generated_Source\PSoC4/CyFlash.c ****                 else
 455:Generated_Source\PSoC4/CyFlash.c ****             #endif  /* (CY_IP_FMLT || CY_IP_FSLT) */
 456:Generated_Source\PSoC4/CyFlash.c ****         #endif /* (CY_IP_CPUSS_FLASHC_PRESENT) */
 457:Generated_Source\PSoC4/CyFlash.c ****         {
 458:Generated_Source\PSoC4/CyFlash.c ****             /* Halt CPU in debug mode if frequency is invalid */
 459:Generated_Source\PSoC4/CyFlash.c ****             CYASSERT(0u != 0u);
 460:Generated_Source\PSoC4/CyFlash.c ****         }
 461:Generated_Source\PSoC4/CyFlash.c **** 
 462:Generated_Source\PSoC4/CyFlash.c ****     #endif  /* (CY_IP_CPUSS) */
 463:Generated_Source\PSoC4/CyFlash.c **** 
 464:Generated_Source\PSoC4/CyFlash.c ****     CyExitCriticalSection(interruptState);
 465:Generated_Source\PSoC4/CyFlash.c **** }
 466:Generated_Source\PSoC4/CyFlash.c **** 
 467:Generated_Source\PSoC4/CyFlash.c **** 
ARM GAS  C:\Users\Daniela\AppData\Local\Temp\ccm3GHIA.s 			page 62


 468:Generated_Source\PSoC4/CyFlash.c **** #if (CY_SFLASH_XTRA_ROWS)
 469:Generated_Source\PSoC4/CyFlash.c **** /*******************************************************************************
 470:Generated_Source\PSoC4/CyFlash.c **** * Function Name: CySysSFlashWriteUserRow
 471:Generated_Source\PSoC4/CyFlash.c **** ****************************************************************************//**
 472:Generated_Source\PSoC4/CyFlash.c **** *
 473:Generated_Source\PSoC4/CyFlash.c **** * Writes data to a row of SFlash user configurable area.
 474:Generated_Source\PSoC4/CyFlash.c **** *
 475:Generated_Source\PSoC4/CyFlash.c **** * This API is applicable for PSoC 4100 BLE, PSoC 4200 BLE, PSoC 4100M,
 476:Generated_Source\PSoC4/CyFlash.c **** * PSoC 4200M, and PSoC 4200L family of devices.
 477:Generated_Source\PSoC4/CyFlash.c **** *
 478:Generated_Source\PSoC4/CyFlash.c **** * \param rowNum The flash row number. The flash row number. The number of the
 479:Generated_Source\PSoC4/CyFlash.c **** * flash rows is defined by the CY_SFLASH_NUMBER_USERROWS macro for the selected
 480:Generated_Source\PSoC4/CyFlash.c **** * device. Valid range is 0-3. Refer to the device TRM for details.
 481:Generated_Source\PSoC4/CyFlash.c **** *
 482:Generated_Source\PSoC4/CyFlash.c **** * \param rowData Array of bytes to write. The size of the array must be equal to
 483:Generated_Source\PSoC4/CyFlash.c **** * the flash row size. The flash row size for the selected device is defined by
 484:Generated_Source\PSoC4/CyFlash.c **** * the \ref CY_SFLASH_SIZEOF_USERROW macro. Refer to the device TRM for the
 485:Generated_Source\PSoC4/CyFlash.c **** * details.
 486:Generated_Source\PSoC4/CyFlash.c **** *
 487:Generated_Source\PSoC4/CyFlash.c **** * \return \ref group_flash_status_codes
 488:Generated_Source\PSoC4/CyFlash.c **** *
 489:Generated_Source\PSoC4/CyFlash.c **** *******************************************************************************/
 490:Generated_Source\PSoC4/CyFlash.c **** uint32 CySysSFlashWriteUserRow(uint32 rowNum, const uint8 rowData[])
 491:Generated_Source\PSoC4/CyFlash.c **** {
 492:Generated_Source\PSoC4/CyFlash.c ****     volatile uint32 retValue = CY_SYS_FLASH_SUCCESS;
 493:Generated_Source\PSoC4/CyFlash.c ****     volatile uint32 clkCnfRetValue = CY_SYS_FLASH_SUCCESS;
 494:Generated_Source\PSoC4/CyFlash.c ****     volatile uint32 parameters[(CY_FLASH_SIZEOF_ROW + CY_FLASH_SRAM_ROM_DATA)/4u];
 495:Generated_Source\PSoC4/CyFlash.c ****     uint8  interruptState;
 496:Generated_Source\PSoC4/CyFlash.c **** 
 497:Generated_Source\PSoC4/CyFlash.c **** 
 498:Generated_Source\PSoC4/CyFlash.c ****     if ((rowNum < CY_SFLASH_NUMBER_USERROWS) && (rowData != 0u))
 499:Generated_Source\PSoC4/CyFlash.c ****     {
 500:Generated_Source\PSoC4/CyFlash.c ****         /* Load Flash Bytes */
 501:Generated_Source\PSoC4/CyFlash.c ****         parameters[0u] = (uint32) (CY_FLASH_GET_MACRO_FROM_ROW(rowNum)        << CY_FLASH_PARAM_MAC
 502:Generated_Source\PSoC4/CyFlash.c ****                          (uint32) (CY_FLASH_PAGE_LATCH_START_ADDR             << CY_FLASH_PARAM_ADD
 503:Generated_Source\PSoC4/CyFlash.c ****                          (uint32) (CY_FLASH_KEY_TWO(CY_FLASH_API_OPCODE_LOAD) << CY_FLASH_PARAM_KEY
 504:Generated_Source\PSoC4/CyFlash.c ****                          CY_FLASH_KEY_ONE;
 505:Generated_Source\PSoC4/CyFlash.c ****         parameters[1u] = CY_FLASH_SIZEOF_ROW - 1u;
 506:Generated_Source\PSoC4/CyFlash.c **** 
 507:Generated_Source\PSoC4/CyFlash.c ****         (void)memcpy((void *)&parameters[2u], rowData, CY_FLASH_SIZEOF_ROW);
 508:Generated_Source\PSoC4/CyFlash.c ****         CY_FLASH_CPUSS_SYSARG_REG = (uint32) &parameters[0u];
 509:Generated_Source\PSoC4/CyFlash.c ****         CY_FLASH_CPUSS_SYSREQ_REG = CY_FLASH_CPUSS_REQ_START | CY_FLASH_API_OPCODE_LOAD;
 510:Generated_Source\PSoC4/CyFlash.c ****         CY_NOP;
 511:Generated_Source\PSoC4/CyFlash.c ****         retValue = CY_FLASH_API_RETURN;
 512:Generated_Source\PSoC4/CyFlash.c **** 
 513:Generated_Source\PSoC4/CyFlash.c ****         if(retValue == CY_SYS_FLASH_SUCCESS)
 514:Generated_Source\PSoC4/CyFlash.c ****         {
 515:Generated_Source\PSoC4/CyFlash.c ****             /***************************************************************
 516:Generated_Source\PSoC4/CyFlash.c ****             * Mask all the exceptions to guarantee that Flash write will
 517:Generated_Source\PSoC4/CyFlash.c ****             * occur in the atomic way. It will not affect system call
 518:Generated_Source\PSoC4/CyFlash.c ****             * execution (flash row write) since it is executed in the NMI
 519:Generated_Source\PSoC4/CyFlash.c ****             * context.
 520:Generated_Source\PSoC4/CyFlash.c ****             ***************************************************************/
 521:Generated_Source\PSoC4/CyFlash.c ****             interruptState = CyEnterCriticalSection();
 522:Generated_Source\PSoC4/CyFlash.c **** 
 523:Generated_Source\PSoC4/CyFlash.c ****             clkCnfRetValue = CySysFlashClockBackup();
 524:Generated_Source\PSoC4/CyFlash.c **** 
ARM GAS  C:\Users\Daniela\AppData\Local\Temp\ccm3GHIA.s 			page 63


 525:Generated_Source\PSoC4/CyFlash.c ****         #if(CY_IP_SPCIF_SYNCHRONOUS)
 526:Generated_Source\PSoC4/CyFlash.c ****             if(clkCnfRetValue == CY_SYS_FLASH_SUCCESS)
 527:Generated_Source\PSoC4/CyFlash.c ****             {
 528:Generated_Source\PSoC4/CyFlash.c ****                 retValue = CySysFlashClockConfig();
 529:Generated_Source\PSoC4/CyFlash.c ****             }
 530:Generated_Source\PSoC4/CyFlash.c ****         #endif  /* (CY_IP_SPCIF_SYNCHRONOUS) */
 531:Generated_Source\PSoC4/CyFlash.c **** 
 532:Generated_Source\PSoC4/CyFlash.c ****             if(retValue == CY_SYS_FLASH_SUCCESS)
 533:Generated_Source\PSoC4/CyFlash.c ****             {
 534:Generated_Source\PSoC4/CyFlash.c ****                 /* Write User Sflash Row */
 535:Generated_Source\PSoC4/CyFlash.c ****                 parameters[0u]  = (uint32) (((uint32) CY_FLASH_KEY_TWO(CY_FLASH_API_OPCODE_WRITE_SF
 536:Generated_Source\PSoC4/CyFlash.c ****                 parameters[1u] = (uint32) rowNum;
 537:Generated_Source\PSoC4/CyFlash.c **** 
 538:Generated_Source\PSoC4/CyFlash.c ****                 CY_FLASH_CPUSS_SYSARG_REG = (uint32) &parameters[0u];
 539:Generated_Source\PSoC4/CyFlash.c ****                 CY_FLASH_CPUSS_SYSREQ_REG = CY_FLASH_CPUSS_REQ_START | CY_FLASH_API_OPCODE_WRITE_SF
 540:Generated_Source\PSoC4/CyFlash.c ****                 CY_NOP;
 541:Generated_Source\PSoC4/CyFlash.c ****                 retValue = CY_FLASH_API_RETURN;
 542:Generated_Source\PSoC4/CyFlash.c ****             }
 543:Generated_Source\PSoC4/CyFlash.c **** 
 544:Generated_Source\PSoC4/CyFlash.c ****             if(clkCnfRetValue == CY_SYS_FLASH_SUCCESS)
 545:Generated_Source\PSoC4/CyFlash.c ****             {
 546:Generated_Source\PSoC4/CyFlash.c ****                 clkCnfRetValue = CySysFlashClockRestore();
 547:Generated_Source\PSoC4/CyFlash.c ****             }
 548:Generated_Source\PSoC4/CyFlash.c ****             CyExitCriticalSection(interruptState);
 549:Generated_Source\PSoC4/CyFlash.c ****         }
 550:Generated_Source\PSoC4/CyFlash.c ****     }
 551:Generated_Source\PSoC4/CyFlash.c ****     else
 552:Generated_Source\PSoC4/CyFlash.c ****     {
 553:Generated_Source\PSoC4/CyFlash.c ****         retValue = CY_SYS_FLASH_INVALID_ADDR;
 554:Generated_Source\PSoC4/CyFlash.c ****     }
 555:Generated_Source\PSoC4/CyFlash.c **** 
 556:Generated_Source\PSoC4/CyFlash.c ****     return (retValue);
 557:Generated_Source\PSoC4/CyFlash.c **** }
 558:Generated_Source\PSoC4/CyFlash.c **** #endif /* (CY_SFLASH_XTRA_ROWS) */
 559:Generated_Source\PSoC4/CyFlash.c **** 
 560:Generated_Source\PSoC4/CyFlash.c **** 
 561:Generated_Source\PSoC4/CyFlash.c **** /*******************************************************************************
 562:Generated_Source\PSoC4/CyFlash.c **** * Function Name: CySysFlashClockBackup
 563:Generated_Source\PSoC4/CyFlash.c **** ****************************************************************************//**
 564:Generated_Source\PSoC4/CyFlash.c **** *
 565:Generated_Source\PSoC4/CyFlash.c **** * Backups the device clock configuration.
 566:Generated_Source\PSoC4/CyFlash.c **** *
 567:Generated_Source\PSoC4/CyFlash.c **** * \return The same as \ref CySysFlashWriteRow().
 568:Generated_Source\PSoC4/CyFlash.c **** *
 569:Generated_Source\PSoC4/CyFlash.c **** *******************************************************************************/
 570:Generated_Source\PSoC4/CyFlash.c **** static cystatus CySysFlashClockBackup(void)
 571:Generated_Source\PSoC4/CyFlash.c **** {
 572:Generated_Source\PSoC4/CyFlash.c ****     cystatus retValue = CY_SYS_FLASH_SUCCESS;
 573:Generated_Source\PSoC4/CyFlash.c **** #if(!CY_IP_FM)
 574:Generated_Source\PSoC4/CyFlash.c ****     #if !(CY_PSOC4_4000)
 575:Generated_Source\PSoC4/CyFlash.c ****         #if (CY_IP_SPCIF_SYNCHRONOUS)
 576:Generated_Source\PSoC4/CyFlash.c ****             volatile uint32   parameters[2u];
 577:Generated_Source\PSoC4/CyFlash.c ****         #endif /* (CY_IP_SPCIF_SYNCHRONOUS) */
 578:Generated_Source\PSoC4/CyFlash.c ****     #endif  /* !(CY_PSOC4_4000) */
 579:Generated_Source\PSoC4/CyFlash.c **** #endif  /* (!CY_IP_FM) */
 580:Generated_Source\PSoC4/CyFlash.c **** 
 581:Generated_Source\PSoC4/CyFlash.c **** #if(CY_IP_FM)
ARM GAS  C:\Users\Daniela\AppData\Local\Temp\ccm3GHIA.s 			page 64


 582:Generated_Source\PSoC4/CyFlash.c **** 
 583:Generated_Source\PSoC4/CyFlash.c ****     /***************************************************************
 584:Generated_Source\PSoC4/CyFlash.c ****     * Preserve IMO configuration that could be changed during
 585:Generated_Source\PSoC4/CyFlash.c ****     * system call execution (Cypress ID #150448).
 586:Generated_Source\PSoC4/CyFlash.c ****     ***************************************************************/
 587:Generated_Source\PSoC4/CyFlash.c ****     cySysFlashBackup.imoConfigReg = CY_SYS_CLK_IMO_CONFIG_REG;
 588:Generated_Source\PSoC4/CyFlash.c **** 
 589:Generated_Source\PSoC4/CyFlash.c **** #else   /* (CY_IP_FMLT) */
 590:Generated_Source\PSoC4/CyFlash.c **** 
 591:Generated_Source\PSoC4/CyFlash.c ****     #if (CY_PSOC4_4000)
 592:Generated_Source\PSoC4/CyFlash.c **** 
 593:Generated_Source\PSoC4/CyFlash.c ****         /***************************************************************************
 594:Generated_Source\PSoC4/CyFlash.c ****         * Perform firmware clock settings backup for the PSOC4 4000 devices (the
 595:Generated_Source\PSoC4/CyFlash.c ****         * corresponding system call is not available).
 596:Generated_Source\PSoC4/CyFlash.c ****         ***************************************************************************/
 597:Generated_Source\PSoC4/CyFlash.c **** 
 598:Generated_Source\PSoC4/CyFlash.c ****         /***************************************************************************
 599:Generated_Source\PSoC4/CyFlash.c ****         * The registers listed below are modified by CySysFlashClockConfig().
 600:Generated_Source\PSoC4/CyFlash.c ****         *
 601:Generated_Source\PSoC4/CyFlash.c ****         * The registers to be saved:
 602:Generated_Source\PSoC4/CyFlash.c ****         * - CY_SYS_CLK_IMO_CONFIG_REG - IMO enable state.
 603:Generated_Source\PSoC4/CyFlash.c ****         * - CY_SYS_CLK_SELECT_REG     - HFCLK source, divider, pump source. Save
 604:Generated_Source\PSoC4/CyFlash.c ****         *                               entire register as it can be directly
 605:Generated_Source\PSoC4/CyFlash.c ****         *                               written on restore (no special
 606:Generated_Source\PSoC4/CyFlash.c ****         *                               requirements).
 607:Generated_Source\PSoC4/CyFlash.c ****         * - CY_SYS_CLK_IMO_SELECT_REG - Save IMO frequency.
 608:Generated_Source\PSoC4/CyFlash.c ****         *
 609:Generated_Source\PSoC4/CyFlash.c ****         * The registers not to be saved:
 610:Generated_Source\PSoC4/CyFlash.c ****         * - CY_SYS_CLK_IMO_TRIM1_REG  - No need to save. Function of frequency.
 611:Generated_Source\PSoC4/CyFlash.c ****         *                               Restored by CySysClkWriteImoFreq().
 612:Generated_Source\PSoC4/CyFlash.c ****         * - CY_SYS_CLK_IMO_TRIM3_REG  - No need to save. Function of frequency.
 613:Generated_Source\PSoC4/CyFlash.c ****         *                               Restored by CySysClkWriteImoFreq().
 614:Generated_Source\PSoC4/CyFlash.c ****         * - REG_CPUSS_FLASH_CTL       - Flash wait cycles. Unmodified due to system
 615:Generated_Source\PSoC4/CyFlash.c ****         *                               clock 16 MHz limit.
 616:Generated_Source\PSoC4/CyFlash.c ****         ***************************************************************************/
 617:Generated_Source\PSoC4/CyFlash.c **** 
 618:Generated_Source\PSoC4/CyFlash.c ****         cySysFlashBackup.clkSelectReg = CY_SYS_CLK_SELECT_REG;
 619:Generated_Source\PSoC4/CyFlash.c ****         cySysFlashBackup.clkImoEna    = CY_SYS_CLK_IMO_CONFIG_REG & CY_SYS_CLK_IMO_CONFIG_ENABLE;
 620:Generated_Source\PSoC4/CyFlash.c ****         cySysFlashBackup.clkImoFreq   = CY_SYS_CLK_IMO_MIN_FREQ_MHZ + (CY_SYS_CLK_IMO_SELECT_REG <<
 621:Generated_Source\PSoC4/CyFlash.c **** 
 622:Generated_Source\PSoC4/CyFlash.c ****     #else
 623:Generated_Source\PSoC4/CyFlash.c **** 
 624:Generated_Source\PSoC4/CyFlash.c ****         #if (CY_IP_SPCIF_SYNCHRONOUS)
 625:Generated_Source\PSoC4/CyFlash.c ****             /* FM-Lite Clock Backup System Call */
 626:Generated_Source\PSoC4/CyFlash.c ****             parameters[0u] =
 785              		.loc 1 626 0
 786 0062 444B     		ldr	r3, .L38+24
 627:Generated_Source\PSoC4/CyFlash.c ****                 (uint32) ((CY_FLASH_KEY_TWO(CY_FLASH_API_OPCODE_CLK_BACKUP) <<  CY_FLASH_PARAM_KEY_
 628:Generated_Source\PSoC4/CyFlash.c ****                             CY_FLASH_KEY_ONE);
 629:Generated_Source\PSoC4/CyFlash.c ****             parameters[1u] = (uint32) &cySysFlashBackup.clockSettings[0u];
 787              		.loc 1 629 0
 788 0064 444A     		ldr	r2, .L38+28
 626:Generated_Source\PSoC4/CyFlash.c ****                 (uint32) ((CY_FLASH_KEY_TWO(CY_FLASH_API_OPCODE_CLK_BACKUP) <<  CY_FLASH_PARAM_KEY_
 789              		.loc 1 626 0
 790 0066 0293     		str	r3, [sp, #8]
 630:Generated_Source\PSoC4/CyFlash.c ****             CY_FLASH_CPUSS_SYSARG_REG = (uint32) &parameters[0u];
 791              		.loc 1 630 0
ARM GAS  C:\Users\Daniela\AppData\Local\Temp\ccm3GHIA.s 			page 65


 792 0068 3F4B     		ldr	r3, .L38+12
 626:Generated_Source\PSoC4/CyFlash.c ****                 (uint32) ((CY_FLASH_KEY_TWO(CY_FLASH_API_OPCODE_CLK_BACKUP) <<  CY_FLASH_PARAM_KEY_
 793              		.loc 1 626 0
 794 006a 02A9     		add	r1, sp, #8
 629:Generated_Source\PSoC4/CyFlash.c ****             CY_FLASH_CPUSS_SYSARG_REG = (uint32) &parameters[0u];
 795              		.loc 1 629 0
 796 006c 0432     		adds	r2, r2, #4
 797 006e 0392     		str	r2, [sp, #12]
 631:Generated_Source\PSoC4/CyFlash.c ****             CY_FLASH_CPUSS_SYSREQ_REG = CY_FLASH_CPUSS_REQ_START | CY_FLASH_API_OPCODE_CLK_BACKUP;
 798              		.loc 1 631 0
 799 0070 424D     		ldr	r5, .L38+32
 630:Generated_Source\PSoC4/CyFlash.c ****             CY_FLASH_CPUSS_SYSARG_REG = (uint32) &parameters[0u];
 800              		.loc 1 630 0
 801 0072 1960     		str	r1, [r3]
 802              		.loc 1 631 0
 803 0074 3E49     		ldr	r1, .L38+20
 804 0076 0D60     		str	r5, [r1]
 632:Generated_Source\PSoC4/CyFlash.c ****             CY_NOP;
 805              		.loc 1 632 0
 806              		.syntax divided
 807              	@ 632 "Generated_Source\PSoC4\CyFlash.c" 1
 808 0078 C046     		NOP
 809              	
 810              	@ 0 "" 2
 633:Generated_Source\PSoC4/CyFlash.c ****             retValue = CY_FLASH_API_RETURN;
 811              		.loc 1 633 0
 812              		.thumb
 813              		.syntax unified
 814 007a 1968     		ldr	r1, [r3]
 815 007c 090F     		lsrs	r1, r1, #28
 816 007e 0F29     		cmp	r1, #15
 817 0080 04D0     		beq	.L32
 818 0082 1968     		ldr	r1, [r3]
 819 0084 090F     		lsrs	r1, r1, #28
 820 0086 0A29     		cmp	r1, #10
 821 0088 00D1     		bne	.LCB96
 822 008a 62E0     		b	.L22	@long jump
 823              	.LCB96:
 824              	.L32:
 825 008c FF21     		movs	r1, #255
 826 008e 1B68     		ldr	r3, [r3]
 827 0090 0B40     		ands	r3, r1
 828              	.L8:
 829              	.LVL4:
 830              	.LBE13:
 831              	.LBE12:
 145:Generated_Source\PSoC4/CyFlash.c **** 
 832              		.loc 1 145 0
 833 0092 0193     		str	r3, [sp, #4]
 148:Generated_Source\PSoC4/CyFlash.c ****             {
 834              		.loc 1 148 0
 835 0094 019B     		ldr	r3, [sp, #4]
 836 0096 002B     		cmp	r3, #0
 837 0098 10D1     		bne	.L9
 838              	.LVL5:
 839              	.LBB15:
 840              	.LBB16:
ARM GAS  C:\Users\Daniela\AppData\Local\Temp\ccm3GHIA.s 			page 66


 634:Generated_Source\PSoC4/CyFlash.c ****         #endif /* (CY_IP_SPCIF_SYNCHRONOUS) */
 635:Generated_Source\PSoC4/CyFlash.c **** 
 636:Generated_Source\PSoC4/CyFlash.c ****     #endif  /* (CY_PSOC4_4000) */
 637:Generated_Source\PSoC4/CyFlash.c **** 
 638:Generated_Source\PSoC4/CyFlash.c **** #endif  /* (CY_IP_FM) */
 639:Generated_Source\PSoC4/CyFlash.c **** 
 640:Generated_Source\PSoC4/CyFlash.c ****     return (retValue);
 641:Generated_Source\PSoC4/CyFlash.c **** }
 642:Generated_Source\PSoC4/CyFlash.c **** 
 643:Generated_Source\PSoC4/CyFlash.c **** 
 644:Generated_Source\PSoC4/CyFlash.c **** #if(CY_IP_SPCIF_SYNCHRONOUS)
 645:Generated_Source\PSoC4/CyFlash.c **** /*******************************************************************************
 646:Generated_Source\PSoC4/CyFlash.c **** * Function Name: CySysFlashClockConfig
 647:Generated_Source\PSoC4/CyFlash.c **** ****************************************************************************//**
 648:Generated_Source\PSoC4/CyFlash.c **** *
 649:Generated_Source\PSoC4/CyFlash.c **** * Configures the device clocks for the flash writing.
 650:Generated_Source\PSoC4/CyFlash.c **** *
 651:Generated_Source\PSoC4/CyFlash.c **** * \return The same as \ref CySysFlashWriteRow().
 652:Generated_Source\PSoC4/CyFlash.c **** *
 653:Generated_Source\PSoC4/CyFlash.c **** *******************************************************************************/
 654:Generated_Source\PSoC4/CyFlash.c **** static cystatus CySysFlashClockConfig(void)
 655:Generated_Source\PSoC4/CyFlash.c **** {
 656:Generated_Source\PSoC4/CyFlash.c ****     cystatus retValue = CY_SYS_FLASH_SUCCESS;
 657:Generated_Source\PSoC4/CyFlash.c **** 
 658:Generated_Source\PSoC4/CyFlash.c ****     /***************************************************************************
 659:Generated_Source\PSoC4/CyFlash.c ****     * The FM-Lite IP uses the IMO at 48MHz for the pump clock and SPC timer
 660:Generated_Source\PSoC4/CyFlash.c ****     * clock. The PUMP_SEL and HF clock must be set to IMO before calling Flash
 661:Generated_Source\PSoC4/CyFlash.c ****     * write or erase operation.
 662:Generated_Source\PSoC4/CyFlash.c ****     ***************************************************************************/
 663:Generated_Source\PSoC4/CyFlash.c **** #if (CY_PSOC4_4000)
 664:Generated_Source\PSoC4/CyFlash.c **** 
 665:Generated_Source\PSoC4/CyFlash.c ****     /***************************************************************************
 666:Generated_Source\PSoC4/CyFlash.c ****     * Perform firmware clock settings setup for the PSOC4 4000 devices (the
 667:Generated_Source\PSoC4/CyFlash.c ****     * corresponding system call is not reliable):
 668:Generated_Source\PSoC4/CyFlash.c ****     * - The IMO frequency should be 48 MHz
 669:Generated_Source\PSoC4/CyFlash.c ****     * - The IMO should be source for the HFCLK
 670:Generated_Source\PSoC4/CyFlash.c ****     * - The IMO should be the source for the charge pump clock
 671:Generated_Source\PSoC4/CyFlash.c ****     *
 672:Generated_Source\PSoC4/CyFlash.c ****     * Note The structure members used below are initialized by
 673:Generated_Source\PSoC4/CyFlash.c ****     * the CySysFlashClockBackup() function.
 674:Generated_Source\PSoC4/CyFlash.c ****     ***************************************************************************/
 675:Generated_Source\PSoC4/CyFlash.c ****     if ((cySysFlashBackup.clkImoFreq != 48u) ||
 676:Generated_Source\PSoC4/CyFlash.c ****         ((cySysFlashBackup.clkSelectReg & CY_SYS_CLK_SELECT_DIRECT_SEL_MASK) != CY_SYS_CLK_HFCLK_IM
 677:Generated_Source\PSoC4/CyFlash.c ****         (((cySysFlashBackup.clkSelectReg >> CY_SYS_CLK_SELECT_PUMP_SEL_SHIFT) & CY_SYS_CLK_SELECT_P
 678:Generated_Source\PSoC4/CyFlash.c ****             CY_SYS_CLK_SELECT_PUMP_SEL_IMO))
 679:Generated_Source\PSoC4/CyFlash.c ****     {
 680:Generated_Source\PSoC4/CyFlash.c ****         /***********************************************************************
 681:Generated_Source\PSoC4/CyFlash.c ****          Set HFCLK divider to divide-by-4 to ensure that System clock frequency
 682:Generated_Source\PSoC4/CyFlash.c ****         * is within the valid limit (16 MHz for the PSoC4 4000).
 683:Generated_Source\PSoC4/CyFlash.c ****         ***********************************************************************/
 684:Generated_Source\PSoC4/CyFlash.c ****         CySysClkWriteHfclkDiv(CY_SYS_CLK_HFCLK_DIV_4);
 685:Generated_Source\PSoC4/CyFlash.c **** 
 686:Generated_Source\PSoC4/CyFlash.c ****         /* The IMO frequency should be 48 MHz */
 687:Generated_Source\PSoC4/CyFlash.c ****         if (cySysFlashBackup.clkImoFreq != 48u)
 688:Generated_Source\PSoC4/CyFlash.c ****         {
 689:Generated_Source\PSoC4/CyFlash.c ****             CySysClkWriteImoFreq(48u);
 690:Generated_Source\PSoC4/CyFlash.c ****         }
ARM GAS  C:\Users\Daniela\AppData\Local\Temp\ccm3GHIA.s 			page 67


 691:Generated_Source\PSoC4/CyFlash.c ****         CySysClkImoStart();
 692:Generated_Source\PSoC4/CyFlash.c **** 
 693:Generated_Source\PSoC4/CyFlash.c ****         /* The IMO should be source for the HFCLK */
 694:Generated_Source\PSoC4/CyFlash.c ****         CySysClkWriteHfclkDirect(CY_SYS_CLK_HFCLK_IMO);
 695:Generated_Source\PSoC4/CyFlash.c **** 
 696:Generated_Source\PSoC4/CyFlash.c ****         /* The IMO should be the source for the charge pump clock */
 697:Generated_Source\PSoC4/CyFlash.c ****         CY_SYS_CLK_SELECT_REG =  (CY_SYS_CLK_SELECT_REG &
 698:Generated_Source\PSoC4/CyFlash.c ****             ((uint32)~(uint32)(CY_SYS_CLK_SELECT_PUMP_SEL_MASK << CY_SYS_CLK_SELECT_PUMP_SEL_SHIFT)
 699:Generated_Source\PSoC4/CyFlash.c ****             ((uint32)((uint32)1u << CY_SYS_CLK_SELECT_PUMP_SEL_SHIFT));
 700:Generated_Source\PSoC4/CyFlash.c ****     }
 701:Generated_Source\PSoC4/CyFlash.c **** 
 702:Generated_Source\PSoC4/CyFlash.c **** #else
 703:Generated_Source\PSoC4/CyFlash.c **** 
 704:Generated_Source\PSoC4/CyFlash.c ****     /* FM-Lite Clock Configuration */
 705:Generated_Source\PSoC4/CyFlash.c ****     CY_FLASH_CPUSS_SYSARG_REG =
 841              		.loc 1 705 0
 842 009a 334B     		ldr	r3, .L38+12
 843 009c 3849     		ldr	r1, .L38+36
 706:Generated_Source\PSoC4/CyFlash.c ****         (uint32) ((CY_FLASH_KEY_TWO(CY_FLASH_API_OPCODE_CLK_CONFIG) <<  CY_FLASH_PARAM_KEY_TWO_OFFS
 707:Generated_Source\PSoC4/CyFlash.c ****                     CY_FLASH_KEY_ONE);
 708:Generated_Source\PSoC4/CyFlash.c ****     CY_FLASH_CPUSS_SYSREQ_REG = CY_FLASH_CPUSS_REQ_START | CY_FLASH_API_OPCODE_CLK_CONFIG;
 844              		.loc 1 708 0
 845 009e 394D     		ldr	r5, .L38+40
 705:Generated_Source\PSoC4/CyFlash.c ****         (uint32) ((CY_FLASH_KEY_TWO(CY_FLASH_API_OPCODE_CLK_CONFIG) <<  CY_FLASH_PARAM_KEY_TWO_OFFS
 846              		.loc 1 705 0
 847 00a0 1960     		str	r1, [r3]
 848              		.loc 1 708 0
 849 00a2 3349     		ldr	r1, .L38+20
 850 00a4 0D60     		str	r5, [r1]
 709:Generated_Source\PSoC4/CyFlash.c ****     CY_NOP;
 851              		.loc 1 709 0
 852              		.syntax divided
 853              	@ 709 "Generated_Source\PSoC4\CyFlash.c" 1
 854 00a6 C046     		NOP
 855              	
 856              	@ 0 "" 2
 710:Generated_Source\PSoC4/CyFlash.c ****     retValue = CY_FLASH_API_RETURN;
 857              		.loc 1 710 0
 858              		.thumb
 859              		.syntax unified
 860 00a8 1968     		ldr	r1, [r3]
 861 00aa 090F     		lsrs	r1, r1, #28
 862 00ac 0F29     		cmp	r1, #15
 863 00ae 2ED0     		beq	.L33
 864 00b0 1968     		ldr	r1, [r3]
 865 00b2 090F     		lsrs	r1, r1, #28
 866 00b4 0A29     		cmp	r1, #10
 867 00b6 2AD1     		bne	.L33
 868 00b8 0023     		movs	r3, #0
 869              	.L11:
 870              	.LVL6:
 871              	.LBE16:
 872              	.LBE15:
 150:Generated_Source\PSoC4/CyFlash.c ****             }
 873              		.loc 1 150 0
 874 00ba 0093     		str	r3, [sp]
 875              	.L9:
ARM GAS  C:\Users\Daniela\AppData\Local\Temp\ccm3GHIA.s 			page 68


 154:Generated_Source\PSoC4/CyFlash.c ****             {
 876              		.loc 1 154 0
 877 00bc 009B     		ldr	r3, [sp]
 878 00be 002B     		cmp	r3, #0
 879 00c0 18D1     		bne	.L12
 157:Generated_Source\PSoC4/CyFlash.c ****                 parameters[0u] |= (uint32)(rowNum << 16u);
 880              		.loc 1 157 0
 881 00c2 3149     		ldr	r1, .L38+44
 158:Generated_Source\PSoC4/CyFlash.c **** 
 882              		.loc 1 158 0
 883 00c4 2404     		lsls	r4, r4, #16
 884              	.LVL7:
 157:Generated_Source\PSoC4/CyFlash.c ****                 parameters[0u] |= (uint32)(rowNum << 16u);
 885              		.loc 1 157 0
 886 00c6 0691     		str	r1, [sp, #24]
 158:Generated_Source\PSoC4/CyFlash.c **** 
 887              		.loc 1 158 0
 888 00c8 0699     		ldr	r1, [sp, #24]
 161:Generated_Source\PSoC4/CyFlash.c ****                 CY_NOP;
 889              		.loc 1 161 0
 890 00ca 304D     		ldr	r5, .L38+48
 158:Generated_Source\PSoC4/CyFlash.c **** 
 891              		.loc 1 158 0
 892 00cc 0C43     		orrs	r4, r1
 160:Generated_Source\PSoC4/CyFlash.c ****                 CY_FLASH_CPUSS_SYSREQ_REG = CY_FLASH_CPUSS_REQ_START | CY_FLASH_API_OPCODE_WRITE_RO
 893              		.loc 1 160 0
 894 00ce 2649     		ldr	r1, .L38+12
 158:Generated_Source\PSoC4/CyFlash.c **** 
 895              		.loc 1 158 0
 896 00d0 0694     		str	r4, [sp, #24]
 160:Generated_Source\PSoC4/CyFlash.c ****                 CY_FLASH_CPUSS_SYSREQ_REG = CY_FLASH_CPUSS_REQ_START | CY_FLASH_API_OPCODE_WRITE_RO
 897              		.loc 1 160 0
 898 00d2 06AC     		add	r4, sp, #24
 899 00d4 0C60     		str	r4, [r1]
 161:Generated_Source\PSoC4/CyFlash.c ****                 CY_NOP;
 900              		.loc 1 161 0
 901 00d6 264C     		ldr	r4, .L38+20
 902 00d8 2560     		str	r5, [r4]
 162:Generated_Source\PSoC4/CyFlash.c ****                 retValue = CY_FLASH_API_RETURN;
 903              		.loc 1 162 0
 904              		.syntax divided
 905              	@ 162 "Generated_Source\PSoC4\CyFlash.c" 1
 906 00da C046     		NOP
 907              	
 908              	@ 0 "" 2
 163:Generated_Source\PSoC4/CyFlash.c ****             }
 909              		.loc 1 163 0
 910              		.thumb
 911              		.syntax unified
 912 00dc 0C68     		ldr	r4, [r1]
 913 00de 240F     		lsrs	r4, r4, #28
 914 00e0 0F2C     		cmp	r4, #15
 915 00e2 03D0     		beq	.L34
 163:Generated_Source\PSoC4/CyFlash.c ****             }
 916              		.loc 1 163 0 is_stmt 0 discriminator 2
 917 00e4 0C68     		ldr	r4, [r1]
 918 00e6 240F     		lsrs	r4, r4, #28
ARM GAS  C:\Users\Daniela\AppData\Local\Temp\ccm3GHIA.s 			page 69


 919 00e8 0A2C     		cmp	r4, #10
 920 00ea 02D0     		beq	.L14
 921              	.L34:
 163:Generated_Source\PSoC4/CyFlash.c ****             }
 922              		.loc 1 163 0 discriminator 4
 923 00ec 0B68     		ldr	r3, [r1]
 924 00ee FF21     		movs	r1, #255
 925 00f0 0B40     		ands	r3, r1
 926              	.L14:
 163:Generated_Source\PSoC4/CyFlash.c ****             }
 927              		.loc 1 163 0 discriminator 8
 928 00f2 0093     		str	r3, [sp]
 929              	.L12:
 202:Generated_Source\PSoC4/CyFlash.c ****             {
 930              		.loc 1 202 0 is_stmt 1
 931 00f4 019B     		ldr	r3, [sp, #4]
 932 00f6 002B     		cmp	r3, #0
 933 00f8 0FD0     		beq	.L37
 934              	.L16:
 212:Generated_Source\PSoC4/CyFlash.c ****         }
 935              		.loc 1 212 0
 936 00fa FFF7FEFF 		bl	CyExitCriticalSection
 937              	.LVL8:
 938 00fe 01E0     		b	.L6
 939              	.LVL9:
 940              	.L2:
 217:Generated_Source\PSoC4/CyFlash.c ****     }
 941              		.loc 1 217 0
 942 0100 0423     		movs	r3, #4
 943 0102 0093     		str	r3, [sp]
 944              	.LVL10:
 945              	.L6:
 220:Generated_Source\PSoC4/CyFlash.c **** }
 946              		.loc 1 220 0
 947 0104 0098     		ldr	r0, [sp]
 221:Generated_Source\PSoC4/CyFlash.c **** 
 948              		.loc 1 221 0
 949 0106 29B0     		add	sp, sp, #164
 950              		@ sp needed
 951 0108 30BD     		pop	{r4, r5, pc}
 952              	.LVL11:
 953              	.L20:
 126:Generated_Source\PSoC4/CyFlash.c ****                          CY_FLASH_KEY_ONE;
 954              		.loc 1 126 0
 955 010a 214B     		ldr	r3, .L38+52
 956 010c 8DE7     		b	.L3
 957              	.LVL12:
 958              	.L33:
 959              	.LBB18:
 960              	.LBB17:
 961              		.loc 1 710 0
 962 010e FF21     		movs	r1, #255
 963 0110 1B68     		ldr	r3, [r3]
 964 0112 0B40     		ands	r3, r1
 965 0114 D1E7     		b	.L11
 966              	.LVL13:
 967              	.L21:
ARM GAS  C:\Users\Daniela\AppData\Local\Temp\ccm3GHIA.s 			page 70


 968              	.LBE17:
 969              	.LBE18:
 133:Generated_Source\PSoC4/CyFlash.c **** 
 970              		.loc 1 133 0
 971 0116 0023     		movs	r3, #0
 972 0118 9DE7     		b	.L5
 973              	.LVL14:
 974              	.L37:
 975              	.LBB19:
 976              	.LBB20:
 711:Generated_Source\PSoC4/CyFlash.c **** 
 712:Generated_Source\PSoC4/CyFlash.c **** #endif  /* (CY_PSOC4_4000) */
 713:Generated_Source\PSoC4/CyFlash.c **** 
 714:Generated_Source\PSoC4/CyFlash.c ****     return (retValue);
 715:Generated_Source\PSoC4/CyFlash.c **** }
 716:Generated_Source\PSoC4/CyFlash.c **** #endif  /* (CY_IP_SPCIF_SYNCHRONOUS) */
 717:Generated_Source\PSoC4/CyFlash.c **** 
 718:Generated_Source\PSoC4/CyFlash.c **** 
 719:Generated_Source\PSoC4/CyFlash.c **** /*******************************************************************************
 720:Generated_Source\PSoC4/CyFlash.c **** * Function Name: CySysFlashClockRestore
 721:Generated_Source\PSoC4/CyFlash.c **** ****************************************************************************//**
 722:Generated_Source\PSoC4/CyFlash.c **** *
 723:Generated_Source\PSoC4/CyFlash.c **** * Restores the device clock configuration.
 724:Generated_Source\PSoC4/CyFlash.c **** *
 725:Generated_Source\PSoC4/CyFlash.c **** * \return The same as \ref CySysFlashWriteRow().
 726:Generated_Source\PSoC4/CyFlash.c **** *
 727:Generated_Source\PSoC4/CyFlash.c **** *******************************************************************************/
 728:Generated_Source\PSoC4/CyFlash.c **** static cystatus CySysFlashClockRestore(void)
 729:Generated_Source\PSoC4/CyFlash.c **** {
 730:Generated_Source\PSoC4/CyFlash.c ****     cystatus retValue = CY_SYS_FLASH_SUCCESS;
 731:Generated_Source\PSoC4/CyFlash.c **** #if(!CY_IP_FM)
 732:Generated_Source\PSoC4/CyFlash.c ****     #if !(CY_PSOC4_4000)
 733:Generated_Source\PSoC4/CyFlash.c ****         #if (CY_IP_SPCIF_SYNCHRONOUS)
 734:Generated_Source\PSoC4/CyFlash.c ****             volatile uint32   parameters[2u];
 735:Generated_Source\PSoC4/CyFlash.c ****         #endif /* (CY_IP_SPCIF_SYNCHRONOUS) */
 736:Generated_Source\PSoC4/CyFlash.c ****     #endif  /* !(CY_PSOC4_4000) */
 737:Generated_Source\PSoC4/CyFlash.c **** #endif  /* (!CY_IP_FM) */
 738:Generated_Source\PSoC4/CyFlash.c **** 
 739:Generated_Source\PSoC4/CyFlash.c **** #if(CY_IP_FM)
 740:Generated_Source\PSoC4/CyFlash.c **** 
 741:Generated_Source\PSoC4/CyFlash.c ****     /***************************************************************
 742:Generated_Source\PSoC4/CyFlash.c ****     * Restore IMO configuration that could be changed during
 743:Generated_Source\PSoC4/CyFlash.c ****     * system call execution (Cypress ID #150448).
 744:Generated_Source\PSoC4/CyFlash.c ****     ***************************************************************/
 745:Generated_Source\PSoC4/CyFlash.c ****     CY_SYS_CLK_IMO_CONFIG_REG = cySysFlashBackup.imoConfigReg;
 746:Generated_Source\PSoC4/CyFlash.c **** 
 747:Generated_Source\PSoC4/CyFlash.c **** #else
 748:Generated_Source\PSoC4/CyFlash.c **** 
 749:Generated_Source\PSoC4/CyFlash.c ****     #if (CY_PSOC4_4000)
 750:Generated_Source\PSoC4/CyFlash.c **** 
 751:Generated_Source\PSoC4/CyFlash.c ****         /***************************************************************************
 752:Generated_Source\PSoC4/CyFlash.c ****         * Perform firmware clock settings restore for the PSOC4 4000 devices (the
 753:Generated_Source\PSoC4/CyFlash.c ****         * corresponding system call is not available).
 754:Generated_Source\PSoC4/CyFlash.c ****         ***************************************************************************/
 755:Generated_Source\PSoC4/CyFlash.c **** 
 756:Generated_Source\PSoC4/CyFlash.c ****         /* Restore clock settings */
 757:Generated_Source\PSoC4/CyFlash.c ****         if ((cySysFlashBackup.clkImoFreq != 48u) ||
ARM GAS  C:\Users\Daniela\AppData\Local\Temp\ccm3GHIA.s 			page 71


 758:Generated_Source\PSoC4/CyFlash.c ****             ((cySysFlashBackup.clkSelectReg & CY_SYS_CLK_SELECT_DIRECT_SEL_MASK) != CY_SYS_CLK_HFCL
 759:Generated_Source\PSoC4/CyFlash.c ****             (((cySysFlashBackup.clkSelectReg >> CY_SYS_CLK_SELECT_PUMP_SEL_SHIFT) & CY_SYS_CLK_SELE
 760:Generated_Source\PSoC4/CyFlash.c ****                 CY_SYS_CLK_SELECT_PUMP_SEL_IMO))
 761:Generated_Source\PSoC4/CyFlash.c ****         {
 762:Generated_Source\PSoC4/CyFlash.c ****             /* Restore IMO frequency if needed */
 763:Generated_Source\PSoC4/CyFlash.c ****             if (cySysFlashBackup.clkImoFreq != 48u)
 764:Generated_Source\PSoC4/CyFlash.c ****             {
 765:Generated_Source\PSoC4/CyFlash.c ****                 CySysClkWriteImoFreq(cySysFlashBackup.clkImoFreq);
 766:Generated_Source\PSoC4/CyFlash.c ****             }
 767:Generated_Source\PSoC4/CyFlash.c **** 
 768:Generated_Source\PSoC4/CyFlash.c ****             /* Restore HFCLK clock source */
 769:Generated_Source\PSoC4/CyFlash.c ****             CySysClkWriteHfclkDirect(cySysFlashBackup.clkSelectReg & CY_SYS_CLK_SELECT_DIRECT_SEL_M
 770:Generated_Source\PSoC4/CyFlash.c **** 
 771:Generated_Source\PSoC4/CyFlash.c ****             /* Restore HFCLK divider and source for pump  */
 772:Generated_Source\PSoC4/CyFlash.c ****             CY_SYS_CLK_SELECT_REG = cySysFlashBackup.clkSelectReg;
 773:Generated_Source\PSoC4/CyFlash.c **** 
 774:Generated_Source\PSoC4/CyFlash.c ****             /* Stop IMO if needed */
 775:Generated_Source\PSoC4/CyFlash.c ****             if (0u == cySysFlashBackup.clkImoEna)
 776:Generated_Source\PSoC4/CyFlash.c ****             {
 777:Generated_Source\PSoC4/CyFlash.c ****                 CySysClkImoStop();
 778:Generated_Source\PSoC4/CyFlash.c ****             }
 779:Generated_Source\PSoC4/CyFlash.c ****         }
 780:Generated_Source\PSoC4/CyFlash.c **** 
 781:Generated_Source\PSoC4/CyFlash.c ****     #else
 782:Generated_Source\PSoC4/CyFlash.c **** 
 783:Generated_Source\PSoC4/CyFlash.c ****         #if (CY_IP_SPCIF_SYNCHRONOUS)
 784:Generated_Source\PSoC4/CyFlash.c ****             /* FM-Lite Clock Restore */
 785:Generated_Source\PSoC4/CyFlash.c ****             parameters[0u] =
 977              		.loc 1 785 0
 978 011a 1E4B     		ldr	r3, .L38+56
 979 011c 04A9     		add	r1, sp, #16
 980 011e 0493     		str	r3, [sp, #16]
 786:Generated_Source\PSoC4/CyFlash.c ****                 (uint32) ((CY_FLASH_KEY_TWO(CY_FLASH_API_OPCODE_CLK_RESTORE) <<  CY_FLASH_PARAM_KEY
 787:Generated_Source\PSoC4/CyFlash.c ****                             CY_FLASH_KEY_ONE);
 788:Generated_Source\PSoC4/CyFlash.c ****             parameters[1u] = (uint32) &cySysFlashBackup.clockSettings[0u];
 789:Generated_Source\PSoC4/CyFlash.c ****             CY_FLASH_CPUSS_SYSARG_REG = (uint32) &parameters[0u];
 981              		.loc 1 789 0
 982 0120 114B     		ldr	r3, .L38+12
 788:Generated_Source\PSoC4/CyFlash.c ****             CY_FLASH_CPUSS_SYSARG_REG = (uint32) &parameters[0u];
 983              		.loc 1 788 0
 984 0122 0592     		str	r2, [sp, #20]
 985              		.loc 1 789 0
 986 0124 1960     		str	r1, [r3]
 790:Generated_Source\PSoC4/CyFlash.c ****             CY_FLASH_CPUSS_SYSREQ_REG = CY_FLASH_CPUSS_REQ_START | CY_FLASH_API_OPCODE_CLK_RESTORE;
 987              		.loc 1 790 0
 988 0126 124A     		ldr	r2, .L38+20
 989 0128 1B49     		ldr	r1, .L38+60
 990 012a 1160     		str	r1, [r2]
 791:Generated_Source\PSoC4/CyFlash.c ****             CY_NOP;
 991              		.loc 1 791 0
 992              		.syntax divided
 993              	@ 791 "Generated_Source\PSoC4\CyFlash.c" 1
 994 012c C046     		NOP
 995              	
 996              	@ 0 "" 2
 792:Generated_Source\PSoC4/CyFlash.c ****             retValue = CY_FLASH_API_RETURN;
 997              		.loc 1 792 0
ARM GAS  C:\Users\Daniela\AppData\Local\Temp\ccm3GHIA.s 			page 72


 998              		.thumb
 999              		.syntax unified
 1000 012e 1A68     		ldr	r2, [r3]
 1001 0130 120F     		lsrs	r2, r2, #28
 1002 0132 0F2A     		cmp	r2, #15
 1003 0134 03D0     		beq	.L35
 1004 0136 1A68     		ldr	r2, [r3]
 1005 0138 120F     		lsrs	r2, r2, #28
 1006 013a 0A2A     		cmp	r2, #10
 1007 013c 0BD0     		beq	.L24
 1008              	.L35:
 1009 013e FF22     		movs	r2, #255
 1010 0140 1B68     		ldr	r3, [r3]
 1011 0142 1340     		ands	r3, r2
 1012              	.L18:
 1013              	.LVL15:
 1014              	.LBE20:
 1015              	.LBE19:
 204:Generated_Source\PSoC4/CyFlash.c **** 
 1016              		.loc 1 204 0
 1017 0144 0193     		str	r3, [sp, #4]
 206:Generated_Source\PSoC4/CyFlash.c ****                 {
 1018              		.loc 1 206 0
 1019 0146 019B     		ldr	r3, [sp, #4]
 1020 0148 002B     		cmp	r3, #0
 1021 014a D6D0     		beq	.L16
 208:Generated_Source\PSoC4/CyFlash.c ****                 }
 1022              		.loc 1 208 0
 1023 014c 019B     		ldr	r3, [sp, #4]
 1024 014e 0093     		str	r3, [sp]
 1025 0150 D3E7     		b	.L16
 1026              	.LVL16:
 1027              	.L22:
 1028              	.LBB22:
 1029              	.LBB14:
 633:Generated_Source\PSoC4/CyFlash.c ****         #endif /* (CY_IP_SPCIF_SYNCHRONOUS) */
 1030              		.loc 1 633 0
 1031 0152 0023     		movs	r3, #0
 1032 0154 9DE7     		b	.L8
 1033              	.LVL17:
 1034              	.L24:
 1035              	.LBE14:
 1036              	.LBE22:
 1037              	.LBB23:
 1038              	.LBB21:
 1039              		.loc 1 792 0
 1040 0156 0023     		movs	r3, #0
 1041 0158 F4E7     		b	.L18
 1042              	.L39:
 1043 015a C046     		.align	2
 1044              	.L38:
 1045 015c FF030000 		.word	1023
 1046 0160 FF010000 		.word	511
 1047 0164 B6D70000 		.word	55222
 1048 0168 08001040 		.word	1074790408
 1049 016c 04000080 		.word	-2147483644
 1050 0170 04001040 		.word	1074790404
ARM GAS  C:\Users\Daniela\AppData\Local\Temp\ccm3GHIA.s 			page 73


 1051 0174 B6E90000 		.word	59830
 1052 0178 00000000 		.word	.LANCHOR0
 1053 017c 16000080 		.word	-2147483626
 1054 0180 B6E80000 		.word	59574
 1055 0184 15000080 		.word	-2147483627
 1056 0188 B6D80000 		.word	55478
 1057 018c 05000080 		.word	-2147483643
 1058 0190 B6D70001 		.word	16832438
 1059 0194 B6EA0000 		.word	60086
 1060 0198 17000080 		.word	-2147483625
 1061              	.LBE21:
 1062              	.LBE23:
 1063              		.cfi_endproc
 1064              	.LFE2:
 1065              		.size	CySysFlashWriteRow, .-CySysFlashWriteRow
 1066              		.section	.text.CySysFlashSetWaitCycles,"ax",%progbits
 1067              		.align	2
 1068              		.global	CySysFlashSetWaitCycles
 1069              		.code	16
 1070              		.thumb_func
 1071              		.type	CySysFlashSetWaitCycles, %function
 1072              	CySysFlashSetWaitCycles:
 1073              	.LFB3:
 423:Generated_Source\PSoC4/CyFlash.c ****     uint8  interruptState;
 1074              		.loc 1 423 0
 1075              		.cfi_startproc
 1076              		@ args = 0, pretend = 0, frame = 0
 1077              		@ frame_needed = 0, uses_anonymous_args = 0
 1078              	.LVL18:
 1079 0000 70B5     		push	{r4, r5, r6, lr}
 1080              		.cfi_def_cfa_offset 16
 1081              		.cfi_offset 4, -16
 1082              		.cfi_offset 5, -12
 1083              		.cfi_offset 6, -8
 1084              		.cfi_offset 14, -4
 423:Generated_Source\PSoC4/CyFlash.c ****     uint8  interruptState;
 1085              		.loc 1 423 0
 1086 0002 0400     		movs	r4, r0
 426:Generated_Source\PSoC4/CyFlash.c **** 
 1087              		.loc 1 426 0
 1088 0004 FFF7FEFF 		bl	CyEnterCriticalSection
 1089              	.LVL19:
 1090 0008 0500     		movs	r5, r0
 1091              	.LVL20:
 441:Generated_Source\PSoC4/CyFlash.c ****             {
 1092              		.loc 1 441 0
 1093 000a 102C     		cmp	r4, #16
 1094 000c 16D9     		bls	.L45
 445:Generated_Source\PSoC4/CyFlash.c ****             {
 1095              		.loc 1 445 0
 1096 000e 202C     		cmp	r4, #32
 1097 0010 0CD9     		bls	.L46
 450:Generated_Source\PSoC4/CyFlash.c ****                 {
 1098              		.loc 1 450 0
 1099 0012 302C     		cmp	r4, #48
 1100 0014 18D8     		bhi	.L44
 452:Generated_Source\PSoC4/CyFlash.c ****                 }
ARM GAS  C:\Users\Daniela\AppData\Local\Temp\ccm3GHIA.s 			page 74


 1101              		.loc 1 452 0
 1102 0016 0322     		movs	r2, #3
 1103 0018 0D49     		ldr	r1, .L47
 1104 001a 0B68     		ldr	r3, [r1]
 1105 001c 9343     		bics	r3, r2
 1106 001e 013A     		subs	r2, r2, #1
 1107 0020 1343     		orrs	r3, r2
 1108 0022 0B60     		str	r3, [r1]
 1109              	.L42:
 464:Generated_Source\PSoC4/CyFlash.c **** }
 1110              		.loc 1 464 0
 1111 0024 2800     		movs	r0, r5
 1112 0026 FFF7FEFF 		bl	CyExitCriticalSection
 1113              	.LVL21:
 465:Generated_Source\PSoC4/CyFlash.c **** 
 1114              		.loc 1 465 0
 1115              		@ sp needed
 1116              	.LVL22:
 1117              	.LVL23:
 1118 002a 70BD     		pop	{r4, r5, r6, pc}
 1119              	.LVL24:
 1120              	.L46:
 447:Generated_Source\PSoC4/CyFlash.c ****             } else
 1121              		.loc 1 447 0
 1122 002c 0322     		movs	r2, #3
 1123 002e 0849     		ldr	r1, .L47
 1124 0030 0B68     		ldr	r3, [r1]
 1125 0032 9343     		bics	r3, r2
 1126 0034 023A     		subs	r2, r2, #2
 1127 0036 1343     		orrs	r3, r2
 1128 0038 0B60     		str	r3, [r1]
 1129 003a F3E7     		b	.L42
 1130              	.L45:
 443:Generated_Source\PSoC4/CyFlash.c ****             } else
 1131              		.loc 1 443 0
 1132 003c 0321     		movs	r1, #3
 1133 003e 044A     		ldr	r2, .L47
 1134 0040 1368     		ldr	r3, [r2]
 1135 0042 8B43     		bics	r3, r1
 1136 0044 1360     		str	r3, [r2]
 1137 0046 EDE7     		b	.L42
 1138              	.L44:
 459:Generated_Source\PSoC4/CyFlash.c ****         }
 1139              		.loc 1 459 0 discriminator 1
 1140 0048 0020     		movs	r0, #0
 1141 004a FFF7FEFF 		bl	CyHalt
 1142              	.LVL25:
 1143 004e E9E7     		b	.L42
 1144              	.L48:
 1145              		.align	2
 1146              	.L47:
 1147 0050 30001040 		.word	1074790448
 1148              		.cfi_endproc
 1149              	.LFE3:
 1150              		.size	CySysFlashSetWaitCycles, .-CySysFlashSetWaitCycles
 1151              		.section	.text.CySysSFlashWriteUserRow,"ax",%progbits
 1152              		.align	2
ARM GAS  C:\Users\Daniela\AppData\Local\Temp\ccm3GHIA.s 			page 75


 1153              		.global	CySysSFlashWriteUserRow
 1154              		.code	16
 1155              		.thumb_func
 1156              		.type	CySysSFlashWriteUserRow, %function
 1157              	CySysSFlashWriteUserRow:
 1158              	.LFB4:
 491:Generated_Source\PSoC4/CyFlash.c ****     volatile uint32 retValue = CY_SYS_FLASH_SUCCESS;
 1159              		.loc 1 491 0
 1160              		.cfi_startproc
 1161              		@ args = 0, pretend = 0, frame = 160
 1162              		@ frame_needed = 0, uses_anonymous_args = 0
 1163              	.LVL26:
 492:Generated_Source\PSoC4/CyFlash.c ****     volatile uint32 clkCnfRetValue = CY_SYS_FLASH_SUCCESS;
 1164              		.loc 1 492 0
 1165 0000 0023     		movs	r3, #0
 491:Generated_Source\PSoC4/CyFlash.c ****     volatile uint32 retValue = CY_SYS_FLASH_SUCCESS;
 1166              		.loc 1 491 0
 1167 0002 30B5     		push	{r4, r5, lr}
 1168              		.cfi_def_cfa_offset 12
 1169              		.cfi_offset 4, -12
 1170              		.cfi_offset 5, -8
 1171              		.cfi_offset 14, -4
 1172 0004 A9B0     		sub	sp, sp, #164
 1173              		.cfi_def_cfa_offset 176
 492:Generated_Source\PSoC4/CyFlash.c ****     volatile uint32 clkCnfRetValue = CY_SYS_FLASH_SUCCESS;
 1174              		.loc 1 492 0
 1175 0006 0093     		str	r3, [sp]
 491:Generated_Source\PSoC4/CyFlash.c ****     volatile uint32 retValue = CY_SYS_FLASH_SUCCESS;
 1176              		.loc 1 491 0
 1177 0008 0400     		movs	r4, r0
 493:Generated_Source\PSoC4/CyFlash.c ****     volatile uint32 parameters[(CY_FLASH_SIZEOF_ROW + CY_FLASH_SRAM_ROM_DATA)/4u];
 1178              		.loc 1 493 0
 1179 000a 0193     		str	r3, [sp, #4]
 498:Generated_Source\PSoC4/CyFlash.c ****     {
 1180              		.loc 1 498 0
 1181 000c 0328     		cmp	r0, #3
 1182 000e 6ED8     		bhi	.L50
 498:Generated_Source\PSoC4/CyFlash.c ****     {
 1183              		.loc 1 498 0 is_stmt 0 discriminator 1
 1184 0010 0029     		cmp	r1, #0
 1185 0012 6CD0     		beq	.L50
 501:Generated_Source\PSoC4/CyFlash.c ****                          (uint32) (CY_FLASH_PAGE_LATCH_START_ADDR             << CY_FLASH_PARAM_ADD
 1186              		.loc 1 501 0 is_stmt 1
 1187 0014 484B     		ldr	r3, .L78
 507:Generated_Source\PSoC4/CyFlash.c ****         CY_FLASH_CPUSS_SYSARG_REG = (uint32) &parameters[0u];
 1188              		.loc 1 507 0
 1189 0016 8022     		movs	r2, #128
 501:Generated_Source\PSoC4/CyFlash.c ****                          (uint32) (CY_FLASH_PAGE_LATCH_START_ADDR             << CY_FLASH_PARAM_ADD
 1190              		.loc 1 501 0
 1191 0018 0693     		str	r3, [sp, #24]
 505:Generated_Source\PSoC4/CyFlash.c **** 
 1192              		.loc 1 505 0
 1193 001a 7F23     		movs	r3, #127
 507:Generated_Source\PSoC4/CyFlash.c ****         CY_FLASH_CPUSS_SYSARG_REG = (uint32) &parameters[0u];
 1194              		.loc 1 507 0
 1195 001c 08A8     		add	r0, sp, #32
 1196              	.LVL27:
ARM GAS  C:\Users\Daniela\AppData\Local\Temp\ccm3GHIA.s 			page 76


 505:Generated_Source\PSoC4/CyFlash.c **** 
 1197              		.loc 1 505 0
 1198 001e 0793     		str	r3, [sp, #28]
 507:Generated_Source\PSoC4/CyFlash.c ****         CY_FLASH_CPUSS_SYSARG_REG = (uint32) &parameters[0u];
 1199              		.loc 1 507 0
 1200 0020 FFF7FEFF 		bl	memcpy
 1201              	.LVL28:
 508:Generated_Source\PSoC4/CyFlash.c ****         CY_FLASH_CPUSS_SYSREQ_REG = CY_FLASH_CPUSS_REQ_START | CY_FLASH_API_OPCODE_LOAD;
 1202              		.loc 1 508 0
 1203 0024 454B     		ldr	r3, .L78+4
 1204 0026 06AA     		add	r2, sp, #24
 1205 0028 1A60     		str	r2, [r3]
 509:Generated_Source\PSoC4/CyFlash.c ****         CY_NOP;
 1206              		.loc 1 509 0
 1207 002a 4549     		ldr	r1, .L78+8
 1208 002c 454A     		ldr	r2, .L78+12
 1209 002e 1160     		str	r1, [r2]
 510:Generated_Source\PSoC4/CyFlash.c ****         retValue = CY_FLASH_API_RETURN;
 1210              		.loc 1 510 0
 1211              		.syntax divided
 1212              	@ 510 "Generated_Source\PSoC4\CyFlash.c" 1
 1213 0030 C046     		NOP
 1214              	
 1215              	@ 0 "" 2
 511:Generated_Source\PSoC4/CyFlash.c **** 
 1216              		.loc 1 511 0
 1217              		.thumb
 1218              		.syntax unified
 1219 0032 1A68     		ldr	r2, [r3]
 1220 0034 120F     		lsrs	r2, r2, #28
 1221 0036 0F2A     		cmp	r2, #15
 1222 0038 03D0     		beq	.L72
 511:Generated_Source\PSoC4/CyFlash.c **** 
 1223              		.loc 1 511 0 is_stmt 0 discriminator 2
 1224 003a 1A68     		ldr	r2, [r3]
 1225 003c 120F     		lsrs	r2, r2, #28
 1226 003e 0A2A     		cmp	r2, #10
 1227 0040 5AD0     		beq	.L65
 1228              	.L72:
 511:Generated_Source\PSoC4/CyFlash.c **** 
 1229              		.loc 1 511 0 discriminator 4
 1230 0042 FF22     		movs	r2, #255
 1231 0044 1B68     		ldr	r3, [r3]
 1232 0046 1340     		ands	r3, r2
 1233              	.L52:
 511:Generated_Source\PSoC4/CyFlash.c **** 
 1234              		.loc 1 511 0 discriminator 8
 1235 0048 0093     		str	r3, [sp]
 513:Generated_Source\PSoC4/CyFlash.c ****         {
 1236              		.loc 1 513 0 is_stmt 1 discriminator 8
 1237 004a 009B     		ldr	r3, [sp]
 1238 004c 002B     		cmp	r3, #0
 1239 004e 50D1     		bne	.L53
 521:Generated_Source\PSoC4/CyFlash.c **** 
 1240              		.loc 1 521 0
 1241 0050 FFF7FEFF 		bl	CyEnterCriticalSection
 1242              	.LVL29:
ARM GAS  C:\Users\Daniela\AppData\Local\Temp\ccm3GHIA.s 			page 77


 1243              	.LBB30:
 1244              	.LBB31:
 626:Generated_Source\PSoC4/CyFlash.c ****                 (uint32) ((CY_FLASH_KEY_TWO(CY_FLASH_API_OPCODE_CLK_BACKUP) <<  CY_FLASH_PARAM_KEY_
 1245              		.loc 1 626 0
 1246 0054 3C4B     		ldr	r3, .L78+16
 629:Generated_Source\PSoC4/CyFlash.c ****             CY_FLASH_CPUSS_SYSARG_REG = (uint32) &parameters[0u];
 1247              		.loc 1 629 0
 1248 0056 3D4A     		ldr	r2, .L78+20
 626:Generated_Source\PSoC4/CyFlash.c ****                 (uint32) ((CY_FLASH_KEY_TWO(CY_FLASH_API_OPCODE_CLK_BACKUP) <<  CY_FLASH_PARAM_KEY_
 1249              		.loc 1 626 0
 1250 0058 0293     		str	r3, [sp, #8]
 630:Generated_Source\PSoC4/CyFlash.c ****             CY_FLASH_CPUSS_SYSREQ_REG = CY_FLASH_CPUSS_REQ_START | CY_FLASH_API_OPCODE_CLK_BACKUP;
 1251              		.loc 1 630 0
 1252 005a 384B     		ldr	r3, .L78+4
 626:Generated_Source\PSoC4/CyFlash.c ****                 (uint32) ((CY_FLASH_KEY_TWO(CY_FLASH_API_OPCODE_CLK_BACKUP) <<  CY_FLASH_PARAM_KEY_
 1253              		.loc 1 626 0
 1254 005c 02A9     		add	r1, sp, #8
 629:Generated_Source\PSoC4/CyFlash.c ****             CY_FLASH_CPUSS_SYSARG_REG = (uint32) &parameters[0u];
 1255              		.loc 1 629 0
 1256 005e 0432     		adds	r2, r2, #4
 1257 0060 0392     		str	r2, [sp, #12]
 631:Generated_Source\PSoC4/CyFlash.c ****             CY_NOP;
 1258              		.loc 1 631 0
 1259 0062 3B4D     		ldr	r5, .L78+24
 630:Generated_Source\PSoC4/CyFlash.c ****             CY_FLASH_CPUSS_SYSREQ_REG = CY_FLASH_CPUSS_REQ_START | CY_FLASH_API_OPCODE_CLK_BACKUP;
 1260              		.loc 1 630 0
 1261 0064 1960     		str	r1, [r3]
 631:Generated_Source\PSoC4/CyFlash.c ****             CY_NOP;
 1262              		.loc 1 631 0
 1263 0066 3749     		ldr	r1, .L78+12
 1264 0068 0D60     		str	r5, [r1]
 632:Generated_Source\PSoC4/CyFlash.c ****             retValue = CY_FLASH_API_RETURN;
 1265              		.loc 1 632 0
 1266              		.syntax divided
 1267              	@ 632 "Generated_Source\PSoC4\CyFlash.c" 1
 1268 006a C046     		NOP
 1269              	
 1270              	@ 0 "" 2
 633:Generated_Source\PSoC4/CyFlash.c ****         #endif /* (CY_IP_SPCIF_SYNCHRONOUS) */
 1271              		.loc 1 633 0
 1272              		.thumb
 1273              		.syntax unified
 1274 006c 1968     		ldr	r1, [r3]
 1275 006e 090F     		lsrs	r1, r1, #28
 1276 0070 0F29     		cmp	r1, #15
 1277 0072 03D0     		beq	.L73
 1278 0074 1968     		ldr	r1, [r3]
 1279 0076 090F     		lsrs	r1, r1, #28
 1280 0078 0A29     		cmp	r1, #10
 1281 007a 5BD0     		beq	.L66
 1282              	.L73:
 1283 007c FF21     		movs	r1, #255
 1284 007e 1B68     		ldr	r3, [r3]
 1285 0080 0B40     		ands	r3, r1
 1286              	.L55:
 1287              	.LVL30:
 1288              	.LBE31:
ARM GAS  C:\Users\Daniela\AppData\Local\Temp\ccm3GHIA.s 			page 78


 1289              	.LBE30:
 523:Generated_Source\PSoC4/CyFlash.c **** 
 1290              		.loc 1 523 0
 1291 0082 0193     		str	r3, [sp, #4]
 526:Generated_Source\PSoC4/CyFlash.c ****             {
 1292              		.loc 1 526 0
 1293 0084 019B     		ldr	r3, [sp, #4]
 1294 0086 002B     		cmp	r3, #0
 1295 0088 12D1     		bne	.L56
 1296              	.LVL31:
 1297              	.LBB33:
 1298              	.LBB34:
 705:Generated_Source\PSoC4/CyFlash.c ****         (uint32) ((CY_FLASH_KEY_TWO(CY_FLASH_API_OPCODE_CLK_CONFIG) <<  CY_FLASH_PARAM_KEY_TWO_OFFS
 1299              		.loc 1 705 0
 1300 008a 2C4B     		ldr	r3, .L78+4
 1301 008c 3149     		ldr	r1, .L78+28
 708:Generated_Source\PSoC4/CyFlash.c ****     CY_NOP;
 1302              		.loc 1 708 0
 1303 008e 324D     		ldr	r5, .L78+32
 705:Generated_Source\PSoC4/CyFlash.c ****         (uint32) ((CY_FLASH_KEY_TWO(CY_FLASH_API_OPCODE_CLK_CONFIG) <<  CY_FLASH_PARAM_KEY_TWO_OFFS
 1304              		.loc 1 705 0
 1305 0090 1960     		str	r1, [r3]
 708:Generated_Source\PSoC4/CyFlash.c ****     CY_NOP;
 1306              		.loc 1 708 0
 1307 0092 2C49     		ldr	r1, .L78+12
 1308 0094 0D60     		str	r5, [r1]
 709:Generated_Source\PSoC4/CyFlash.c ****     retValue = CY_FLASH_API_RETURN;
 1309              		.loc 1 709 0
 1310              		.syntax divided
 1311              	@ 709 "Generated_Source\PSoC4\CyFlash.c" 1
 1312 0096 C046     		NOP
 1313              	
 1314              	@ 0 "" 2
 710:Generated_Source\PSoC4/CyFlash.c **** 
 1315              		.loc 1 710 0
 1316              		.thumb
 1317              		.syntax unified
 1318 0098 1968     		ldr	r1, [r3]
 1319 009a 090F     		lsrs	r1, r1, #28
 1320 009c 0F29     		cmp	r1, #15
 1321 009e 03D0     		beq	.L74
 1322 00a0 1968     		ldr	r1, [r3]
 1323 00a2 090F     		lsrs	r1, r1, #28
 1324 00a4 0A29     		cmp	r1, #10
 1325 00a6 40D0     		beq	.L67
 1326              	.L74:
 1327 00a8 FF21     		movs	r1, #255
 1328 00aa 1B68     		ldr	r3, [r3]
 1329 00ac 0B40     		ands	r3, r1
 1330              	.L58:
 1331              	.LVL32:
 1332              	.LBE34:
 1333              	.LBE33:
 528:Generated_Source\PSoC4/CyFlash.c ****             }
 1334              		.loc 1 528 0
 1335 00ae 0093     		str	r3, [sp]
 1336              	.L56:
ARM GAS  C:\Users\Daniela\AppData\Local\Temp\ccm3GHIA.s 			page 79


 532:Generated_Source\PSoC4/CyFlash.c ****             {
 1337              		.loc 1 532 0
 1338 00b0 009B     		ldr	r3, [sp]
 1339 00b2 002B     		cmp	r3, #0
 1340 00b4 15D1     		bne	.L59
 535:Generated_Source\PSoC4/CyFlash.c ****                 parameters[1u] = (uint32) rowNum;
 1341              		.loc 1 535 0
 1342 00b6 2949     		ldr	r1, .L78+36
 539:Generated_Source\PSoC4/CyFlash.c ****                 CY_NOP;
 1343              		.loc 1 539 0
 1344 00b8 294D     		ldr	r5, .L78+40
 535:Generated_Source\PSoC4/CyFlash.c ****                 parameters[1u] = (uint32) rowNum;
 1345              		.loc 1 535 0
 1346 00ba 0691     		str	r1, [sp, #24]
 538:Generated_Source\PSoC4/CyFlash.c ****                 CY_FLASH_CPUSS_SYSREQ_REG = CY_FLASH_CPUSS_REQ_START | CY_FLASH_API_OPCODE_WRITE_SF
 1347              		.loc 1 538 0
 1348 00bc 1F49     		ldr	r1, .L78+4
 536:Generated_Source\PSoC4/CyFlash.c **** 
 1349              		.loc 1 536 0
 1350 00be 0794     		str	r4, [sp, #28]
 538:Generated_Source\PSoC4/CyFlash.c ****                 CY_FLASH_CPUSS_SYSREQ_REG = CY_FLASH_CPUSS_REQ_START | CY_FLASH_API_OPCODE_WRITE_SF
 1351              		.loc 1 538 0
 1352 00c0 06AC     		add	r4, sp, #24
 1353              	.LVL33:
 1354 00c2 0C60     		str	r4, [r1]
 1355              	.LVL34:
 539:Generated_Source\PSoC4/CyFlash.c ****                 CY_NOP;
 1356              		.loc 1 539 0
 1357 00c4 1F4C     		ldr	r4, .L78+12
 1358 00c6 2560     		str	r5, [r4]
 540:Generated_Source\PSoC4/CyFlash.c ****                 retValue = CY_FLASH_API_RETURN;
 1359              		.loc 1 540 0
 1360              		.syntax divided
 1361              	@ 540 "Generated_Source\PSoC4\CyFlash.c" 1
 1362 00c8 C046     		NOP
 1363              	
 1364              	@ 0 "" 2
 541:Generated_Source\PSoC4/CyFlash.c ****             }
 1365              		.loc 1 541 0
 1366              		.thumb
 1367              		.syntax unified
 1368 00ca 0C68     		ldr	r4, [r1]
 1369 00cc 240F     		lsrs	r4, r4, #28
 1370 00ce 0F2C     		cmp	r4, #15
 1371 00d0 03D0     		beq	.L75
 541:Generated_Source\PSoC4/CyFlash.c ****             }
 1372              		.loc 1 541 0 is_stmt 0 discriminator 2
 1373 00d2 0C68     		ldr	r4, [r1]
 1374 00d4 240F     		lsrs	r4, r4, #28
 1375 00d6 0A2C     		cmp	r4, #10
 1376 00d8 02D0     		beq	.L61
 1377              	.L75:
 541:Generated_Source\PSoC4/CyFlash.c ****             }
 1378              		.loc 1 541 0 discriminator 4
 1379 00da 0B68     		ldr	r3, [r1]
 1380 00dc FF21     		movs	r1, #255
 1381 00de 0B40     		ands	r3, r1
ARM GAS  C:\Users\Daniela\AppData\Local\Temp\ccm3GHIA.s 			page 80


 1382              	.L61:
 541:Generated_Source\PSoC4/CyFlash.c ****             }
 1383              		.loc 1 541 0 discriminator 8
 1384 00e0 0093     		str	r3, [sp]
 1385              	.L59:
 544:Generated_Source\PSoC4/CyFlash.c ****             {
 1386              		.loc 1 544 0 is_stmt 1
 1387 00e2 019B     		ldr	r3, [sp, #4]
 1388 00e4 002B     		cmp	r3, #0
 1389 00e6 09D0     		beq	.L77
 1390              	.L62:
 548:Generated_Source\PSoC4/CyFlash.c ****         }
 1391              		.loc 1 548 0
 1392 00e8 FFF7FEFF 		bl	CyExitCriticalSection
 1393              	.LVL35:
 1394 00ec 01E0     		b	.L53
 1395              	.LVL36:
 1396              	.L50:
 553:Generated_Source\PSoC4/CyFlash.c ****     }
 1397              		.loc 1 553 0
 1398 00ee 0423     		movs	r3, #4
 1399 00f0 0093     		str	r3, [sp]
 1400              	.LVL37:
 1401              	.L53:
 556:Generated_Source\PSoC4/CyFlash.c **** }
 1402              		.loc 1 556 0
 1403 00f2 0098     		ldr	r0, [sp]
 557:Generated_Source\PSoC4/CyFlash.c **** #endif /* (CY_SFLASH_XTRA_ROWS) */
 1404              		.loc 1 557 0
 1405 00f4 29B0     		add	sp, sp, #164
 1406              		@ sp needed
 1407 00f6 30BD     		pop	{r4, r5, pc}
 1408              	.LVL38:
 1409              	.L65:
 511:Generated_Source\PSoC4/CyFlash.c **** 
 1410              		.loc 1 511 0
 1411 00f8 0023     		movs	r3, #0
 1412 00fa A5E7     		b	.L52
 1413              	.LVL39:
 1414              	.L77:
 1415              	.LBB36:
 1416              	.LBB37:
 785:Generated_Source\PSoC4/CyFlash.c ****                 (uint32) ((CY_FLASH_KEY_TWO(CY_FLASH_API_OPCODE_CLK_RESTORE) <<  CY_FLASH_PARAM_KEY
 1417              		.loc 1 785 0
 1418 00fc 194B     		ldr	r3, .L78+44
 1419 00fe 04A9     		add	r1, sp, #16
 1420 0100 0493     		str	r3, [sp, #16]
 789:Generated_Source\PSoC4/CyFlash.c ****             CY_FLASH_CPUSS_SYSREQ_REG = CY_FLASH_CPUSS_REQ_START | CY_FLASH_API_OPCODE_CLK_RESTORE;
 1421              		.loc 1 789 0
 1422 0102 0E4B     		ldr	r3, .L78+4
 788:Generated_Source\PSoC4/CyFlash.c ****             CY_FLASH_CPUSS_SYSARG_REG = (uint32) &parameters[0u];
 1423              		.loc 1 788 0
 1424 0104 0592     		str	r2, [sp, #20]
 789:Generated_Source\PSoC4/CyFlash.c ****             CY_FLASH_CPUSS_SYSREQ_REG = CY_FLASH_CPUSS_REQ_START | CY_FLASH_API_OPCODE_CLK_RESTORE;
 1425              		.loc 1 789 0
 1426 0106 1960     		str	r1, [r3]
 790:Generated_Source\PSoC4/CyFlash.c ****             CY_NOP;
ARM GAS  C:\Users\Daniela\AppData\Local\Temp\ccm3GHIA.s 			page 81


 1427              		.loc 1 790 0
 1428 0108 0E4A     		ldr	r2, .L78+12
 1429 010a 1749     		ldr	r1, .L78+48
 1430 010c 1160     		str	r1, [r2]
 791:Generated_Source\PSoC4/CyFlash.c ****             retValue = CY_FLASH_API_RETURN;
 1431              		.loc 1 791 0
 1432              		.syntax divided
 1433              	@ 791 "Generated_Source\PSoC4\CyFlash.c" 1
 1434 010e C046     		NOP
 1435              	
 1436              	@ 0 "" 2
 1437              		.loc 1 792 0
 1438              		.thumb
 1439              		.syntax unified
 1440 0110 1A68     		ldr	r2, [r3]
 1441 0112 120F     		lsrs	r2, r2, #28
 1442 0114 0F2A     		cmp	r2, #15
 1443 0116 03D0     		beq	.L76
 1444 0118 1A68     		ldr	r2, [r3]
 1445 011a 120F     		lsrs	r2, r2, #28
 1446 011c 0A2A     		cmp	r2, #10
 1447 011e 06D0     		beq	.L68
 1448              	.L76:
 1449 0120 FF22     		movs	r2, #255
 1450 0122 1B68     		ldr	r3, [r3]
 1451 0124 1340     		ands	r3, r2
 1452              	.LVL40:
 1453              	.LBE37:
 1454              	.LBE36:
 546:Generated_Source\PSoC4/CyFlash.c ****             }
 1455              		.loc 1 546 0
 1456 0126 0193     		str	r3, [sp, #4]
 1457 0128 DEE7     		b	.L62
 1458              	.LVL41:
 1459              	.L67:
 1460              	.LBB39:
 1461              	.LBB35:
 710:Generated_Source\PSoC4/CyFlash.c **** 
 1462              		.loc 1 710 0
 1463 012a 0023     		movs	r3, #0
 1464 012c BFE7     		b	.L58
 1465              	.LVL42:
 1466              	.L68:
 1467              	.LBE35:
 1468              	.LBE39:
 1469              	.LBB40:
 1470              	.LBB38:
 1471              		.loc 1 792 0
 1472 012e 0023     		movs	r3, #0
 1473              	.LVL43:
 1474              	.LBE38:
 1475              	.LBE40:
 546:Generated_Source\PSoC4/CyFlash.c ****             }
 1476              		.loc 1 546 0
 1477 0130 0193     		str	r3, [sp, #4]
 1478 0132 D9E7     		b	.L62
 1479              	.LVL44:
ARM GAS  C:\Users\Daniela\AppData\Local\Temp\ccm3GHIA.s 			page 82


 1480              	.L66:
 1481              	.LBB41:
 1482              	.LBB32:
 633:Generated_Source\PSoC4/CyFlash.c ****         #endif /* (CY_IP_SPCIF_SYNCHRONOUS) */
 1483              		.loc 1 633 0
 1484 0134 0023     		movs	r3, #0
 1485 0136 A4E7     		b	.L55
 1486              	.L79:
 1487              		.align	2
 1488              	.L78:
 1489 0138 B6D70000 		.word	55222
 1490 013c 08001040 		.word	1074790408
 1491 0140 04000080 		.word	-2147483644
 1492 0144 04001040 		.word	1074790404
 1493 0148 B6E90000 		.word	59830
 1494 014c 00000000 		.word	.LANCHOR0
 1495 0150 16000080 		.word	-2147483626
 1496 0154 B6E80000 		.word	59574
 1497 0158 15000080 		.word	-2147483627
 1498 015c B6EB0000 		.word	60342
 1499 0160 18000080 		.word	-2147483624
 1500 0164 B6EA0000 		.word	60086
 1501 0168 17000080 		.word	-2147483625
 1502              	.LBE32:
 1503              	.LBE41:
 1504              		.cfi_endproc
 1505              	.LFE4:
 1506              		.size	CySysSFlashWriteUserRow, .-CySysSFlashWriteUserRow
 1507              		.bss
 1508              		.align	2
 1509              		.set	.LANCHOR0,. + 0
 1510              		.type	cySysFlashBackup, %object
 1511              		.size	cySysFlashBackup, 20
 1512              	cySysFlashBackup:
 1513 0000 00000000 		.space	20
 1513      00000000 
 1513      00000000 
 1513      00000000 
 1513      00000000 
 1514              		.text
 1515              	.Letext0:
 1516              		.file 2 "Generated_Source\\PSoC4\\cytypes.h"
 1517              		.file 3 "Generated_Source\\PSoC4\\CyFlash.h"
 1518              		.file 4 "Generated_Source\\PSoC4\\CyLib.h"
 1519              		.section	.debug_info,"",%progbits
 1520              	.Ldebug_info0:
 1521 0000 AB040000 		.4byte	0x4ab
 1522 0004 0400     		.2byte	0x4
 1523 0006 00000000 		.4byte	.Ldebug_abbrev0
 1524 000a 04       		.byte	0x4
 1525 000b 01       		.uleb128 0x1
 1526 000c E2000000 		.4byte	.LASF38
 1527 0010 0C       		.byte	0xc
 1528 0011 D1010000 		.4byte	.LASF39
 1529 0015 D9020000 		.4byte	.LASF40
 1530 0019 90000000 		.4byte	.Ldebug_ranges0+0x90
 1531 001d 00000000 		.4byte	0
ARM GAS  C:\Users\Daniela\AppData\Local\Temp\ccm3GHIA.s 			page 83


 1532 0021 00000000 		.4byte	.Ldebug_line0
 1533 0025 02       		.uleb128 0x2
 1534 0026 01       		.byte	0x1
 1535 0027 06       		.byte	0x6
 1536 0028 CD020000 		.4byte	.LASF0
 1537 002c 02       		.uleb128 0x2
 1538 002d 01       		.byte	0x1
 1539 002e 08       		.byte	0x8
 1540 002f AA000000 		.4byte	.LASF1
 1541 0033 02       		.uleb128 0x2
 1542 0034 02       		.byte	0x2
 1543 0035 05       		.byte	0x5
 1544 0036 90010000 		.4byte	.LASF2
 1545 003a 02       		.uleb128 0x2
 1546 003b 02       		.byte	0x2
 1547 003c 07       		.byte	0x7
 1548 003d 62000000 		.4byte	.LASF3
 1549 0041 02       		.uleb128 0x2
 1550 0042 04       		.byte	0x4
 1551 0043 05       		.byte	0x5
 1552 0044 B3020000 		.4byte	.LASF4
 1553 0048 02       		.uleb128 0x2
 1554 0049 04       		.byte	0x4
 1555 004a 07       		.byte	0x7
 1556 004b BF010000 		.4byte	.LASF5
 1557 004f 02       		.uleb128 0x2
 1558 0050 08       		.byte	0x8
 1559 0051 05       		.byte	0x5
 1560 0052 27020000 		.4byte	.LASF6
 1561 0056 02       		.uleb128 0x2
 1562 0057 08       		.byte	0x8
 1563 0058 07       		.byte	0x7
 1564 0059 93000000 		.4byte	.LASF7
 1565 005d 03       		.uleb128 0x3
 1566 005e 04       		.byte	0x4
 1567 005f 05       		.byte	0x5
 1568 0060 696E7400 		.ascii	"int\000"
 1569 0064 02       		.uleb128 0x2
 1570 0065 04       		.byte	0x4
 1571 0066 07       		.byte	0x7
 1572 0067 75000000 		.4byte	.LASF8
 1573 006b 04       		.uleb128 0x4
 1574 006c DC000000 		.4byte	.LASF9
 1575 0070 02       		.byte	0x2
 1576 0071 D201     		.2byte	0x1d2
 1577 0073 2C000000 		.4byte	0x2c
 1578 0077 04       		.uleb128 0x4
 1579 0078 9A010000 		.4byte	.LASF10
 1580 007c 02       		.byte	0x2
 1581 007d D301     		.2byte	0x1d3
 1582 007f 3A000000 		.4byte	0x3a
 1583 0083 04       		.uleb128 0x4
 1584 0084 A1010000 		.4byte	.LASF11
 1585 0088 02       		.byte	0x2
 1586 0089 D401     		.2byte	0x1d4
 1587 008b 48000000 		.4byte	0x48
 1588 008f 02       		.uleb128 0x2
ARM GAS  C:\Users\Daniela\AppData\Local\Temp\ccm3GHIA.s 			page 84


 1589 0090 04       		.byte	0x4
 1590 0091 04       		.byte	0x4
 1591 0092 82000000 		.4byte	.LASF12
 1592 0096 02       		.uleb128 0x2
 1593 0097 08       		.byte	0x8
 1594 0098 04       		.byte	0x4
 1595 0099 89010000 		.4byte	.LASF13
 1596 009d 02       		.uleb128 0x2
 1597 009e 01       		.byte	0x1
 1598 009f 08       		.byte	0x8
 1599 00a0 BC020000 		.4byte	.LASF14
 1600 00a4 04       		.uleb128 0x4
 1601 00a5 00000000 		.4byte	.LASF15
 1602 00a9 02       		.byte	0x2
 1603 00aa 7402     		.2byte	0x274
 1604 00ac 48000000 		.4byte	0x48
 1605 00b0 04       		.uleb128 0x4
 1606 00b1 09000000 		.4byte	.LASF16
 1607 00b5 02       		.byte	0x2
 1608 00b6 7E02     		.2byte	0x27e
 1609 00b8 BC000000 		.4byte	0xbc
 1610 00bc 05       		.uleb128 0x5
 1611 00bd 83000000 		.4byte	0x83
 1612 00c1 02       		.uleb128 0x2
 1613 00c2 08       		.byte	0x8
 1614 00c3 04       		.byte	0x4
 1615 00c4 C1020000 		.4byte	.LASF17
 1616 00c8 02       		.uleb128 0x2
 1617 00c9 04       		.byte	0x4
 1618 00ca 07       		.byte	0x7
 1619 00cb 1E020000 		.4byte	.LASF18
 1620 00cf 06       		.uleb128 0x6
 1621 00d0 2E000000 		.4byte	.LASF41
 1622 00d4 14       		.byte	0x14
 1623 00d5 03       		.byte	0x3
 1624 00d6 D7       		.byte	0xd7
 1625 00d7 F4000000 		.4byte	0xf4
 1626 00db 07       		.uleb128 0x7
 1627 00dc 88000000 		.4byte	.LASF19
 1628 00e0 03       		.byte	0x3
 1629 00e1 E3       		.byte	0xe3
 1630 00e2 83000000 		.4byte	0x83
 1631 00e6 00       		.byte	0
 1632 00e7 07       		.uleb128 0x7
 1633 00e8 41020000 		.4byte	.LASF20
 1634 00ec 03       		.byte	0x3
 1635 00ed E7       		.byte	0xe7
 1636 00ee F4000000 		.4byte	0xf4
 1637 00f2 04       		.byte	0x4
 1638 00f3 00       		.byte	0
 1639 00f4 08       		.uleb128 0x8
 1640 00f5 83000000 		.4byte	0x83
 1641 00f9 04010000 		.4byte	0x104
 1642 00fd 09       		.uleb128 0x9
 1643 00fe C8000000 		.4byte	0xc8
 1644 0102 03       		.byte	0x3
 1645 0103 00       		.byte	0
ARM GAS  C:\Users\Daniela\AppData\Local\Temp\ccm3GHIA.s 			page 85


 1646 0104 0A       		.uleb128 0xa
 1647 0105 92020000 		.4byte	.LASF21
 1648 0109 03       		.byte	0x3
 1649 010a ED       		.byte	0xed
 1650 010b CF000000 		.4byte	0xcf
 1651 010f 0B       		.uleb128 0xb
 1652 0110 4F020000 		.4byte	.LASF22
 1653 0114 01       		.byte	0x1
 1654 0115 8E02     		.2byte	0x28e
 1655 0117 A4000000 		.4byte	0xa4
 1656 011b 01       		.byte	0x1
 1657 011c 2D010000 		.4byte	0x12d
 1658 0120 0C       		.uleb128 0xc
 1659 0121 0F000000 		.4byte	.LASF24
 1660 0125 01       		.byte	0x1
 1661 0126 9002     		.2byte	0x290
 1662 0128 A4000000 		.4byte	0xa4
 1663 012c 00       		.byte	0
 1664 012d 0B       		.uleb128 0xb
 1665 012e 7C020000 		.4byte	.LASF23
 1666 0132 01       		.byte	0x1
 1667 0133 3A02     		.2byte	0x23a
 1668 0135 A4000000 		.4byte	0xa4
 1669 0139 01       		.byte	0x1
 1670 013a 57010000 		.4byte	0x157
 1671 013e 0C       		.uleb128 0xc
 1672 013f 0F000000 		.4byte	.LASF24
 1673 0143 01       		.byte	0x1
 1674 0144 3C02     		.2byte	0x23c
 1675 0146 A4000000 		.4byte	0xa4
 1676 014a 0C       		.uleb128 0xc
 1677 014b C0000000 		.4byte	.LASF25
 1678 014f 01       		.byte	0x1
 1679 0150 4002     		.2byte	0x240
 1680 0152 67010000 		.4byte	0x167
 1681 0156 00       		.byte	0
 1682 0157 08       		.uleb128 0x8
 1683 0158 BC000000 		.4byte	0xbc
 1684 015c 67010000 		.4byte	0x167
 1685 0160 09       		.uleb128 0x9
 1686 0161 C8000000 		.4byte	0xc8
 1687 0165 01       		.byte	0x1
 1688 0166 00       		.byte	0
 1689 0167 05       		.uleb128 0x5
 1690 0168 57010000 		.4byte	0x157
 1691 016c 0B       		.uleb128 0xb
 1692 016d 65020000 		.4byte	.LASF26
 1693 0171 01       		.byte	0x1
 1694 0172 D802     		.2byte	0x2d8
 1695 0174 A4000000 		.4byte	0xa4
 1696 0178 01       		.byte	0x1
 1697 0179 96010000 		.4byte	0x196
 1698 017d 0C       		.uleb128 0xc
 1699 017e 0F000000 		.4byte	.LASF24
 1700 0182 01       		.byte	0x1
 1701 0183 DA02     		.2byte	0x2da
 1702 0185 A4000000 		.4byte	0xa4
ARM GAS  C:\Users\Daniela\AppData\Local\Temp\ccm3GHIA.s 			page 86


 1703 0189 0C       		.uleb128 0xc
 1704 018a C0000000 		.4byte	.LASF25
 1705 018e 01       		.byte	0x1
 1706 018f DE02     		.2byte	0x2de
 1707 0191 96010000 		.4byte	0x196
 1708 0195 00       		.byte	0
 1709 0196 05       		.uleb128 0x5
 1710 0197 57010000 		.4byte	0x157
 1711 019b 0D       		.uleb128 0xd
 1712 019c 37030000 		.4byte	.LASF32
 1713 01a0 01       		.byte	0x1
 1714 01a1 51       		.byte	0x51
 1715 01a2 83000000 		.4byte	0x83
 1716 01a6 00000000 		.4byte	.LFB2
 1717 01aa 9C010000 		.4byte	.LFE2-.LFB2
 1718 01ae 01       		.uleb128 0x1
 1719 01af 9C       		.byte	0x9c
 1720 01b0 BE020000 		.4byte	0x2be
 1721 01b4 0E       		.uleb128 0xe
 1722 01b5 18000000 		.4byte	.LASF27
 1723 01b9 01       		.byte	0x1
 1724 01ba 51       		.byte	0x51
 1725 01bb 83000000 		.4byte	0x83
 1726 01bf 00000000 		.4byte	.LLST0
 1727 01c3 0E       		.uleb128 0xe
 1728 01c4 B8000000 		.4byte	.LASF28
 1729 01c8 01       		.byte	0x1
 1730 01c9 51       		.byte	0x51
 1731 01ca BE020000 		.4byte	0x2be
 1732 01ce 77000000 		.4byte	.LLST1
 1733 01d2 0F       		.uleb128 0xf
 1734 01d3 0F000000 		.4byte	.LASF24
 1735 01d7 01       		.byte	0x1
 1736 01d8 53       		.byte	0x53
 1737 01d9 BC000000 		.4byte	0xbc
 1738 01dd 03       		.uleb128 0x3
 1739 01de 91       		.byte	0x91
 1740 01df D07E     		.sleb128 -176
 1741 01e1 0F       		.uleb128 0xf
 1742 01e2 1F000000 		.4byte	.LASF29
 1743 01e6 01       		.byte	0x1
 1744 01e7 54       		.byte	0x54
 1745 01e8 BC000000 		.4byte	0xbc
 1746 01ec 03       		.uleb128 0x3
 1747 01ed 91       		.byte	0x91
 1748 01ee D47E     		.sleb128 -172
 1749 01f0 0F       		.uleb128 0xf
 1750 01f1 C0000000 		.4byte	.LASF25
 1751 01f5 01       		.byte	0x1
 1752 01f6 55       		.byte	0x55
 1753 01f7 D9020000 		.4byte	0x2d9
 1754 01fb 03       		.uleb128 0x3
 1755 01fc 91       		.byte	0x91
 1756 01fd E87E     		.sleb128 -152
 1757 01ff 10       		.uleb128 0x10
 1758 0200 08020000 		.4byte	.LASF30
 1759 0204 01       		.byte	0x1
ARM GAS  C:\Users\Daniela\AppData\Local\Temp\ccm3GHIA.s 			page 87


 1760 0205 56       		.byte	0x56
 1761 0206 6B000000 		.4byte	0x6b
 1762 020a B1000000 		.4byte	.LLST2
 1763 020e 11       		.uleb128 0x11
 1764 020f 2D010000 		.4byte	0x12d
 1765 0213 62000000 		.4byte	.LBB12
 1766 0217 00000000 		.4byte	.Ldebug_ranges0+0
 1767 021b 01       		.byte	0x1
 1768 021c 91       		.byte	0x91
 1769 021d 3A020000 		.4byte	0x23a
 1770 0221 12       		.uleb128 0x12
 1771 0222 00000000 		.4byte	.Ldebug_ranges0+0
 1772 0226 13       		.uleb128 0x13
 1773 0227 3E010000 		.4byte	0x13e
 1774 022b DA000000 		.4byte	.LLST3
 1775 022f 14       		.uleb128 0x14
 1776 0230 4A010000 		.4byte	0x14a
 1777 0234 03       		.uleb128 0x3
 1778 0235 91       		.byte	0x91
 1779 0236 D87E     		.sleb128 -168
 1780 0238 00       		.byte	0
 1781 0239 00       		.byte	0
 1782 023a 11       		.uleb128 0x11
 1783 023b 0F010000 		.4byte	0x10f
 1784 023f 9A000000 		.4byte	.LBB15
 1785 0243 18000000 		.4byte	.Ldebug_ranges0+0x18
 1786 0247 01       		.byte	0x1
 1787 0248 96       		.byte	0x96
 1788 0249 5D020000 		.4byte	0x25d
 1789 024d 12       		.uleb128 0x12
 1790 024e 18000000 		.4byte	.Ldebug_ranges0+0x18
 1791 0252 13       		.uleb128 0x13
 1792 0253 20010000 		.4byte	0x120
 1793 0257 FA000000 		.4byte	.LLST4
 1794 025b 00       		.byte	0
 1795 025c 00       		.byte	0
 1796 025d 11       		.uleb128 0x11
 1797 025e 6C010000 		.4byte	0x16c
 1798 0262 1A010000 		.4byte	.LBB19
 1799 0266 30000000 		.4byte	.Ldebug_ranges0+0x30
 1800 026a 01       		.byte	0x1
 1801 026b CC       		.byte	0xcc
 1802 026c 89020000 		.4byte	0x289
 1803 0270 12       		.uleb128 0x12
 1804 0271 30000000 		.4byte	.Ldebug_ranges0+0x30
 1805 0275 13       		.uleb128 0x13
 1806 0276 7D010000 		.4byte	0x17d
 1807 027a 1A010000 		.4byte	.LLST5
 1808 027e 14       		.uleb128 0x14
 1809 027f 89010000 		.4byte	0x189
 1810 0283 03       		.uleb128 0x3
 1811 0284 91       		.byte	0x91
 1812 0285 E07E     		.sleb128 -160
 1813 0287 00       		.byte	0
 1814 0288 00       		.byte	0
 1815 0289 15       		.uleb128 0x15
 1816 028a 20000000 		.4byte	.LVL2
ARM GAS  C:\Users\Daniela\AppData\Local\Temp\ccm3GHIA.s 			page 88


 1817 028e 84040000 		.4byte	0x484
 1818 0292 AB020000 		.4byte	0x2ab
 1819 0296 16       		.uleb128 0x16
 1820 0297 01       		.uleb128 0x1
 1821 0298 50       		.byte	0x50
 1822 0299 03       		.uleb128 0x3
 1823 029a 91       		.byte	0x91
 1824 029b F07E     		.sleb128 -144
 1825 029d 16       		.uleb128 0x16
 1826 029e 01       		.uleb128 0x1
 1827 029f 51       		.byte	0x51
 1828 02a0 03       		.uleb128 0x3
 1829 02a1 F3       		.byte	0xf3
 1830 02a2 01       		.uleb128 0x1
 1831 02a3 51       		.byte	0x51
 1832 02a4 16       		.uleb128 0x16
 1833 02a5 01       		.uleb128 0x1
 1834 02a6 52       		.byte	0x52
 1835 02a7 02       		.uleb128 0x2
 1836 02a8 08       		.byte	0x8
 1837 02a9 80       		.byte	0x80
 1838 02aa 00       		.byte	0
 1839 02ab 17       		.uleb128 0x17
 1840 02ac 62000000 		.4byte	.LVL3
 1841 02b0 8D040000 		.4byte	0x48d
 1842 02b4 17       		.uleb128 0x17
 1843 02b5 FE000000 		.4byte	.LVL8
 1844 02b9 98040000 		.4byte	0x498
 1845 02bd 00       		.byte	0
 1846 02be 18       		.uleb128 0x18
 1847 02bf 04       		.byte	0x4
 1848 02c0 C4020000 		.4byte	0x2c4
 1849 02c4 19       		.uleb128 0x19
 1850 02c5 6B000000 		.4byte	0x6b
 1851 02c9 08       		.uleb128 0x8
 1852 02ca BC000000 		.4byte	0xbc
 1853 02ce D9020000 		.4byte	0x2d9
 1854 02d2 09       		.uleb128 0x9
 1855 02d3 C8000000 		.4byte	0xc8
 1856 02d7 21       		.byte	0x21
 1857 02d8 00       		.byte	0
 1858 02d9 05       		.uleb128 0x5
 1859 02da C9020000 		.4byte	0x2c9
 1860 02de 1A       		.uleb128 0x1a
 1861 02df 4A030000 		.4byte	.LASF42
 1862 02e3 01       		.byte	0x1
 1863 02e4 A601     		.2byte	0x1a6
 1864 02e6 00000000 		.4byte	.LFB3
 1865 02ea 54000000 		.4byte	.LFE3-.LFB3
 1866 02ee 01       		.uleb128 0x1
 1867 02ef 9C       		.byte	0x9c
 1868 02f0 41030000 		.4byte	0x341
 1869 02f4 1B       		.uleb128 0x1b
 1870 02f5 3C020000 		.4byte	.LASF31
 1871 02f9 01       		.byte	0x1
 1872 02fa A601     		.2byte	0x1a6
 1873 02fc 83000000 		.4byte	0x83
ARM GAS  C:\Users\Daniela\AppData\Local\Temp\ccm3GHIA.s 			page 89


 1874 0300 3A010000 		.4byte	.LLST6
 1875 0304 1C       		.uleb128 0x1c
 1876 0305 08020000 		.4byte	.LASF30
 1877 0309 01       		.byte	0x1
 1878 030a A801     		.2byte	0x1a8
 1879 030c 6B000000 		.4byte	0x6b
 1880 0310 71010000 		.4byte	.LLST7
 1881 0314 17       		.uleb128 0x17
 1882 0315 08000000 		.4byte	.LVL19
 1883 0319 8D040000 		.4byte	0x48d
 1884 031d 15       		.uleb128 0x15
 1885 031e 2A000000 		.4byte	.LVL21
 1886 0322 98040000 		.4byte	0x498
 1887 0326 31030000 		.4byte	0x331
 1888 032a 16       		.uleb128 0x16
 1889 032b 01       		.uleb128 0x1
 1890 032c 50       		.byte	0x50
 1891 032d 02       		.uleb128 0x2
 1892 032e 75       		.byte	0x75
 1893 032f 00       		.sleb128 0
 1894 0330 00       		.byte	0
 1895 0331 1D       		.uleb128 0x1d
 1896 0332 4E000000 		.4byte	.LVL25
 1897 0336 A3040000 		.4byte	0x4a3
 1898 033a 16       		.uleb128 0x16
 1899 033b 01       		.uleb128 0x1
 1900 033c 50       		.byte	0x50
 1901 033d 01       		.uleb128 0x1
 1902 033e 30       		.byte	0x30
 1903 033f 00       		.byte	0
 1904 0340 00       		.byte	0
 1905 0341 1E       		.uleb128 0x1e
 1906 0342 4A000000 		.4byte	.LASF33
 1907 0346 01       		.byte	0x1
 1908 0347 EA01     		.2byte	0x1ea
 1909 0349 83000000 		.4byte	0x83
 1910 034d 00000000 		.4byte	.LFB4
 1911 0351 6C010000 		.4byte	.LFE4-.LFB4
 1912 0355 01       		.uleb128 0x1
 1913 0356 9C       		.byte	0x9c
 1914 0357 6E040000 		.4byte	0x46e
 1915 035b 1B       		.uleb128 0x1b
 1916 035c 18000000 		.4byte	.LASF27
 1917 0360 01       		.byte	0x1
 1918 0361 EA01     		.2byte	0x1ea
 1919 0363 83000000 		.4byte	0x83
 1920 0367 8F010000 		.4byte	.LLST8
 1921 036b 1B       		.uleb128 0x1b
 1922 036c B8000000 		.4byte	.LASF28
 1923 0370 01       		.byte	0x1
 1924 0371 EA01     		.2byte	0x1ea
 1925 0373 BE020000 		.4byte	0x2be
 1926 0377 1E020000 		.4byte	.LLST9
 1927 037b 1F       		.uleb128 0x1f
 1928 037c 0F000000 		.4byte	.LASF24
 1929 0380 01       		.byte	0x1
 1930 0381 EC01     		.2byte	0x1ec
ARM GAS  C:\Users\Daniela\AppData\Local\Temp\ccm3GHIA.s 			page 90


 1931 0383 BC000000 		.4byte	0xbc
 1932 0387 03       		.uleb128 0x3
 1933 0388 91       		.byte	0x91
 1934 0389 D07E     		.sleb128 -176
 1935 038b 1F       		.uleb128 0x1f
 1936 038c 1F000000 		.4byte	.LASF29
 1937 0390 01       		.byte	0x1
 1938 0391 ED01     		.2byte	0x1ed
 1939 0393 BC000000 		.4byte	0xbc
 1940 0397 03       		.uleb128 0x3
 1941 0398 91       		.byte	0x91
 1942 0399 D47E     		.sleb128 -172
 1943 039b 1F       		.uleb128 0x1f
 1944 039c C0000000 		.4byte	.LASF25
 1945 03a0 01       		.byte	0x1
 1946 03a1 EE01     		.2byte	0x1ee
 1947 03a3 6E040000 		.4byte	0x46e
 1948 03a7 03       		.uleb128 0x3
 1949 03a8 91       		.byte	0x91
 1950 03a9 E87E     		.sleb128 -152
 1951 03ab 1C       		.uleb128 0x1c
 1952 03ac 08020000 		.4byte	.LASF30
 1953 03b0 01       		.byte	0x1
 1954 03b1 EF01     		.2byte	0x1ef
 1955 03b3 6B000000 		.4byte	0x6b
 1956 03b7 58020000 		.4byte	.LLST10
 1957 03bb 20       		.uleb128 0x20
 1958 03bc 2D010000 		.4byte	0x12d
 1959 03c0 54000000 		.4byte	.LBB30
 1960 03c4 48000000 		.4byte	.Ldebug_ranges0+0x48
 1961 03c8 01       		.byte	0x1
 1962 03c9 0B02     		.2byte	0x20b
 1963 03cb E8030000 		.4byte	0x3e8
 1964 03cf 12       		.uleb128 0x12
 1965 03d0 48000000 		.4byte	.Ldebug_ranges0+0x48
 1966 03d4 13       		.uleb128 0x13
 1967 03d5 3E010000 		.4byte	0x13e
 1968 03d9 76020000 		.4byte	.LLST11
 1969 03dd 14       		.uleb128 0x14
 1970 03de 4A010000 		.4byte	0x14a
 1971 03e2 03       		.uleb128 0x3
 1972 03e3 91       		.byte	0x91
 1973 03e4 D87E     		.sleb128 -168
 1974 03e6 00       		.byte	0
 1975 03e7 00       		.byte	0
 1976 03e8 20       		.uleb128 0x20
 1977 03e9 0F010000 		.4byte	0x10f
 1978 03ed 8A000000 		.4byte	.LBB33
 1979 03f1 60000000 		.4byte	.Ldebug_ranges0+0x60
 1980 03f5 01       		.byte	0x1
 1981 03f6 1002     		.2byte	0x210
 1982 03f8 0C040000 		.4byte	0x40c
 1983 03fc 12       		.uleb128 0x12
 1984 03fd 60000000 		.4byte	.Ldebug_ranges0+0x60
 1985 0401 13       		.uleb128 0x13
 1986 0402 20010000 		.4byte	0x120
 1987 0406 96020000 		.4byte	.LLST12
ARM GAS  C:\Users\Daniela\AppData\Local\Temp\ccm3GHIA.s 			page 91


 1988 040a 00       		.byte	0
 1989 040b 00       		.byte	0
 1990 040c 20       		.uleb128 0x20
 1991 040d 6C010000 		.4byte	0x16c
 1992 0411 FC000000 		.4byte	.LBB36
 1993 0415 78000000 		.4byte	.Ldebug_ranges0+0x78
 1994 0419 01       		.byte	0x1
 1995 041a 2202     		.2byte	0x222
 1996 041c 39040000 		.4byte	0x439
 1997 0420 12       		.uleb128 0x12
 1998 0421 78000000 		.4byte	.Ldebug_ranges0+0x78
 1999 0425 13       		.uleb128 0x13
 2000 0426 7D010000 		.4byte	0x17d
 2001 042a B6020000 		.4byte	.LLST13
 2002 042e 14       		.uleb128 0x14
 2003 042f 89010000 		.4byte	0x189
 2004 0433 03       		.uleb128 0x3
 2005 0434 91       		.byte	0x91
 2006 0435 E07E     		.sleb128 -160
 2007 0437 00       		.byte	0
 2008 0438 00       		.byte	0
 2009 0439 15       		.uleb128 0x15
 2010 043a 24000000 		.4byte	.LVL28
 2011 043e 84040000 		.4byte	0x484
 2012 0442 5B040000 		.4byte	0x45b
 2013 0446 16       		.uleb128 0x16
 2014 0447 01       		.uleb128 0x1
 2015 0448 50       		.byte	0x50
 2016 0449 03       		.uleb128 0x3
 2017 044a 91       		.byte	0x91
 2018 044b F07E     		.sleb128 -144
 2019 044d 16       		.uleb128 0x16
 2020 044e 01       		.uleb128 0x1
 2021 044f 51       		.byte	0x51
 2022 0450 03       		.uleb128 0x3
 2023 0451 F3       		.byte	0xf3
 2024 0452 01       		.uleb128 0x1
 2025 0453 51       		.byte	0x51
 2026 0454 16       		.uleb128 0x16
 2027 0455 01       		.uleb128 0x1
 2028 0456 52       		.byte	0x52
 2029 0457 02       		.uleb128 0x2
 2030 0458 08       		.byte	0x8
 2031 0459 80       		.byte	0x80
 2032 045a 00       		.byte	0
 2033 045b 17       		.uleb128 0x17
 2034 045c 54000000 		.4byte	.LVL29
 2035 0460 8D040000 		.4byte	0x48d
 2036 0464 17       		.uleb128 0x17
 2037 0465 EC000000 		.4byte	.LVL35
 2038 0469 98040000 		.4byte	0x498
 2039 046d 00       		.byte	0
 2040 046e 05       		.uleb128 0x5
 2041 046f C9020000 		.4byte	0x2c9
 2042 0473 0F       		.uleb128 0xf
 2043 0474 CB000000 		.4byte	.LASF34
 2044 0478 01       		.byte	0x1
ARM GAS  C:\Users\Daniela\AppData\Local\Temp\ccm3GHIA.s 			page 92


 2045 0479 22       		.byte	0x22
 2046 047a 04010000 		.4byte	0x104
 2047 047e 05       		.uleb128 0x5
 2048 047f 03       		.byte	0x3
 2049 0480 00000000 		.4byte	cySysFlashBackup
 2050 0484 21       		.uleb128 0x21
 2051 0485 35020000 		.4byte	.LASF43
 2052 0489 35020000 		.4byte	.LASF43
 2053 048d 22       		.uleb128 0x22
 2054 048e A8010000 		.4byte	.LASF35
 2055 0492 A8010000 		.4byte	.LASF35
 2056 0496 04       		.byte	0x4
 2057 0497 E5       		.byte	0xe5
 2058 0498 22       		.uleb128 0x22
 2059 0499 F2010000 		.4byte	.LASF36
 2060 049d F2010000 		.4byte	.LASF36
 2061 04a1 04       		.byte	0x4
 2062 04a2 E6       		.byte	0xe6
 2063 04a3 22       		.uleb128 0x22
 2064 04a4 17020000 		.4byte	.LASF37
 2065 04a8 17020000 		.4byte	.LASF37
 2066 04ac 04       		.byte	0x4
 2067 04ad E7       		.byte	0xe7
 2068 04ae 00       		.byte	0
 2069              		.section	.debug_abbrev,"",%progbits
 2070              	.Ldebug_abbrev0:
 2071 0000 01       		.uleb128 0x1
 2072 0001 11       		.uleb128 0x11
 2073 0002 01       		.byte	0x1
 2074 0003 25       		.uleb128 0x25
 2075 0004 0E       		.uleb128 0xe
 2076 0005 13       		.uleb128 0x13
 2077 0006 0B       		.uleb128 0xb
 2078 0007 03       		.uleb128 0x3
 2079 0008 0E       		.uleb128 0xe
 2080 0009 1B       		.uleb128 0x1b
 2081 000a 0E       		.uleb128 0xe
 2082 000b 55       		.uleb128 0x55
 2083 000c 17       		.uleb128 0x17
 2084 000d 11       		.uleb128 0x11
 2085 000e 01       		.uleb128 0x1
 2086 000f 10       		.uleb128 0x10
 2087 0010 17       		.uleb128 0x17
 2088 0011 00       		.byte	0
 2089 0012 00       		.byte	0
 2090 0013 02       		.uleb128 0x2
 2091 0014 24       		.uleb128 0x24
 2092 0015 00       		.byte	0
 2093 0016 0B       		.uleb128 0xb
 2094 0017 0B       		.uleb128 0xb
 2095 0018 3E       		.uleb128 0x3e
 2096 0019 0B       		.uleb128 0xb
 2097 001a 03       		.uleb128 0x3
 2098 001b 0E       		.uleb128 0xe
 2099 001c 00       		.byte	0
 2100 001d 00       		.byte	0
 2101 001e 03       		.uleb128 0x3
ARM GAS  C:\Users\Daniela\AppData\Local\Temp\ccm3GHIA.s 			page 93


 2102 001f 24       		.uleb128 0x24
 2103 0020 00       		.byte	0
 2104 0021 0B       		.uleb128 0xb
 2105 0022 0B       		.uleb128 0xb
 2106 0023 3E       		.uleb128 0x3e
 2107 0024 0B       		.uleb128 0xb
 2108 0025 03       		.uleb128 0x3
 2109 0026 08       		.uleb128 0x8
 2110 0027 00       		.byte	0
 2111 0028 00       		.byte	0
 2112 0029 04       		.uleb128 0x4
 2113 002a 16       		.uleb128 0x16
 2114 002b 00       		.byte	0
 2115 002c 03       		.uleb128 0x3
 2116 002d 0E       		.uleb128 0xe
 2117 002e 3A       		.uleb128 0x3a
 2118 002f 0B       		.uleb128 0xb
 2119 0030 3B       		.uleb128 0x3b
 2120 0031 05       		.uleb128 0x5
 2121 0032 49       		.uleb128 0x49
 2122 0033 13       		.uleb128 0x13
 2123 0034 00       		.byte	0
 2124 0035 00       		.byte	0
 2125 0036 05       		.uleb128 0x5
 2126 0037 35       		.uleb128 0x35
 2127 0038 00       		.byte	0
 2128 0039 49       		.uleb128 0x49
 2129 003a 13       		.uleb128 0x13
 2130 003b 00       		.byte	0
 2131 003c 00       		.byte	0
 2132 003d 06       		.uleb128 0x6
 2133 003e 13       		.uleb128 0x13
 2134 003f 01       		.byte	0x1
 2135 0040 03       		.uleb128 0x3
 2136 0041 0E       		.uleb128 0xe
 2137 0042 0B       		.uleb128 0xb
 2138 0043 0B       		.uleb128 0xb
 2139 0044 3A       		.uleb128 0x3a
 2140 0045 0B       		.uleb128 0xb
 2141 0046 3B       		.uleb128 0x3b
 2142 0047 0B       		.uleb128 0xb
 2143 0048 01       		.uleb128 0x1
 2144 0049 13       		.uleb128 0x13
 2145 004a 00       		.byte	0
 2146 004b 00       		.byte	0
 2147 004c 07       		.uleb128 0x7
 2148 004d 0D       		.uleb128 0xd
 2149 004e 00       		.byte	0
 2150 004f 03       		.uleb128 0x3
 2151 0050 0E       		.uleb128 0xe
 2152 0051 3A       		.uleb128 0x3a
 2153 0052 0B       		.uleb128 0xb
 2154 0053 3B       		.uleb128 0x3b
 2155 0054 0B       		.uleb128 0xb
 2156 0055 49       		.uleb128 0x49
 2157 0056 13       		.uleb128 0x13
 2158 0057 38       		.uleb128 0x38
ARM GAS  C:\Users\Daniela\AppData\Local\Temp\ccm3GHIA.s 			page 94


 2159 0058 0B       		.uleb128 0xb
 2160 0059 00       		.byte	0
 2161 005a 00       		.byte	0
 2162 005b 08       		.uleb128 0x8
 2163 005c 01       		.uleb128 0x1
 2164 005d 01       		.byte	0x1
 2165 005e 49       		.uleb128 0x49
 2166 005f 13       		.uleb128 0x13
 2167 0060 01       		.uleb128 0x1
 2168 0061 13       		.uleb128 0x13
 2169 0062 00       		.byte	0
 2170 0063 00       		.byte	0
 2171 0064 09       		.uleb128 0x9
 2172 0065 21       		.uleb128 0x21
 2173 0066 00       		.byte	0
 2174 0067 49       		.uleb128 0x49
 2175 0068 13       		.uleb128 0x13
 2176 0069 2F       		.uleb128 0x2f
 2177 006a 0B       		.uleb128 0xb
 2178 006b 00       		.byte	0
 2179 006c 00       		.byte	0
 2180 006d 0A       		.uleb128 0xa
 2181 006e 16       		.uleb128 0x16
 2182 006f 00       		.byte	0
 2183 0070 03       		.uleb128 0x3
 2184 0071 0E       		.uleb128 0xe
 2185 0072 3A       		.uleb128 0x3a
 2186 0073 0B       		.uleb128 0xb
 2187 0074 3B       		.uleb128 0x3b
 2188 0075 0B       		.uleb128 0xb
 2189 0076 49       		.uleb128 0x49
 2190 0077 13       		.uleb128 0x13
 2191 0078 00       		.byte	0
 2192 0079 00       		.byte	0
 2193 007a 0B       		.uleb128 0xb
 2194 007b 2E       		.uleb128 0x2e
 2195 007c 01       		.byte	0x1
 2196 007d 03       		.uleb128 0x3
 2197 007e 0E       		.uleb128 0xe
 2198 007f 3A       		.uleb128 0x3a
 2199 0080 0B       		.uleb128 0xb
 2200 0081 3B       		.uleb128 0x3b
 2201 0082 05       		.uleb128 0x5
 2202 0083 27       		.uleb128 0x27
 2203 0084 19       		.uleb128 0x19
 2204 0085 49       		.uleb128 0x49
 2205 0086 13       		.uleb128 0x13
 2206 0087 20       		.uleb128 0x20
 2207 0088 0B       		.uleb128 0xb
 2208 0089 01       		.uleb128 0x1
 2209 008a 13       		.uleb128 0x13
 2210 008b 00       		.byte	0
 2211 008c 00       		.byte	0
 2212 008d 0C       		.uleb128 0xc
 2213 008e 34       		.uleb128 0x34
 2214 008f 00       		.byte	0
 2215 0090 03       		.uleb128 0x3
ARM GAS  C:\Users\Daniela\AppData\Local\Temp\ccm3GHIA.s 			page 95


 2216 0091 0E       		.uleb128 0xe
 2217 0092 3A       		.uleb128 0x3a
 2218 0093 0B       		.uleb128 0xb
 2219 0094 3B       		.uleb128 0x3b
 2220 0095 05       		.uleb128 0x5
 2221 0096 49       		.uleb128 0x49
 2222 0097 13       		.uleb128 0x13
 2223 0098 00       		.byte	0
 2224 0099 00       		.byte	0
 2225 009a 0D       		.uleb128 0xd
 2226 009b 2E       		.uleb128 0x2e
 2227 009c 01       		.byte	0x1
 2228 009d 3F       		.uleb128 0x3f
 2229 009e 19       		.uleb128 0x19
 2230 009f 03       		.uleb128 0x3
 2231 00a0 0E       		.uleb128 0xe
 2232 00a1 3A       		.uleb128 0x3a
 2233 00a2 0B       		.uleb128 0xb
 2234 00a3 3B       		.uleb128 0x3b
 2235 00a4 0B       		.uleb128 0xb
 2236 00a5 27       		.uleb128 0x27
 2237 00a6 19       		.uleb128 0x19
 2238 00a7 49       		.uleb128 0x49
 2239 00a8 13       		.uleb128 0x13
 2240 00a9 11       		.uleb128 0x11
 2241 00aa 01       		.uleb128 0x1
 2242 00ab 12       		.uleb128 0x12
 2243 00ac 06       		.uleb128 0x6
 2244 00ad 40       		.uleb128 0x40
 2245 00ae 18       		.uleb128 0x18
 2246 00af 9742     		.uleb128 0x2117
 2247 00b1 19       		.uleb128 0x19
 2248 00b2 01       		.uleb128 0x1
 2249 00b3 13       		.uleb128 0x13
 2250 00b4 00       		.byte	0
 2251 00b5 00       		.byte	0
 2252 00b6 0E       		.uleb128 0xe
 2253 00b7 05       		.uleb128 0x5
 2254 00b8 00       		.byte	0
 2255 00b9 03       		.uleb128 0x3
 2256 00ba 0E       		.uleb128 0xe
 2257 00bb 3A       		.uleb128 0x3a
 2258 00bc 0B       		.uleb128 0xb
 2259 00bd 3B       		.uleb128 0x3b
 2260 00be 0B       		.uleb128 0xb
 2261 00bf 49       		.uleb128 0x49
 2262 00c0 13       		.uleb128 0x13
 2263 00c1 02       		.uleb128 0x2
 2264 00c2 17       		.uleb128 0x17
 2265 00c3 00       		.byte	0
 2266 00c4 00       		.byte	0
 2267 00c5 0F       		.uleb128 0xf
 2268 00c6 34       		.uleb128 0x34
 2269 00c7 00       		.byte	0
 2270 00c8 03       		.uleb128 0x3
 2271 00c9 0E       		.uleb128 0xe
 2272 00ca 3A       		.uleb128 0x3a
ARM GAS  C:\Users\Daniela\AppData\Local\Temp\ccm3GHIA.s 			page 96


 2273 00cb 0B       		.uleb128 0xb
 2274 00cc 3B       		.uleb128 0x3b
 2275 00cd 0B       		.uleb128 0xb
 2276 00ce 49       		.uleb128 0x49
 2277 00cf 13       		.uleb128 0x13
 2278 00d0 02       		.uleb128 0x2
 2279 00d1 18       		.uleb128 0x18
 2280 00d2 00       		.byte	0
 2281 00d3 00       		.byte	0
 2282 00d4 10       		.uleb128 0x10
 2283 00d5 34       		.uleb128 0x34
 2284 00d6 00       		.byte	0
 2285 00d7 03       		.uleb128 0x3
 2286 00d8 0E       		.uleb128 0xe
 2287 00d9 3A       		.uleb128 0x3a
 2288 00da 0B       		.uleb128 0xb
 2289 00db 3B       		.uleb128 0x3b
 2290 00dc 0B       		.uleb128 0xb
 2291 00dd 49       		.uleb128 0x49
 2292 00de 13       		.uleb128 0x13
 2293 00df 02       		.uleb128 0x2
 2294 00e0 17       		.uleb128 0x17
 2295 00e1 00       		.byte	0
 2296 00e2 00       		.byte	0
 2297 00e3 11       		.uleb128 0x11
 2298 00e4 1D       		.uleb128 0x1d
 2299 00e5 01       		.byte	0x1
 2300 00e6 31       		.uleb128 0x31
 2301 00e7 13       		.uleb128 0x13
 2302 00e8 52       		.uleb128 0x52
 2303 00e9 01       		.uleb128 0x1
 2304 00ea 55       		.uleb128 0x55
 2305 00eb 17       		.uleb128 0x17
 2306 00ec 58       		.uleb128 0x58
 2307 00ed 0B       		.uleb128 0xb
 2308 00ee 59       		.uleb128 0x59
 2309 00ef 0B       		.uleb128 0xb
 2310 00f0 01       		.uleb128 0x1
 2311 00f1 13       		.uleb128 0x13
 2312 00f2 00       		.byte	0
 2313 00f3 00       		.byte	0
 2314 00f4 12       		.uleb128 0x12
 2315 00f5 0B       		.uleb128 0xb
 2316 00f6 01       		.byte	0x1
 2317 00f7 55       		.uleb128 0x55
 2318 00f8 17       		.uleb128 0x17
 2319 00f9 00       		.byte	0
 2320 00fa 00       		.byte	0
 2321 00fb 13       		.uleb128 0x13
 2322 00fc 34       		.uleb128 0x34
 2323 00fd 00       		.byte	0
 2324 00fe 31       		.uleb128 0x31
 2325 00ff 13       		.uleb128 0x13
 2326 0100 02       		.uleb128 0x2
 2327 0101 17       		.uleb128 0x17
 2328 0102 00       		.byte	0
 2329 0103 00       		.byte	0
ARM GAS  C:\Users\Daniela\AppData\Local\Temp\ccm3GHIA.s 			page 97


 2330 0104 14       		.uleb128 0x14
 2331 0105 34       		.uleb128 0x34
 2332 0106 00       		.byte	0
 2333 0107 31       		.uleb128 0x31
 2334 0108 13       		.uleb128 0x13
 2335 0109 02       		.uleb128 0x2
 2336 010a 18       		.uleb128 0x18
 2337 010b 00       		.byte	0
 2338 010c 00       		.byte	0
 2339 010d 15       		.uleb128 0x15
 2340 010e 898201   		.uleb128 0x4109
 2341 0111 01       		.byte	0x1
 2342 0112 11       		.uleb128 0x11
 2343 0113 01       		.uleb128 0x1
 2344 0114 31       		.uleb128 0x31
 2345 0115 13       		.uleb128 0x13
 2346 0116 01       		.uleb128 0x1
 2347 0117 13       		.uleb128 0x13
 2348 0118 00       		.byte	0
 2349 0119 00       		.byte	0
 2350 011a 16       		.uleb128 0x16
 2351 011b 8A8201   		.uleb128 0x410a
 2352 011e 00       		.byte	0
 2353 011f 02       		.uleb128 0x2
 2354 0120 18       		.uleb128 0x18
 2355 0121 9142     		.uleb128 0x2111
 2356 0123 18       		.uleb128 0x18
 2357 0124 00       		.byte	0
 2358 0125 00       		.byte	0
 2359 0126 17       		.uleb128 0x17
 2360 0127 898201   		.uleb128 0x4109
 2361 012a 00       		.byte	0
 2362 012b 11       		.uleb128 0x11
 2363 012c 01       		.uleb128 0x1
 2364 012d 31       		.uleb128 0x31
 2365 012e 13       		.uleb128 0x13
 2366 012f 00       		.byte	0
 2367 0130 00       		.byte	0
 2368 0131 18       		.uleb128 0x18
 2369 0132 0F       		.uleb128 0xf
 2370 0133 00       		.byte	0
 2371 0134 0B       		.uleb128 0xb
 2372 0135 0B       		.uleb128 0xb
 2373 0136 49       		.uleb128 0x49
 2374 0137 13       		.uleb128 0x13
 2375 0138 00       		.byte	0
 2376 0139 00       		.byte	0
 2377 013a 19       		.uleb128 0x19
 2378 013b 26       		.uleb128 0x26
 2379 013c 00       		.byte	0
 2380 013d 49       		.uleb128 0x49
 2381 013e 13       		.uleb128 0x13
 2382 013f 00       		.byte	0
 2383 0140 00       		.byte	0
 2384 0141 1A       		.uleb128 0x1a
 2385 0142 2E       		.uleb128 0x2e
 2386 0143 01       		.byte	0x1
ARM GAS  C:\Users\Daniela\AppData\Local\Temp\ccm3GHIA.s 			page 98


 2387 0144 3F       		.uleb128 0x3f
 2388 0145 19       		.uleb128 0x19
 2389 0146 03       		.uleb128 0x3
 2390 0147 0E       		.uleb128 0xe
 2391 0148 3A       		.uleb128 0x3a
 2392 0149 0B       		.uleb128 0xb
 2393 014a 3B       		.uleb128 0x3b
 2394 014b 05       		.uleb128 0x5
 2395 014c 27       		.uleb128 0x27
 2396 014d 19       		.uleb128 0x19
 2397 014e 11       		.uleb128 0x11
 2398 014f 01       		.uleb128 0x1
 2399 0150 12       		.uleb128 0x12
 2400 0151 06       		.uleb128 0x6
 2401 0152 40       		.uleb128 0x40
 2402 0153 18       		.uleb128 0x18
 2403 0154 9742     		.uleb128 0x2117
 2404 0156 19       		.uleb128 0x19
 2405 0157 01       		.uleb128 0x1
 2406 0158 13       		.uleb128 0x13
 2407 0159 00       		.byte	0
 2408 015a 00       		.byte	0
 2409 015b 1B       		.uleb128 0x1b
 2410 015c 05       		.uleb128 0x5
 2411 015d 00       		.byte	0
 2412 015e 03       		.uleb128 0x3
 2413 015f 0E       		.uleb128 0xe
 2414 0160 3A       		.uleb128 0x3a
 2415 0161 0B       		.uleb128 0xb
 2416 0162 3B       		.uleb128 0x3b
 2417 0163 05       		.uleb128 0x5
 2418 0164 49       		.uleb128 0x49
 2419 0165 13       		.uleb128 0x13
 2420 0166 02       		.uleb128 0x2
 2421 0167 17       		.uleb128 0x17
 2422 0168 00       		.byte	0
 2423 0169 00       		.byte	0
 2424 016a 1C       		.uleb128 0x1c
 2425 016b 34       		.uleb128 0x34
 2426 016c 00       		.byte	0
 2427 016d 03       		.uleb128 0x3
 2428 016e 0E       		.uleb128 0xe
 2429 016f 3A       		.uleb128 0x3a
 2430 0170 0B       		.uleb128 0xb
 2431 0171 3B       		.uleb128 0x3b
 2432 0172 05       		.uleb128 0x5
 2433 0173 49       		.uleb128 0x49
 2434 0174 13       		.uleb128 0x13
 2435 0175 02       		.uleb128 0x2
 2436 0176 17       		.uleb128 0x17
 2437 0177 00       		.byte	0
 2438 0178 00       		.byte	0
 2439 0179 1D       		.uleb128 0x1d
 2440 017a 898201   		.uleb128 0x4109
 2441 017d 01       		.byte	0x1
 2442 017e 11       		.uleb128 0x11
 2443 017f 01       		.uleb128 0x1
ARM GAS  C:\Users\Daniela\AppData\Local\Temp\ccm3GHIA.s 			page 99


 2444 0180 31       		.uleb128 0x31
 2445 0181 13       		.uleb128 0x13
 2446 0182 00       		.byte	0
 2447 0183 00       		.byte	0
 2448 0184 1E       		.uleb128 0x1e
 2449 0185 2E       		.uleb128 0x2e
 2450 0186 01       		.byte	0x1
 2451 0187 3F       		.uleb128 0x3f
 2452 0188 19       		.uleb128 0x19
 2453 0189 03       		.uleb128 0x3
 2454 018a 0E       		.uleb128 0xe
 2455 018b 3A       		.uleb128 0x3a
 2456 018c 0B       		.uleb128 0xb
 2457 018d 3B       		.uleb128 0x3b
 2458 018e 05       		.uleb128 0x5
 2459 018f 27       		.uleb128 0x27
 2460 0190 19       		.uleb128 0x19
 2461 0191 49       		.uleb128 0x49
 2462 0192 13       		.uleb128 0x13
 2463 0193 11       		.uleb128 0x11
 2464 0194 01       		.uleb128 0x1
 2465 0195 12       		.uleb128 0x12
 2466 0196 06       		.uleb128 0x6
 2467 0197 40       		.uleb128 0x40
 2468 0198 18       		.uleb128 0x18
 2469 0199 9742     		.uleb128 0x2117
 2470 019b 19       		.uleb128 0x19
 2471 019c 01       		.uleb128 0x1
 2472 019d 13       		.uleb128 0x13
 2473 019e 00       		.byte	0
 2474 019f 00       		.byte	0
 2475 01a0 1F       		.uleb128 0x1f
 2476 01a1 34       		.uleb128 0x34
 2477 01a2 00       		.byte	0
 2478 01a3 03       		.uleb128 0x3
 2479 01a4 0E       		.uleb128 0xe
 2480 01a5 3A       		.uleb128 0x3a
 2481 01a6 0B       		.uleb128 0xb
 2482 01a7 3B       		.uleb128 0x3b
 2483 01a8 05       		.uleb128 0x5
 2484 01a9 49       		.uleb128 0x49
 2485 01aa 13       		.uleb128 0x13
 2486 01ab 02       		.uleb128 0x2
 2487 01ac 18       		.uleb128 0x18
 2488 01ad 00       		.byte	0
 2489 01ae 00       		.byte	0
 2490 01af 20       		.uleb128 0x20
 2491 01b0 1D       		.uleb128 0x1d
 2492 01b1 01       		.byte	0x1
 2493 01b2 31       		.uleb128 0x31
 2494 01b3 13       		.uleb128 0x13
 2495 01b4 52       		.uleb128 0x52
 2496 01b5 01       		.uleb128 0x1
 2497 01b6 55       		.uleb128 0x55
 2498 01b7 17       		.uleb128 0x17
 2499 01b8 58       		.uleb128 0x58
 2500 01b9 0B       		.uleb128 0xb
ARM GAS  C:\Users\Daniela\AppData\Local\Temp\ccm3GHIA.s 			page 100


 2501 01ba 59       		.uleb128 0x59
 2502 01bb 05       		.uleb128 0x5
 2503 01bc 01       		.uleb128 0x1
 2504 01bd 13       		.uleb128 0x13
 2505 01be 00       		.byte	0
 2506 01bf 00       		.byte	0
 2507 01c0 21       		.uleb128 0x21
 2508 01c1 2E       		.uleb128 0x2e
 2509 01c2 00       		.byte	0
 2510 01c3 3F       		.uleb128 0x3f
 2511 01c4 19       		.uleb128 0x19
 2512 01c5 3C       		.uleb128 0x3c
 2513 01c6 19       		.uleb128 0x19
 2514 01c7 6E       		.uleb128 0x6e
 2515 01c8 0E       		.uleb128 0xe
 2516 01c9 03       		.uleb128 0x3
 2517 01ca 0E       		.uleb128 0xe
 2518 01cb 00       		.byte	0
 2519 01cc 00       		.byte	0
 2520 01cd 22       		.uleb128 0x22
 2521 01ce 2E       		.uleb128 0x2e
 2522 01cf 00       		.byte	0
 2523 01d0 3F       		.uleb128 0x3f
 2524 01d1 19       		.uleb128 0x19
 2525 01d2 3C       		.uleb128 0x3c
 2526 01d3 19       		.uleb128 0x19
 2527 01d4 6E       		.uleb128 0x6e
 2528 01d5 0E       		.uleb128 0xe
 2529 01d6 03       		.uleb128 0x3
 2530 01d7 0E       		.uleb128 0xe
 2531 01d8 3A       		.uleb128 0x3a
 2532 01d9 0B       		.uleb128 0xb
 2533 01da 3B       		.uleb128 0x3b
 2534 01db 0B       		.uleb128 0xb
 2535 01dc 00       		.byte	0
 2536 01dd 00       		.byte	0
 2537 01de 00       		.byte	0
 2538              		.section	.debug_loc,"",%progbits
 2539              	.Ldebug_loc0:
 2540              	.LLST0:
 2541 0000 00000000 		.4byte	.LVL0
 2542 0004 1C000000 		.4byte	.LVL1
 2543 0008 0100     		.2byte	0x1
 2544 000a 50       		.byte	0x50
 2545 000b 1C000000 		.4byte	.LVL1
 2546 000f C6000000 		.4byte	.LVL7
 2547 0013 0100     		.2byte	0x1
 2548 0015 54       		.byte	0x54
 2549 0016 C6000000 		.4byte	.LVL7
 2550 001a 00010000 		.4byte	.LVL9
 2551 001e 0400     		.2byte	0x4
 2552 0020 F3       		.byte	0xf3
 2553 0021 01       		.uleb128 0x1
 2554 0022 50       		.byte	0x50
 2555 0023 9F       		.byte	0x9f
 2556 0024 00010000 		.4byte	.LVL9
 2557 0028 04010000 		.4byte	.LVL10
ARM GAS  C:\Users\Daniela\AppData\Local\Temp\ccm3GHIA.s 			page 101


 2558 002c 0100     		.2byte	0x1
 2559 002e 50       		.byte	0x50
 2560 002f 04010000 		.4byte	.LVL10
 2561 0033 0A010000 		.4byte	.LVL11
 2562 0037 0400     		.2byte	0x4
 2563 0039 F3       		.byte	0xf3
 2564 003a 01       		.uleb128 0x1
 2565 003b 50       		.byte	0x50
 2566 003c 9F       		.byte	0x9f
 2567 003d 0A010000 		.4byte	.LVL11
 2568 0041 1A010000 		.4byte	.LVL14
 2569 0045 0100     		.2byte	0x1
 2570 0047 54       		.byte	0x54
 2571 0048 1A010000 		.4byte	.LVL14
 2572 004c 52010000 		.4byte	.LVL16
 2573 0050 0400     		.2byte	0x4
 2574 0052 F3       		.byte	0xf3
 2575 0053 01       		.uleb128 0x1
 2576 0054 50       		.byte	0x50
 2577 0055 9F       		.byte	0x9f
 2578 0056 52010000 		.4byte	.LVL16
 2579 005a 56010000 		.4byte	.LVL17
 2580 005e 0100     		.2byte	0x1
 2581 0060 54       		.byte	0x54
 2582 0061 56010000 		.4byte	.LVL17
 2583 0065 9C010000 		.4byte	.LFE2
 2584 0069 0400     		.2byte	0x4
 2585 006b F3       		.byte	0xf3
 2586 006c 01       		.uleb128 0x1
 2587 006d 50       		.byte	0x50
 2588 006e 9F       		.byte	0x9f
 2589 006f 00000000 		.4byte	0
 2590 0073 00000000 		.4byte	0
 2591              	.LLST1:
 2592 0077 00000000 		.4byte	.LVL0
 2593 007b 1F000000 		.4byte	.LVL2-1
 2594 007f 0100     		.2byte	0x1
 2595 0081 51       		.byte	0x51
 2596 0082 1F000000 		.4byte	.LVL2-1
 2597 0086 00010000 		.4byte	.LVL9
 2598 008a 0400     		.2byte	0x4
 2599 008c F3       		.byte	0xf3
 2600 008d 01       		.uleb128 0x1
 2601 008e 51       		.byte	0x51
 2602 008f 9F       		.byte	0x9f
 2603 0090 00010000 		.4byte	.LVL9
 2604 0094 04010000 		.4byte	.LVL10
 2605 0098 0100     		.2byte	0x1
 2606 009a 51       		.byte	0x51
 2607 009b 04010000 		.4byte	.LVL10
 2608 009f 9C010000 		.4byte	.LFE2
 2609 00a3 0400     		.2byte	0x4
 2610 00a5 F3       		.byte	0xf3
 2611 00a6 01       		.uleb128 0x1
 2612 00a7 51       		.byte	0x51
 2613 00a8 9F       		.byte	0x9f
 2614 00a9 00000000 		.4byte	0
ARM GAS  C:\Users\Daniela\AppData\Local\Temp\ccm3GHIA.s 			page 102


 2615 00ad 00000000 		.4byte	0
 2616              	.LLST2:
 2617 00b1 62000000 		.4byte	.LVL3
 2618 00b5 FD000000 		.4byte	.LVL8-1
 2619 00b9 0100     		.2byte	0x1
 2620 00bb 50       		.byte	0x50
 2621 00bc 0E010000 		.4byte	.LVL12
 2622 00c0 16010000 		.4byte	.LVL13
 2623 00c4 0100     		.2byte	0x1
 2624 00c6 50       		.byte	0x50
 2625 00c7 1A010000 		.4byte	.LVL14
 2626 00cb 9C010000 		.4byte	.LFE2
 2627 00cf 0100     		.2byte	0x1
 2628 00d1 50       		.byte	0x50
 2629 00d2 00000000 		.4byte	0
 2630 00d6 00000000 		.4byte	0
 2631              	.LLST3:
 2632 00da 62000000 		.4byte	.LVL3
 2633 00de 92000000 		.4byte	.LVL4
 2634 00e2 0200     		.2byte	0x2
 2635 00e4 30       		.byte	0x30
 2636 00e5 9F       		.byte	0x9f
 2637 00e6 52010000 		.4byte	.LVL16
 2638 00ea 56010000 		.4byte	.LVL17
 2639 00ee 0200     		.2byte	0x2
 2640 00f0 30       		.byte	0x30
 2641 00f1 9F       		.byte	0x9f
 2642 00f2 00000000 		.4byte	0
 2643 00f6 00000000 		.4byte	0
 2644              	.LLST4:
 2645 00fa 9A000000 		.4byte	.LVL5
 2646 00fe BA000000 		.4byte	.LVL6
 2647 0102 0200     		.2byte	0x2
 2648 0104 30       		.byte	0x30
 2649 0105 9F       		.byte	0x9f
 2650 0106 0E010000 		.4byte	.LVL12
 2651 010a 16010000 		.4byte	.LVL13
 2652 010e 0200     		.2byte	0x2
 2653 0110 30       		.byte	0x30
 2654 0111 9F       		.byte	0x9f
 2655 0112 00000000 		.4byte	0
 2656 0116 00000000 		.4byte	0
 2657              	.LLST5:
 2658 011a 1A010000 		.4byte	.LVL14
 2659 011e 44010000 		.4byte	.LVL15
 2660 0122 0200     		.2byte	0x2
 2661 0124 30       		.byte	0x30
 2662 0125 9F       		.byte	0x9f
 2663 0126 56010000 		.4byte	.LVL17
 2664 012a 9C010000 		.4byte	.LFE2
 2665 012e 0200     		.2byte	0x2
 2666 0130 30       		.byte	0x30
 2667 0131 9F       		.byte	0x9f
 2668 0132 00000000 		.4byte	0
 2669 0136 00000000 		.4byte	0
 2670              	.LLST6:
 2671 013a 00000000 		.4byte	.LVL18
ARM GAS  C:\Users\Daniela\AppData\Local\Temp\ccm3GHIA.s 			page 103


 2672 013e 07000000 		.4byte	.LVL19-1
 2673 0142 0100     		.2byte	0x1
 2674 0144 50       		.byte	0x50
 2675 0145 07000000 		.4byte	.LVL19-1
 2676 0149 2A000000 		.4byte	.LVL22
 2677 014d 0100     		.2byte	0x1
 2678 014f 54       		.byte	0x54
 2679 0150 2A000000 		.4byte	.LVL22
 2680 0154 2C000000 		.4byte	.LVL24
 2681 0158 0400     		.2byte	0x4
 2682 015a F3       		.byte	0xf3
 2683 015b 01       		.uleb128 0x1
 2684 015c 50       		.byte	0x50
 2685 015d 9F       		.byte	0x9f
 2686 015e 2C000000 		.4byte	.LVL24
 2687 0162 54000000 		.4byte	.LFE3
 2688 0166 0100     		.2byte	0x1
 2689 0168 54       		.byte	0x54
 2690 0169 00000000 		.4byte	0
 2691 016d 00000000 		.4byte	0
 2692              	.LLST7:
 2693 0171 0A000000 		.4byte	.LVL20
 2694 0175 2A000000 		.4byte	.LVL23
 2695 0179 0100     		.2byte	0x1
 2696 017b 55       		.byte	0x55
 2697 017c 2C000000 		.4byte	.LVL24
 2698 0180 54000000 		.4byte	.LFE3
 2699 0184 0100     		.2byte	0x1
 2700 0186 55       		.byte	0x55
 2701 0187 00000000 		.4byte	0
 2702 018b 00000000 		.4byte	0
 2703              	.LLST8:
 2704 018f 00000000 		.4byte	.LVL26
 2705 0193 1E000000 		.4byte	.LVL27
 2706 0197 0100     		.2byte	0x1
 2707 0199 50       		.byte	0x50
 2708 019a 1E000000 		.4byte	.LVL27
 2709 019e C2000000 		.4byte	.LVL33
 2710 01a2 0100     		.2byte	0x1
 2711 01a4 54       		.byte	0x54
 2712 01a5 C2000000 		.4byte	.LVL33
 2713 01a9 C4000000 		.4byte	.LVL34
 2714 01ad 0300     		.2byte	0x3
 2715 01af 91       		.byte	0x91
 2716 01b0 EC7E     		.sleb128 -148
 2717 01b2 C4000000 		.4byte	.LVL34
 2718 01b6 EE000000 		.4byte	.LVL36
 2719 01ba 0400     		.2byte	0x4
 2720 01bc F3       		.byte	0xf3
 2721 01bd 01       		.uleb128 0x1
 2722 01be 50       		.byte	0x50
 2723 01bf 9F       		.byte	0x9f
 2724 01c0 EE000000 		.4byte	.LVL36
 2725 01c4 F2000000 		.4byte	.LVL37
 2726 01c8 0100     		.2byte	0x1
 2727 01ca 50       		.byte	0x50
 2728 01cb F2000000 		.4byte	.LVL37
ARM GAS  C:\Users\Daniela\AppData\Local\Temp\ccm3GHIA.s 			page 104


 2729 01cf F8000000 		.4byte	.LVL38
 2730 01d3 0400     		.2byte	0x4
 2731 01d5 F3       		.byte	0xf3
 2732 01d6 01       		.uleb128 0x1
 2733 01d7 50       		.byte	0x50
 2734 01d8 9F       		.byte	0x9f
 2735 01d9 F8000000 		.4byte	.LVL38
 2736 01dd FC000000 		.4byte	.LVL39
 2737 01e1 0100     		.2byte	0x1
 2738 01e3 54       		.byte	0x54
 2739 01e4 FC000000 		.4byte	.LVL39
 2740 01e8 2A010000 		.4byte	.LVL41
 2741 01ec 0400     		.2byte	0x4
 2742 01ee F3       		.byte	0xf3
 2743 01ef 01       		.uleb128 0x1
 2744 01f0 50       		.byte	0x50
 2745 01f1 9F       		.byte	0x9f
 2746 01f2 2A010000 		.4byte	.LVL41
 2747 01f6 2E010000 		.4byte	.LVL42
 2748 01fa 0100     		.2byte	0x1
 2749 01fc 54       		.byte	0x54
 2750 01fd 2E010000 		.4byte	.LVL42
 2751 0201 34010000 		.4byte	.LVL44
 2752 0205 0400     		.2byte	0x4
 2753 0207 F3       		.byte	0xf3
 2754 0208 01       		.uleb128 0x1
 2755 0209 50       		.byte	0x50
 2756 020a 9F       		.byte	0x9f
 2757 020b 34010000 		.4byte	.LVL44
 2758 020f 6C010000 		.4byte	.LFE4
 2759 0213 0100     		.2byte	0x1
 2760 0215 54       		.byte	0x54
 2761 0216 00000000 		.4byte	0
 2762 021a 00000000 		.4byte	0
 2763              	.LLST9:
 2764 021e 00000000 		.4byte	.LVL26
 2765 0222 23000000 		.4byte	.LVL28-1
 2766 0226 0100     		.2byte	0x1
 2767 0228 51       		.byte	0x51
 2768 0229 23000000 		.4byte	.LVL28-1
 2769 022d EE000000 		.4byte	.LVL36
 2770 0231 0400     		.2byte	0x4
 2771 0233 F3       		.byte	0xf3
 2772 0234 01       		.uleb128 0x1
 2773 0235 51       		.byte	0x51
 2774 0236 9F       		.byte	0x9f
 2775 0237 EE000000 		.4byte	.LVL36
 2776 023b F2000000 		.4byte	.LVL37
 2777 023f 0100     		.2byte	0x1
 2778 0241 51       		.byte	0x51
 2779 0242 F2000000 		.4byte	.LVL37
 2780 0246 6C010000 		.4byte	.LFE4
 2781 024a 0400     		.2byte	0x4
 2782 024c F3       		.byte	0xf3
 2783 024d 01       		.uleb128 0x1
 2784 024e 51       		.byte	0x51
 2785 024f 9F       		.byte	0x9f
ARM GAS  C:\Users\Daniela\AppData\Local\Temp\ccm3GHIA.s 			page 105


 2786 0250 00000000 		.4byte	0
 2787 0254 00000000 		.4byte	0
 2788              	.LLST10:
 2789 0258 54000000 		.4byte	.LVL29
 2790 025c EB000000 		.4byte	.LVL35-1
 2791 0260 0100     		.2byte	0x1
 2792 0262 50       		.byte	0x50
 2793 0263 FC000000 		.4byte	.LVL39
 2794 0267 6C010000 		.4byte	.LFE4
 2795 026b 0100     		.2byte	0x1
 2796 026d 50       		.byte	0x50
 2797 026e 00000000 		.4byte	0
 2798 0272 00000000 		.4byte	0
 2799              	.LLST11:
 2800 0276 54000000 		.4byte	.LVL29
 2801 027a 82000000 		.4byte	.LVL30
 2802 027e 0200     		.2byte	0x2
 2803 0280 30       		.byte	0x30
 2804 0281 9F       		.byte	0x9f
 2805 0282 34010000 		.4byte	.LVL44
 2806 0286 6C010000 		.4byte	.LFE4
 2807 028a 0200     		.2byte	0x2
 2808 028c 30       		.byte	0x30
 2809 028d 9F       		.byte	0x9f
 2810 028e 00000000 		.4byte	0
 2811 0292 00000000 		.4byte	0
 2812              	.LLST12:
 2813 0296 8A000000 		.4byte	.LVL31
 2814 029a AE000000 		.4byte	.LVL32
 2815 029e 0200     		.2byte	0x2
 2816 02a0 30       		.byte	0x30
 2817 02a1 9F       		.byte	0x9f
 2818 02a2 2A010000 		.4byte	.LVL41
 2819 02a6 2E010000 		.4byte	.LVL42
 2820 02aa 0200     		.2byte	0x2
 2821 02ac 30       		.byte	0x30
 2822 02ad 9F       		.byte	0x9f
 2823 02ae 00000000 		.4byte	0
 2824 02b2 00000000 		.4byte	0
 2825              	.LLST13:
 2826 02b6 FC000000 		.4byte	.LVL39
 2827 02ba 26010000 		.4byte	.LVL40
 2828 02be 0200     		.2byte	0x2
 2829 02c0 30       		.byte	0x30
 2830 02c1 9F       		.byte	0x9f
 2831 02c2 2E010000 		.4byte	.LVL42
 2832 02c6 30010000 		.4byte	.LVL43
 2833 02ca 0200     		.2byte	0x2
 2834 02cc 30       		.byte	0x30
 2835 02cd 9F       		.byte	0x9f
 2836 02ce 00000000 		.4byte	0
 2837 02d2 00000000 		.4byte	0
 2838              		.section	.debug_aranges,"",%progbits
 2839 0000 2C000000 		.4byte	0x2c
 2840 0004 0200     		.2byte	0x2
 2841 0006 00000000 		.4byte	.Ldebug_info0
 2842 000a 04       		.byte	0x4
ARM GAS  C:\Users\Daniela\AppData\Local\Temp\ccm3GHIA.s 			page 106


 2843 000b 00       		.byte	0
 2844 000c 0000     		.2byte	0
 2845 000e 0000     		.2byte	0
 2846 0010 00000000 		.4byte	.LFB2
 2847 0014 9C010000 		.4byte	.LFE2-.LFB2
 2848 0018 00000000 		.4byte	.LFB3
 2849 001c 54000000 		.4byte	.LFE3-.LFB3
 2850 0020 00000000 		.4byte	.LFB4
 2851 0024 6C010000 		.4byte	.LFE4-.LFB4
 2852 0028 00000000 		.4byte	0
 2853 002c 00000000 		.4byte	0
 2854              		.section	.debug_ranges,"",%progbits
 2855              	.Ldebug_ranges0:
 2856 0000 62000000 		.4byte	.LBB12
 2857 0004 92000000 		.4byte	.LBE12
 2858 0008 52010000 		.4byte	.LBB22
 2859 000c 56010000 		.4byte	.LBE22
 2860 0010 00000000 		.4byte	0
 2861 0014 00000000 		.4byte	0
 2862 0018 9A000000 		.4byte	.LBB15
 2863 001c BA000000 		.4byte	.LBE15
 2864 0020 0E010000 		.4byte	.LBB18
 2865 0024 16010000 		.4byte	.LBE18
 2866 0028 00000000 		.4byte	0
 2867 002c 00000000 		.4byte	0
 2868 0030 1A010000 		.4byte	.LBB19
 2869 0034 44010000 		.4byte	.LBE19
 2870 0038 56010000 		.4byte	.LBB23
 2871 003c 9C010000 		.4byte	.LBE23
 2872 0040 00000000 		.4byte	0
 2873 0044 00000000 		.4byte	0
 2874 0048 54000000 		.4byte	.LBB30
 2875 004c 82000000 		.4byte	.LBE30
 2876 0050 34010000 		.4byte	.LBB41
 2877 0054 6C010000 		.4byte	.LBE41
 2878 0058 00000000 		.4byte	0
 2879 005c 00000000 		.4byte	0
 2880 0060 8A000000 		.4byte	.LBB33
 2881 0064 AE000000 		.4byte	.LBE33
 2882 0068 2A010000 		.4byte	.LBB39
 2883 006c 2E010000 		.4byte	.LBE39
 2884 0070 00000000 		.4byte	0
 2885 0074 00000000 		.4byte	0
 2886 0078 FC000000 		.4byte	.LBB36
 2887 007c 26010000 		.4byte	.LBE36
 2888 0080 2E010000 		.4byte	.LBB40
 2889 0084 30010000 		.4byte	.LBE40
 2890 0088 00000000 		.4byte	0
 2891 008c 00000000 		.4byte	0
 2892 0090 00000000 		.4byte	.LFB2
 2893 0094 9C010000 		.4byte	.LFE2
 2894 0098 00000000 		.4byte	.LFB3
 2895 009c 54000000 		.4byte	.LFE3
 2896 00a0 00000000 		.4byte	.LFB4
 2897 00a4 6C010000 		.4byte	.LFE4
 2898 00a8 00000000 		.4byte	0
 2899 00ac 00000000 		.4byte	0
ARM GAS  C:\Users\Daniela\AppData\Local\Temp\ccm3GHIA.s 			page 107


 2900              		.section	.debug_line,"",%progbits
 2901              	.Ldebug_line0:
 2902 0000 DB010000 		.section	.debug_str,"MS",%progbits,1
 2902      02005C00 
 2902      00000201 
 2902      FB0E0D00 
 2902      01010101 
 2903              	.LASF15:
 2904 0000 63797374 		.ascii	"cystatus\000"
 2904      61747573 
 2904      00
 2905              	.LASF16:
 2906 0009 72656733 		.ascii	"reg32\000"
 2906      3200
 2907              	.LASF24:
 2908 000f 72657456 		.ascii	"retValue\000"
 2908      616C7565 
 2908      00
 2909              	.LASF27:
 2910 0018 726F774E 		.ascii	"rowNum\000"
 2910      756D00
 2911              	.LASF29:
 2912 001f 636C6B43 		.ascii	"clkCnfRetValue\000"
 2912      6E665265 
 2912      7456616C 
 2912      756500
 2913              	.LASF41:
 2914 002e 63795379 		.ascii	"cySysFlashClockBackupStruct\000"
 2914      73466C61 
 2914      7368436C 
 2914      6F636B42 
 2914      61636B75 
 2915              	.LASF33:
 2916 004a 43795379 		.ascii	"CySysSFlashWriteUserRow\000"
 2916      7353466C 
 2916      61736857 
 2916      72697465 
 2916      55736572 
 2917              	.LASF3:
 2918 0062 73686F72 		.ascii	"short unsigned int\000"
 2918      7420756E 
 2918      7369676E 
 2918      65642069 
 2918      6E7400
 2919              	.LASF8:
 2920 0075 756E7369 		.ascii	"unsigned int\000"
 2920      676E6564 
 2920      20696E74 
 2920      00
 2921              	.LASF12:
 2922 0082 666C6F61 		.ascii	"float\000"
 2922      7400
 2923              	.LASF19:
 2924 0088 636C6B49 		.ascii	"clkImoPump\000"
 2924      6D6F5075 
 2924      6D7000
 2925              	.LASF7:
ARM GAS  C:\Users\Daniela\AppData\Local\Temp\ccm3GHIA.s 			page 108


 2926 0093 6C6F6E67 		.ascii	"long long unsigned int\000"
 2926      206C6F6E 
 2926      6720756E 
 2926      7369676E 
 2926      65642069 
 2927              	.LASF1:
 2928 00aa 756E7369 		.ascii	"unsigned char\000"
 2928      676E6564 
 2928      20636861 
 2928      7200
 2929              	.LASF28:
 2930 00b8 726F7744 		.ascii	"rowData\000"
 2930      61746100 
 2931              	.LASF25:
 2932 00c0 70617261 		.ascii	"parameters\000"
 2932      6D657465 
 2932      727300
 2933              	.LASF34:
 2934 00cb 63795379 		.ascii	"cySysFlashBackup\000"
 2934      73466C61 
 2934      73684261 
 2934      636B7570 
 2934      00
 2935              	.LASF9:
 2936 00dc 75696E74 		.ascii	"uint8\000"
 2936      3800
 2937              	.LASF38:
 2938 00e2 474E5520 		.ascii	"GNU C11 5.4.1 20160609 (release) [ARM/embedded-5-br"
 2938      43313120 
 2938      352E342E 
 2938      31203230 
 2938      31363036 
 2939 0115 616E6368 		.ascii	"anch revision 237715] -mcpu=cortex-m0 -mthumb -g -O"
 2939      20726576 
 2939      6973696F 
 2939      6E203233 
 2939      37373135 
 2940 0148 33202D66 		.ascii	"3 -ffunction-sections -ffat-lto-objects -finline-fu"
 2940      66756E63 
 2940      74696F6E 
 2940      2D736563 
 2940      74696F6E 
 2941 017b 6E637469 		.ascii	"nctions -flto\000"
 2941      6F6E7320 
 2941      2D666C74 
 2941      6F00
 2942              	.LASF13:
 2943 0189 646F7562 		.ascii	"double\000"
 2943      6C6500
 2944              	.LASF2:
 2945 0190 73686F72 		.ascii	"short int\000"
 2945      7420696E 
 2945      7400
 2946              	.LASF10:
 2947 019a 75696E74 		.ascii	"uint16\000"
 2947      313600
 2948              	.LASF11:
ARM GAS  C:\Users\Daniela\AppData\Local\Temp\ccm3GHIA.s 			page 109


 2949 01a1 75696E74 		.ascii	"uint32\000"
 2949      333200
 2950              	.LASF35:
 2951 01a8 4379456E 		.ascii	"CyEnterCriticalSection\000"
 2951      74657243 
 2951      72697469 
 2951      63616C53 
 2951      65637469 
 2952              	.LASF5:
 2953 01bf 6C6F6E67 		.ascii	"long unsigned int\000"
 2953      20756E73 
 2953      69676E65 
 2953      6420696E 
 2953      7400
 2954              	.LASF39:
 2955 01d1 47656E65 		.ascii	"Generated_Source\\PSoC4\\CyFlash.c\000"
 2955      72617465 
 2955      645F536F 
 2955      75726365 
 2955      5C50536F 
 2956              	.LASF36:
 2957 01f2 43794578 		.ascii	"CyExitCriticalSection\000"
 2957      69744372 
 2957      69746963 
 2957      616C5365 
 2957      6374696F 
 2958              	.LASF30:
 2959 0208 696E7465 		.ascii	"interruptState\000"
 2959      72727570 
 2959      74537461 
 2959      746500
 2960              	.LASF37:
 2961 0217 43794861 		.ascii	"CyHalt\000"
 2961      6C7400
 2962              	.LASF18:
 2963 021e 73697A65 		.ascii	"sizetype\000"
 2963      74797065 
 2963      00
 2964              	.LASF6:
 2965 0227 6C6F6E67 		.ascii	"long long int\000"
 2965      206C6F6E 
 2965      6720696E 
 2965      7400
 2966              	.LASF43:
 2967 0235 6D656D63 		.ascii	"memcpy\000"
 2967      707900
 2968              	.LASF31:
 2969 023c 66726571 		.ascii	"freq\000"
 2969      00
 2970              	.LASF20:
 2971 0241 636C6F63 		.ascii	"clockSettings\000"
 2971      6B536574 
 2971      74696E67 
 2971      7300
 2972              	.LASF22:
 2973 024f 43795379 		.ascii	"CySysFlashClockConfig\000"
 2973      73466C61 
ARM GAS  C:\Users\Daniela\AppData\Local\Temp\ccm3GHIA.s 			page 110


 2973      7368436C 
 2973      6F636B43 
 2973      6F6E6669 
 2974              	.LASF26:
 2975 0265 43795379 		.ascii	"CySysFlashClockRestore\000"
 2975      73466C61 
 2975      7368436C 
 2975      6F636B52 
 2975      6573746F 
 2976              	.LASF23:
 2977 027c 43795379 		.ascii	"CySysFlashClockBackup\000"
 2977      73466C61 
 2977      7368436C 
 2977      6F636B42 
 2977      61636B75 
 2978              	.LASF21:
 2979 0292 43595F53 		.ascii	"CY_SYS_FLASH_CLOCK_BACKUP_STRUCT\000"
 2979      59535F46 
 2979      4C415348 
 2979      5F434C4F 
 2979      434B5F42 
 2980              	.LASF4:
 2981 02b3 6C6F6E67 		.ascii	"long int\000"
 2981      20696E74 
 2981      00
 2982              	.LASF14:
 2983 02bc 63686172 		.ascii	"char\000"
 2983      00
 2984              	.LASF17:
 2985 02c1 6C6F6E67 		.ascii	"long double\000"
 2985      20646F75 
 2985      626C6500 
 2986              	.LASF0:
 2987 02cd 7369676E 		.ascii	"signed char\000"
 2987      65642063 
 2987      68617200 
 2988              	.LASF40:
 2989 02d9 433A5C55 		.ascii	"C:\\Users\\Daniela\\Desktop\\Bluetooth_Project\\Thr"
 2989      73657273 
 2989      5C44616E 
 2989      69656C61 
 2989      5C446573 
 2990 0307 6F756768 		.ascii	"oughput\\GATT Notification - Data Incoming.cydsn\000"
 2990      7075745C 
 2990      47415454 
 2990      204E6F74 
 2990      69666963 
 2991              	.LASF32:
 2992 0337 43795379 		.ascii	"CySysFlashWriteRow\000"
 2992      73466C61 
 2992      73685772 
 2992      69746552 
 2992      6F7700
 2993              	.LASF42:
 2994 034a 43795379 		.ascii	"CySysFlashSetWaitCycles\000"
 2994      73466C61 
 2994      73685365 
ARM GAS  C:\Users\Daniela\AppData\Local\Temp\ccm3GHIA.s 			page 111


 2994      74576169 
 2994      74437963 
 2995              		.comm	__gnu_lto_v1,1,1
 2996              		.ident	"GCC: (GNU Tools for ARM Embedded Processors) 5.4.1 20160609 (release) [ARM/embedded-5-bran
