ARM GAS  C:\Users\Daniela\AppData\Local\Temp\cchZygWd.s 			page 1


   1              		.syntax unified
   2              		.cpu cortex-m0
   3              		.fpu softvfp
   4              		.eabi_attribute 20, 1
   5              		.eabi_attribute 21, 1
   6              		.eabi_attribute 23, 3
   7              		.eabi_attribute 24, 1
   8              		.eabi_attribute 25, 1
   9              		.eabi_attribute 26, 1
  10              		.eabi_attribute 30, 2
  11              		.eabi_attribute 34, 0
  12              		.eabi_attribute 18, 4
  13              		.thumb
  14              		.syntax unified
  15              		.file	"UART.c"
  16              		.text
  17              	.Ltext0:
  18              		.section	.gnu.lto_.profile.585645b4,"",%progbits
  19 0000 789C6361 		.ascii	"x\234ca`d`a`\000\222a\312\000\0019\000\204"
  19      60646061 
  19      60009261 
  19      CA000139 
  19      0084
  20              		.text
  21              		.section	.gnu.lto_.icf.585645b4,"",%progbits
  22 0000 789C6361 		.ascii	"x\234ca`d\000\001#\006\004\340`\230?\363\3201.\306M"
  22      60640001 
  22      230604E0 
  22      60983FF3 
  22      D0312EC6 
  23 0015 178FAD64 		.ascii	"\027\217\255dd\232\267\367\325D.\3465\177o\\gc\371\330"
  23      649AB7F7 
  23      D5442EE6 
  23      357F6F5C 
  23      6763F9D8 
  24 0029 746B0A13 		.ascii	"tk\012\023\353\214\237\335\267x\330\272\377|\273\314"
  24      EB8C9FDD 
  24      B778D8BA 
  24      FF7CBBCC 
  25 0039 C7BEA961 		.ascii	"\307\276\251a\351]n\006\000nz\030Y"
  25      E95D6E06 
  25      006E7A18 
  25      59
  26              		.text
  27              		.section	.gnu.lto_.jmpfuncs.585645b4,"",%progbits
  28 0000 789C6361 		.ascii	"x\234ca`d\000\001Y\006\004`\003\021 a&\020\203\005\210"
  28      60640001 
  28      59060460 
  28      03112061 
  28      26108305 
  29 0015 59191919 		.ascii	"Y\031\031\031\353\331@\004\003\000\013\354\001?"
  29      EBD94004 
  29      03000BEC 
  29      013F
  30              		.text
  31              		.section	.gnu.lto_.inline.585645b4,"",%progbits
  32 0000 789C6361 		.ascii	"x\234ca`d\000\201\005\014\010\300\306\300\300\302\303"
ARM GAS  C:\Users\Daniela\AppData\Local\Temp\cchZygWd.s 			page 2


  32      60640081 
  32      050C08C0 
  32      C6C0C0C2 
  32      C3
  33 0011 C8C00462 		.ascii	"\310\300\004b.\220\007Q\014\214\\ \202\201\235\037("
  33      2E900751 
  33      0C8C5C20 
  33      82819D1F 
  33      28
  34 0022 CCF6410F 		.ascii	"\314\366A\017U\234\211\201G\014(\316\367*\031M=\210"
  34      559C8981 
  34      470C28CE 
  34      F72A194D 
  34      3D88
  35 0034 6061E010 		.ascii	"`a\340\020\000Jr\034\260C\225de\340`gddP\000Z\317\014"
  35      004A721C 
  35      B0439564 
  35      65E06067 
  35      64645000 
  36 004b 9764BAC0 		.ascii	"\227d\272\300\317\002q\001\036I\006\000$\014\015\320"
  36      CF027101 
  36      1E490600 
  36      240C0DD0 
  37              		.text
  38              		.section	.gnu.lto_.pureconst.585645b4,"",%progbits
  39 0000 789C6361 		.ascii	"x\234ca`d\340e```c\220`\224b\222b\221b\225b\223\002"
  39      6064E065 
  39      60606063 
  39      90609462 
  39      92629162 
  40 0018 00058B00 		.ascii	"\000\005\213\000\305"
  40      C5
  41              		.text
  42              		.section	.gnu.lto_UART_Init.585645b4,"",%progbits
  43 0000 789C6361 		.ascii	"x\234ca`d\000\201\325@\254\000\304\322@\314\310\314"
  43      60640081 
  43      D540AC00 
  43      C4D240CC 
  43      C8CC
  44 0012 C0C834E1 		.ascii	"\300\3104\341\034\003C#\007\023##\210\321\300\301\310"
  44      1C034323 
  44      07132323 
  44      88D1C0C1 
  44      C8
  45 0023 50CFC458 		.ascii	"P\317\304X\317\370\225\351/\023\343\241\366g;\2314\227"
  45      CFF895E9 
  45      2F13E3A1 
  45      F6673B99 
  45      3497
  46 0035 3700C183 		.ascii	"7\000\301\203\247\377\014\032V\034`lef`\370\317\004"
  46      A7FF0C1A 
  46      561C606C 
  46      656660F8 
  46      CF04
  47 0047 36898171 		.ascii	"6\211\201q9\243&\003P\331\243\215\377\246\362\262\265"
  47      39A32603 
  47      50D9A38D 
ARM GAS  C:\Users\Daniela\AppData\Local\Temp\cchZygWd.s 			page 3


  47      FFA6F2B2 
  47      B5
  48 0058 80942940 		.ascii	"\200\224)@$\031W0\262\201\254[\037t\240\341\377\377"
  48      24195730 
  48      B281AC5B 
  48      1F74A0E1 
  48      FFFF
  49 006a E686033F 		.ascii	"\346\206\003?\331\017\336\340\002j\375\000\224\005\331"
  49      D90FDEE0 
  49      026AFD00 
  49      9405D9
  50 0079 F3918909 		.ascii	"\363\221\211\011D3\277`l>\260\367\024\023H=\310\244"
  50      4433BF60 
  50      6C3EB0F7 
  50      1413483D 
  50      C8A4
  51 008b 9D3BDFDC 		.ascii	"\235;\337\334f\257\377\333\320\321\320 \320\312\314"
  51      66AFFFDB 
  51      D0D1D020 
  51      D0CACC
  52 009a F89F0968 		.ascii	"\370\237\011h\010\343J\306z\206Vf&\206W\214M\007nz\201"
  52      08E34AC6 
  52      7A865666 
  52      2686578C 
  52      4D076E7A 
  53 00af 9582C007 		.ascii	"\225\202\300\007\240$\320\010\240\201r\356\251y\251"
  53      A024D008 
  53      A08172EE 
  53      A979A9
  54 00be 458925A9 		.ascii	"E\211%\251)\361\301\371\245E\311\2511\001\301\371\316"
  54      29F1C1F9 
  54      A545C9A9 
  54      3101C1F9 
  54      CE
  55 00cf 2631A18E 		.ascii	"&1\241\216A!z\311\014\0001\307J\342"
  55      41217AC9 
  55      0C0031C7 
  55      4AE2
  56              		.text
  57              		.section	.gnu.lto_UART_Enable.585645b4,"",%progbits
  58 0000 789C7D90 		.ascii	"x\234}\220\277KBQ\024\307\317\367^}\012Q\2645$\341\352"
  58      BF4B4251 
  58      14C7CFF7 
  58      5E7D0A51 
  58      B43524E1 
  59 0015 1204FD03 		.ascii	"\022\004\375\003\321\320\026\241\325$D\330[\023\244"
  59      D1D016A1 
  59      D52444D8 
  59      5B13A4
  60 0024 66AF3D1F 		.ascii	"f\257=\037IC\330\240C\020nj?\255%x\320\360r\015l\014"
  60      4943D8A0 
  60      43106E6A 
  60      3FAD2578 
  60      D0F0720D 
  61 003a 6A89A047 		.ascii	"j\211\240GD\203AA\005\372:W[\\\272\360\356y\357\235"
  61      44834141 
  61      05FA3A57 
ARM GAS  C:\Users\Daniela\AppData\Local\Temp\cchZygWd.s 			page 4


  61      5B5CBAF0 
  61      EE79EF9D 
  62 004e EFFD7CCF 		.ascii	"\357\375|\317\375\006\010\244\327.\227(\327q~ \011\242"
  62      FD0608A4 
  62      D72E9728 
  62      D7717E20 
  62      09A2
  63 0060 D822CA85 		.ascii	"\330\"\312\205\005\240_T\030\224\025\310\342St\004\232"
  63      05A05F54 
  63      189415C8 
  63      E2537404 
  63      9A
  64 0071 DB9E2362 		.ascii	"\333\236#b5\305\353\361\371rJ\325]\330\222\310\027="
  64      35C5EBF1 
  64      F9724AD5 
  64      5DD892C8 
  64      173D
  65 0083 12A18618 		.ascii	"\022\241\206\030\261\354\351\242[\0326\362Z\026\355"
  65      B1ECE9A2 
  65      5B1A36F2 
  65      5A16ED
  66 0092 375187A1 		.ascii	"7Q\207\241\355\032qW\371\276\245\\g\350\2728b\010\262"
  66      ED1A7157 
  66      F9BEA55C 
  66      67E8BA38 
  66      6208B2
  67 00a5 257BF246 		.ascii	"%{\362F\324f\235v|\027BW\351\241\371\263\323j,\353\243"
  67      D4669D76 
  67      7C174257 
  67      E9A1F9B3 
  67      D36A2CEB 
  68 00ba 96D4EE65 		.ascii	"\226\324\356e\273y\033\372\020\266\024\320.7%\257\032"
  68      BB791BFA 
  68      10B614D0 
  68      2E3725AF 
  68      1A
  69 00cb EC7F2A55 		.ascii	"\354\177*U\314\005\370\327U\325\311\313\012\016ry\236"
  69      CC05F8D7 
  69      55D5C9CB 
  69      0A0E7279 
  69      9E
  70 00dc 4BE20811 		.ascii	"K\342\010\021\034\"\302\366\307\250\200<X_F\037'\377"
  70      1C22C2F6 
  70      C7A8803C 
  70      585F461F 
  70      27FF
  71 00ee 88DDC2BE 		.ascii	"\210\335\302\276\320\010@\017\033\306\011\253\331\270"
  71      D008400F 
  71      1BC609AB 
  71      D9B8
  72 00fc 0C2DFB0F 		.ascii	"\014-\373\017x\312@\306\320\013,\367\356^\014^Z}\217"
  72      78CA40C6 
  72      D00B2CF7 
  72      EE5E0C5E 
  72      5A7D8F
  73 010f F56EECF7 		.ascii	"\365n\354\367\007\035\210\003g0\370|\203wn9\316\333"
  73      071D8803 
ARM GAS  C:\Users\Daniela\AppData\Local\Temp\cchZygWd.s 			page 5


  73      6730F87C 
  73      83776E39 
  73      CEDB
  74 0121 4328DB51 		.ascii	"C(\333Q\005\245Fm\031\360\205\350\365q\216,\247\022"
  74      05A5466D 
  74      19F085E8 
  74      F5718E2C 
  74      A712
  75 0133 A4576CB9 		.ascii	"\244Wl\271{\363\232\325\013\270\315@\316\206\223\232"
  75      7BF39AD5 
  75      0BB8CD40 
  75      CE86939A 
  76 0143 9833D7CD 		.ascii	"\2303\327\315\314\352\206\271\266\222HofRfr!\221\236"
  76      CCEA86B9 
  76      B692486F 
  76      66526672 
  76      21919E
  77 0156 9D4E2ECD 		.ascii	"\235N.\315\304\027'S\364\013\351\331\222\225"
  77      C4172753 
  77      F40BE9D9 
  77      9295
  78              		.text
  79              		.section	.gnu.lto_UART_Start.585645b4,"",%progbits
  80 0000 789C9592 		.ascii	"x\234\225\222\317k\023A\024\307\337wf7\033\202-\342"
  80      CF6B1341 
  80      14C7DF77 
  80      66371B82 
  80      2DE2
  81 0012 4584127A 		.ascii	"E\204\022z\355E\021\372\017\210\007o\"\255z*\210\326"
  81      ED4511FA 
  81      0F88076F 
  81      22AD7A2A 
  81      88D6
  82 0024 5C2D143D 		.ascii	"\\-\024=g\322Ml\355\251\227\346 \204\336\332\3723Fm"
  82      67D24D6C 
  82      EDA997E6 
  82      2084DEDA 
  82      FA33466D 
  83 0038 EBA615D6 		.ascii	"\353\246\025\326\250\027-\365d\003\365\342\017\010\022"
  83      A8172DF5 
  83      6403F5E2 
  83      0F0812
  84 0047 7B48A156 		.ascii	"{H\241V+\264\353{\223P\265A\301\201\231\335\235y\373"
  84      2BB4EB7B 
  84      9350B541 
  84      C18199DD 
  84      9D79FB
  85 005a 7DDFCF7B 		.ascii	"}\337\317{\343\020H\306!M\324\315\317^\236p\011jb\205"
  85      E31048C6 
  85      214DD4CD 
  85      CF5E9E70 
  85      096A6285 
  86 006e 2813574A 		.ascii	"(\023WJ\227\223d\022\316\35212\0074\234\346\266\003"
  86      97936412 
  86      CEEA3132 
  86      07349CE6 
  86      B603
ARM GAS  C:\Users\Daniela\AppData\Local\Temp\cchZygWd.s 			page 6


  87 0080 C88B8983 		.ascii	"\310\213\211\203\322J;H\343\253\332Q\250\214\326\002"
  87      D24A3B48 
  87      E3ABDA51 
  87      A88CD602 
  88 0090 D5336378 		.ascii	"\3253cx\274\177Y?nfC\344X7R6\005a\006=\304a\037K\273"
  88      BC7F593F 
  88      6E6643E4 
  88      58375236 
  88      0561063D 
  89 00a9 931DB1AC 		.ascii	"\223\035\261\254\204u7\0171\213\230\370(\366\205&\212"
  89      8475370F 
  89      318B98F8 
  89      28F68526 
  89      8A
  90 00ba 7C13563B 		.ascii	"|\023V;\237mu&4\3458%/\312\223\205\250\301S\022o(%O"
  90      9F6D7526 
  90      34E53825 
  90      2FCA9385 
  90      A8C15312 
  91 00d2 5DC348BE 		.ascii	"]\303H\276\264\372\\\313\377\276\326\254\235\317U\336"
  91      B4FA5CCB 
  91      FFBED6AC 
  91      9DCF55DE 
  92 00e2 789B2AA7 		.ascii	"x\233*\2475$U\020\254\277\363\322;f\314\230\203\274"
  92      35245510 
  92      ACBFF3D2 
  92      3B66CC98 
  92      83BC
  93 00f4 7783DDC8 		.ascii	"w\203\335\310v}\371\355\213\304\024\012\031c\367\035"
  93      767DF9ED 
  93      8BC4140A 
  93      1963F71D 
  94 0104 DC66845B 		.ascii	"\334f\204[\350b'w0\005\372\200\354\232\177\351\227j"
  94      E8622777 
  94      3005FA80 
  94      EC9A7FE9 
  94      976A
  95 0116 713DD8EE 		.ascii	"q=\330\356\020U\200pW\342HLh*'\365g\370\341\323W\352"
  95      10558070 
  95      57E2484C 
  95      682A27F5 
  95      67F8E1D3 
  96 012c 4F2EB358 		.ascii	"O.\263X8b\251\"\2056d\334C\2143\335\347\265\315\242"
  96      3862A922 
  96      853664DC 
  96      438C33DD 
  96      E7B5CDA2 
  97 0140 1B2965CF 		.ascii	"\033)e\317QD\232\241c\304\214\233\215\352'W\324\376"
  97      51449AA1 
  97      63C48C9B 
  97      8DEA2757 
  97      D4FE
  98 0152 83E8C11E 		.ascii	"\203\350\301\036Q\211\2118bnt\271\224\020\006n\036\036"
  98      51898938 
  98      626E74B9 
  98      9410066E 
  98      1E1E
ARM GAS  C:\Users\Daniela\AppData\Local\Temp\cchZygWd.s 			page 7


  99 0164 5A860DE5 		.ascii	"Z\206\015\345\264\312X\3711\276R<\277\217\341K\301m"
  99      B4CA58F9 
  99      31BE523C 
  99      BF8FE14B 
  99      C16D
 100 0176 31E87686 		.ascii	"1\350v\206G\226\341\261T\310\371\275\356\236\345}=Y"
 100      4796E1B1 
 100      54C8F9BD 
 100      EE9EE57D 
 100      3D59
 101 0188 9B769B9F 		.ascii	"\233v\233\237\306Ld$bi:\310jq\230\315\210\3038\346\321"
 101      C64C6424 
 101      62693AC8 
 101      6A7198CD 
 101      88C338E6 
 102 019d 8539EB70 		.ascii	"\2059\353pAj^\203\377\375:\233hjz-\331\335\261\233J"
 102      416A5E83 
 102      FFFD3A9B 
 102      686A7A2D 
 102      D9DDB19B 
 103 01b2 7414246F 		.ascii	"t\024$o\034O\370\007\266\233\207\204\375[5`U\026\"i"
 103      1C4FF807 
 103      B69B8784 
 103      FD5B3560 
 103      55162269 
 104 01c6 50756D7F 		.ascii	"Pum\177\203\266\017[\367\021\227\240\215\255l\331\026"
 104      83B60F5B 
 104      F71197A0 
 104      8DAD6CD9 
 104      16
 105 01d7 FFD21FD7 		.ascii	"\377\322\037\327\236c\251\325\237:F\302o\247\245N\366"
 105      9E63A9D5 
 105      9F3A46C2 
 105      6FA7A54E 
 105      F6
 106 01e8 5634B8E1 		.ascii	"V4\270\341\\S\276\250\311S\251+\251\341\213WS\227/\364"
 106      5C53BEA8 
 106      C953A92B 
 106      A9E18B57 
 106      53972FF4 
 107 01fc 0F5D1B1E 		.ascii	"\017]\033\036L\015\234\351\037:\331;p\356D\337\331\243"
 107      4C0D9CE9 
 107      1F3AD93B 
 107      70EE44DF 
 107      D9A3
 108 020e 83F4130C 		.ascii	"\203\364\023\014\000 \354"
 108      0020EC
 109              		.text
 110              		.section	.gnu.lto_UART_Stop.585645b4,"",%progbits
 111 0000 789C7D91 		.ascii	"x\234}\221\313K\303@\020\306\367\333\215\251(E\361\252"
 111      CB4BC340 
 111      10C6F7DB 
 111      8DA92845 
 111      F1AA
 112 0012 68AF5E04 		.ascii	"h\257^\004\301\177@<x\225\3728\011\"\232\253\005\321"
 112      C17F403C 
 112      7895FA38 
ARM GAS  C:\Users\Daniela\AppData\Local\Temp\cchZygWd.s 			page 8


 112      09229AAB 
 112      05D1
 113 0024 73B74D83 		.ascii	"s\267M\203\017\020\274\264\036Dzk\353\263VA\010(\306"
 113      0F10BCB4 
 113      1E447A6B 
 113      EBB35641 
 113      0828C6
 114 0037 822741F1 		.ascii	"\202'A\361,\210\010\026\221\036\"TDQ\343l\"\212\010"
 114      2C880816 
 114      911E2254 
 114      4451E36C 
 114      228A08
 115 004a 0EEC4E36 		.ascii	"\016\354N6\363\345\367Mf5\006\246\342\206R\204r+-\010"
 115      F3E5F74D 
 115      663506A6 
 115      E2865284 
 115      722B2D08 
 116 005e 06BE7CCE 		.ascii	"\006\276|\316X\242\236\003\352A\326\203\3059\342x\342"
 116      58A29E03 
 116      EA41D683 
 116      C539E278 
 116      E2
 117 006f EF1CE5B9 		.ascii	"\357\034\345\271\212\315;\363\222\342\346\356\271[\026"
 117      8ACD3BF3 
 117      92E2E6EE 
 117      B95B16
 118 007e 1C588231 		.ascii	"\034X\2021\217\373$\206<:\031\311nK\037\351\260\236"
 118      8FFB2486 
 118      3C3A19C9 
 118      6E4B1FE9 
 118      B09E
 119 0090 52B24850 		.ascii	"R\262HPD\001\272\262+F\035\351y\246t.\233Nv[B\202Y\002"
 119      4401BAB2 
 119      2B461DE9 
 119      79A6742E 
 119      9B4E765B 
 120 00a8 9ADA1873 		.ascii	"\232\332\030sI\247\034\0379WY\334\303tV\257\371o\234"
 120      49A71C1F 
 120      395759DC 
 120      C37456AF 
 120      F96F9C
 121 00bb B43B7C96 		.ascii	"\264;|\226\307\361\307\010\353\320\311i\203v*\331v\365"
 121      C7F1C708 
 121      EBD0C969 
 121      83762AD9 
 121      76F5
 122 00cd 2A147F97 		.ascii	"*\024\177\227\363R6[\202{\234\373ul\"N~\202UP~]<?\036"
 122      F352365B 
 122      827B9CFB 
 122      756C224E 
 122      7E825550 
 123 00e6 51345308 		.ascii	"Q4S\010\372\"c\225/B5n\011\315g\237\245+\271\272\340"
 123      FA226395 
 123      2F42356E 
 123      09CD679F 
 123      A52BB9BA 
 124 00fb 28E57242 		.ascii	"(\345rB\243W\2079;%\262XK\244\350\267\353\260\2156l"
ARM GAS  C:\Users\Daniela\AppData\Local\Temp\cchZygWd.s 			page 9


 124      A3578739 
 124      3B25B258 
 124      4BA4E8B7 
 124      EBB08D36 
 125 0110 A18D3C77 		.ascii	"\241\215<w\220\005\021\3157=\300i\001\321Z\332^iP\010"
 125      900511CD 
 125      373DC069 
 125      01D15ADA 
 125      5E695008 
 126 0124 C0A308A1 		.ascii	"\300\243\010\241Hj2\316@\311\376\003\356\022\2200J\\"
 126      486A32CE 
 126      40C9FE03 
 126      EE129030 
 126      4A5C
 127 0136 734F87BE 		.ascii	"sO\207\276\344I\367\300\322\202\226\346\263AK\331#g"
 127      E449F7C0 
 127      D28296E6 
 127      B3414BD9 
 127      2367
 128 0148 A1F18750 		.ascii	"\241\361\207P\372&\354\021\201\352\305\252\375\022\016"
 128      FA26EC11 
 128      81EAC5AA 
 128      FD120E
 129 0157 5A60D8A7 		.ascii	"Z`\330\247\312\003\222N)\252\200\376\225\2714H\2326"
 129      CA03924E 
 129      29AA80FE 
 129      95B93448 
 129      9A36
 130 0169 CDBEBDDF 		.ascii	"\315\276\275\337\2302\246\307g\214\311\261\301\330\354"
 130      9832A6C7 
 130      678CC9B1 
 130      C1D8EC
 131 0178 F484313A 		.ascii	"\364\2041:0\030\353\353\031\035\356\215\016uM\260O\271"
 131      3018EBEB 
 131      191DEE8D 
 131      0E754DB0 
 131      4FB9
 132 018a 82B1BD   		.ascii	"\202\261\275"
 133              		.text
 134              		.section	.gnu.lto_UART_SetRxFifoLevel.585645b4,"",%progbits
 135 0000 789C5D51 		.ascii	"x\234]Q\317k\023A\024\236ofw\023\255MA\217\026\211\207"
 135      CF6B1341 
 135      149E6F66 
 135      7713AD4D 
 135      418F1689 
 136 0015 127A1114 		.ascii	"\022z\021\024\377\001)\350\301KM,x(\210\324\025\204"
 136      FF0129E8 
 136      C14B4D2C 
 136      782888D4 
 136      1584
 137 0027 602054F1 		.ascii	"` T\361\326I\262I\301\202\224\226\026\177\322\203H\242"
 137      D649B249 
 137      C1829496 
 137      167FD283 
 137      48A2
 138 0039 D5B4D15E 		.ascii	"\325\264\321^\002\036\326 ^\212\212\007\005=\024Im\016"
 138      021ED620 
ARM GAS  C:\Users\Daniela\AppData\Local\Temp\cchZygWd.s 			page 10


 138      5E8A8A07 
 138      053D1449 
 138      6D0E
 139 004b 3D25DA16 		.ascii	"=%\332\026\025\355\372\336\316A\342\203\331\231\367"
 139      15EDFADE 
 139      CE41E283 
 139      D999F7
 140 005a F8BEEF7D 		.ascii	"\370\276\357}\357\255% 8\222R\210\243t\037\244\003%"
 140      EFAD2520 
 140      38925288 
 140      A3741FA4 
 140      0325
 141 006c 20A7DF0A 		.ascii	" \247\337\012\221\213J\200\037:\0121!1\201m\371G\242"
 141      918B4A80 
 141      1F3A0A31 
 141      2131816D 
 141      F947A2
 142 007f 31D9AACB 		.ascii	"1\331\252\313\301\262\246\370\262\261xLW|\024\225\020"
 142      C1B2A6F8 
 142      B2B1784C 
 142      577C1495 
 142      10
 143 0090 810C9504 		.ascii	"\201\014\225\004\312\030$\324{o\371\236\332\222E\005"
 143      CA1824D4 
 143      7B6FF99E 
 143      DA924505 
 144 00a0 589476DE 		.ascii	"X\224v\336\334Y\217q*\021\247\364\303\\\320\212\251"
 144      DC598F71 
 144      2A11A7F4 
 144      C35CD08A 
 144      A9
 145 00b1 C310F49E 		.ascii	"\303\020\364\236*\227oF\023\017\265\316k=\353\352=E"
 145      2A976F46 
 145      130FB5CE 
 145      6B3DEBEA 
 145      3D45
 146 00c3 A5F0188A 		.ascii	"\245\360\030\212\364\360\010\375\250\240_PI`\021\011"
 146      F4F008FD 
 146      A8A05F50 
 146      49601109 
 147 00d3 86BFF8BC 		.ascii	"\206\277\370\274\3761\246\022!\365\347\255\327\315\236"
 147      FE31A612 
 147      21F5E7AD 
 147      D7CD9E
 148 00e2 81074CF5 		.ascii	"\201\007L\365\277\317\304nk\337\2133\375I7\235\203\320"
 148      BFCFC46E 
 148      6BDF8B33 
 148      FD49379D 
 148      83D0
 149 00f4 CDDAEE5C 		.ascii	"\315\332\356\\\257\343\261\3618\236b\300XF\025\016-"
 149      AFE3B1F1 
 149      389E62C0 
 149      5846150E 
 149      2D
 150 0105 015C594A 		.ascii	"\001\\YJ\372:\010\012\332\357\354\1779s J\022TT\341"
 150      FA3A080A 
 150      DAEFEC7F 
ARM GAS  C:\Users\Daniela\AppData\Local\Temp\cchZygWd.s 			page 11


 150      3973204A 
 150      125454E1 
 151 0119 D7021BB0 		.ascii	"\327\002\033\260\311\212\345\204\005!\332D\347\365t"
 151      C98AE584 
 151      0521DA44 
 151      E7F574
 152 0128 A4E45BB5 		.ascii	"\244\344[\265\320\370ucmu\230\025\013\212W5_l\274\213"
 152      D0F87563 
 152      6D759815 
 152      0B8A5735 
 152      5F6CBC8B 
 153 013c F0D47668 		.ascii	"\360\324vhwmrW\3573\251W\232\316\361^>\335\335\256D"
 153      776D7257 
 153      EF33A957 
 153      9ACEF15E 
 153      3EDDDDAE 
 154 0151 16703FE7 		.ascii	"\026p?\347\345\264\036!u\007\313\344z\211]\243\206\005"
 154      E5B41E21 
 154      7507CBE4 
 154      7A895DA3 
 154      8605
 155 0163 8826F2FA 		.ascii	"\210&\362\372Lh\222\232\222\254h\241\360\273\264y\332"
 155      4C68929A 
 155      92AC68A1 
 155      F0BBB479 
 155      DA
 156 0174 7451A651 		.ascii	"tQ\246Q\275>\265\321\313\312\026\332A\020\364\341\031"
 156      BD3EB5D1 
 156      CBCA16DA 
 156      4110F4E1 
 156      19
 157 0185 093421FF 		.ascii	"\0114!\377\361\224\341\355\254\2363D\273\240\270\177"
 157      F194E1ED 
 157      AC9E3344 
 157      BBA0B87F 
 158 0195 F5DB56D5 		.ascii	"\365\333V\3251\304><'\022\241~\224^I\0032\015\354n%"
 158      31C43E3C 
 158      2712A17E 
 158      945E4903 
 158      320DEC6E 
 159 01aa 87308DF9 		.ascii	"\2070\215\371\332\327\225\010\327\376\237\241\247{\204"
 159      DAD79508 
 159      D7FE9FA1 
 159      A77B84
 160 01b9 151A8129 		.ascii	"\025\032\201)\233\310\373\263)&\204\177\243-\301+\243"
 160      9BC8FBB3 
 160      2926847F 
 160      A32DC12B 
 160      A3
 161 01ca 051E3AE5 		.ascii	"\005\036:\345^q\263\027\306\335\213\347S\231\253\331"
 161      5E71B317 
 161      C6DD8BE7 
 161      5399ABD9 
 162 01da 31777438 		.ascii	"1wt8\225\031:>:r\"y\366\310\230\260\323\35657\2757{"
 162      95193A3E 
 162      3A722279 
 162      F6C898B0 
ARM GAS  C:\Users\Daniela\AppData\Local\Temp\cchZygWd.s 			page 12


 162      D3EE3537 
 163 01f1 FDE4E54B 		.ascii	"\375\344\345K\231\241\361l\372/\003\023\325I"
 163      99A1F16C 
 163      FA2F0313 
 163      D549
 164              		.text
 165              		.section	.gnu.lto_UART_SetTxFifoLevel.585645b4,"",%progbits
 166 0000 789C5D51 		.ascii	"x\234]QAk\023Q\020~\337{\273\333\2504=\364h\221x(\241"
 166      416B1351 
 166      107EDF7B 
 166      BBDBA834 
 166      3DF46891 
 167 0017 1741F10F 		.ascii	"\027A\361\017HAo\022\033\013\036\012\"u\005!\030\010"
 167      48416F12 
 167      1B0B1E0A 
 167      22750521 
 167      1808
 168 0029 51F4D497 		.ascii	"Q\364\324\227d\267\202\225P(-(J\017\"\251U\323F{\211"
 168      64B78295 
 168      50282D28 
 168      4A0F22A9 
 168      55D3467B 
 169 003e A775D183 		.ascii	"\247u\321\203P#\"\275\365 \021\367\340))\011\210\324"
 169      502322BD 
 169      F52011F7 
 169      E0292909 
 169      88D4
 170 0050 6E67760F 		.ascii	"ngv\017\022\007\336\2767\303\367}\363\315\254! 82R\210"
 170      1207DEBE 
 170      37C3F77D 
 170      F3CDAC21 
 170      20383252 
 171 0065 D3741FA7 		.ascii	"\323t\037\247\003% \027[B\224\022\022\340\207N@\314"
 171      03252017 
 171      5B429412 
 171      12E0874E 
 171      40CC
 172 0077 49CCA12F 		.ascii	"I\314\241/\377J\370\367\203\246\234\250i\212\357\356"
 172      FF4AF8F7 
 172      83A69CA8 
 172      698AEFEE 
 173 0087 BB337ACD 		.ascii	"\2733z\315\203\253\204\010e\244$P\303\004\241\276:\233"
 173      83AB8408 
 173      65A42450 
 173      C304A1BE 
 173      3A9B
 174 0099 4F544FBA 		.ascii	"OTO\272\0120(\355~~\374#\311\251D\212\322\235\3450H"
 174      0A3028ED 
 174      7E7EFC23 
 174      C9A9448A 
 174      D29DE530 
 175 00ae AA9310F4 		.ascii	"\252\223\020\364^\250\325\252\211\364s\255\313Z/\331"
 175      5EA8D5AA 
 175      89F473AD 
 175      CB5A2FD9 
 176 00be FA88AB14 		.ascii	"\372\210\253\024\326\241H\017/0\2065\214\011*\011\274"
 176      D6A1480F 
ARM GAS  C:\Users\Daniela\AppData\Local\Temp\cchZygWd.s 			page 13


 176      2F308635 
 176      8C092A09 
 176      BC
 177 00cf 449AE10F 		.ascii	"D\232\341\017\327?\226\225JG\324\376v\265o\216?c\252"
 177      D73F9695 
 177      4A47D4FE 
 177      76B56F8E 
 177      3F63AA
 178 00e2 B7B3947C 		.ascii	"\267\263\224|\244='\305\364W\203t\016B\267\033\007\313"
 178      A43D27C5 
 178      F4578374 
 178      0E42B71B 
 178      07CB
 179 00f4 C396C3C6 		.ascii	"\303\226\303\306Sx\215\361\3302\352\260h\011\340\312"
 179      53788DF1 
 179      D832EAB0 
 179      6809E0CA 
 180 0104 C694A7C3 		.ascii	"\306\224\247\303\260\242\275o\243\357{\243\011\222\240"
 180      B0A2BD6F 
 180      A3EF7BA3 
 180      0992A0
 181 0113 A28ABE06 		.ascii	"\242\212\276\006\330\200IV\014+*\010\321!:\257\247+"
 181      D8804956 
 181      0C2B2A08 
 181      D1213AAF 
 181      A72B
 182 0125 25DF2A80 		.ascii	"%\337*\200\377\347A\320\312\260bE\361\252V\\\377\313"
 182      FFE741D0 
 182      CAB06245 
 182      F1AA565C 
 182      FFCB
 183 0137 104F6D46 		.ascii	"\020OmFv\375\335\355\206\214S\307Y,\361^v\253\237\356"
 183      76FDDDED 
 183      868C53C7 
 183      592CF15E 
 183      76AB9FEE 
 184 014b ADE269C9 		.ascii	"\255\342i\311)i=M\342\0266\311\364\006\233F\003\253"
 184      29693D4D 
 184      E21636C9 
 184      F4069B46 
 184      03AB
 185 015d 106D94F5 		.ascii	"\020m\224\365\245\310#\365$U\021\240\262?\277w1n\242"
 185      A5C823F5 
 185      245511A0 
 185      B23FBF77 
 185      316EA2
 186 0170 E23ECDE6 		.ascii	"\342>\315\346\302\317a\0266\320\011\303p\004oH\240\015"
 186      C2CF6116 
 186      36D009C3 
 186      70046F48 
 186      A00D
 187 0182 F98FA762 		.ascii	"\371\217\247b\336A\353JL4+\212\333\327\367zu+&\216\340"
 187      DE41EB4A 
 187      4C342B8A 
 187      DBD7F77A 
 187      752B268E 
 188 0197 2D9108F5 		.ascii	"-\221\010\365{\376\203\214Aq\003sP\311\"\214\277\322"
ARM GAS  C:\Users\Daniela\AppData\Local\Temp\cchZygWd.s 			page 14


 188      7BFE838C 
 188      41710373 
 188      50C9228C 
 188      BFD2
 189 01a9 DDDF1AE2 		.ascii	"\335\337\032\342\332\177#\034\033\234`\213&`\306/\224"
 189      DA7F231C 
 189      1B9C608B 
 189      2660C62F 
 189      94
 190 01ba BD7E96F1 		.ascii	"\275~\226\361\321\277\350H\360\302h}'.\330\267\354\302"
 190      D1BFE848 
 190      F0C2687D 
 190      272ED8B7 
 190      ECC2
 191 01cc B5A27DFD 		.ascii	"\265\242}\375j6\177\2730k\317d\262\371\311\2633\323"
 191      6A367FBB 
 191      306BCF64 
 191      B2F9C9B3 
 191      33D3
 192 01de E7A62E9F 		.ascii	"\347\246.\237\232\025f\316\276c\347\216\026\357\236"
 192      9A1566CE 
 192      BE63E78E 
 192      16EF9E
 193 01ed BF79233F 		.ascii	"\277y#?Y,\344\016\001\204x\324w"
 193      592CE40E 
 193      018478D4 
 193      77
 194              		.text
 195              		.section	.gnu.lto_.symbol_nodes.585645b4,"",%progbits
 196 0000 789C558B 		.ascii	"x\234U\213\301\015\302@\014\004\327\366]r\211\004H4"
 196      C10DC240 
 196      0C04D7F6 
 196      5D728904 
 196      4834
 197 0012 00F4407F 		.ascii	"\000\364@\177{HQ\336\024A\011\274(\002Z\000\211gj@\230"
 197      7B4851DE 
 197      144109BC 
 197      28025A00 
 197      89676A40 
 198 0027 7B617F56 		.ascii	"{a\177V3\353M\020<\340\247\211\300\371\016x\334\352"
 198      33EB4D10 
 198      3CE0A789 
 198      C0F90E78 
 198      DCEA
 199 0039 C145A644 		.ascii	"\301E\246D\321Q\203\310\212\323\3667\355i\361\2630E"
 199      D15183C8 
 199      8AD3F637 
 199      ED69F1B3 
 199      3045
 200 004b 3130C7A9 		.ascii	"10\307\251I\233\312\212]+\200Z\367\316k\366\2017,\377"
 200      499BCA8A 
 200      5D2B805A 
 200      F7CE6BF6 
 200      81372CFF 
 201 005f 6C28B83C 		.ascii	"l(\270<?b2`zyj\301\373z4u\234\227\235\245\261\325\370"
 201      3F623260 
 201      7A796AC1 
ARM GAS  C:\Users\Daniela\AppData\Local\Temp\cchZygWd.s 			page 15


 201      FB7A3475 
 201      9C979DA5 
 202 0076 02D19C2D 		.ascii	"\002\321\234-_"
 202      5F
 203              		.text
 204              		.section	.gnu.lto_.refs.585645b4,"",%progbits
 205 0000 789C6361 		.ascii	"x\234ca`d\340d```bb`fddfa\000\000\001'\000\037"
 205      6064E064 
 205      60606062 
 205      62606664 
 205      64666100 
 206              		.text
 207              		.section	.gnu.lto_.decls.585645b4,"",%progbits
 208 0000 789C9555 		.ascii	"x\234\225UkL\024W\024\2363waa\\\300Zc\370\261i\250\211"
 208      6B4C1457 
 208      149E3377 
 208      61615CC0 
 208      5A63F8B1 
 209 0017 48D204EB 		.ascii	"H\322\004\353#M\373Oc\2521\255\015\221G\322\304\204"
 209      234DFB4F 
 209      63AA31AD 
 209      0D9147D2 
 209      C484
 210 0029 206E5B52 		.ascii	" n[R\003\006\327F\177u\024E\212MJ\215\322jQQ\254.\262"
 210      0306D746 
 210      7F751445 
 210      8A4D4A8D 
 210      D26A5151 
 211 0040 B80B28F2 		.ascii	"\270\013(\362rY\005\221\207/\304\367\242\254\261D\254"
 211      72590591 
 211      872FC4F7 
 211      A2ACB144 
 211      AC
 212 0051 B4A2AC31 		.ascii	"\264\242\2541J\225\236\373\030\356@\251iO\366\354\336"
 212      4A959EFB 
 212      18EE40A9 
 212      694FF6EC 
 212      DE
 213 0062 7BE67EDF 		.ascii	"{\346~\337y\336Y\213\002\012\225\227VE\371\034\227\203"
 213      79DE598B 
 213      020A9597 
 213      5645F91C 
 213      9783
 214 0074 A8A328B8 		.ascii	"\250\243(\270U\322\024)\221\250\225\250\036\324*\324"
 214      55D21429 
 214      91A895A8 
 214      1ED42AD4 
 215 0084 1AD42654 		.ascii	"\032\324&T\037\252\037\365\014j+\252\212z\036\365\272"
 215      1FAA1FF5 
 215      0C6A2BAA 
 215      8A7A1EF5 
 215      BA
 216 0095 325E2896 		.ascii	"2^(\226\010\316\033\250naW\3053\277\362O\241\276\302"
 216      08CE1BA8 
 216      6E6157C5 
 216      33BFF24F 
 216      A1BEC2
ARM GAS  C:\Users\Daniela\AppData\Local\Temp\cchZygWd.s 			page 16


 217 00a8 0566366A 		.ascii	"\005f6j/\352\355\011x\"\316\335\0251L\224*\021;\345"
 217      2FEAED09 
 217      7822CEDD 
 217      15314C94 
 217      2A113BE5 
 218 00bc B00B9E3E 		.ascii	"\260\013\236>\324\016\023\217\301\253\010\177U\246\230"
 218      D40E138F 
 218      C1AB087F 
 218      55A698
 219 00cb CCDC2072 		.ascii	"\314\334 r3K\315\204\030'\343$\342\334=\205\327h\242"
 219      334BCD84 
 219      1827E324 
 219      E2DC3D85 
 219      D768A2
 220 00de D03A1AF5 		.ascii	"\320:\032\365\236\206:\035\265nB\316\212\360\3374\011"
 220      9E863A1D 
 220      B56E42CE 
 220      8AF0DF34 
 220      09
 221 00ef DEF73FF0 		.ascii	"\336\367?\360\276I\360\257Tp\365\014\353Z\000n\001Q"
 221      BE49F0AF 
 221      5470F50C 
 221      EB5A006E 
 221      0151
 222 0101 C4402800 		.ascii	"\304@(\000\374\033\230*\\\331\026\027\252\302\027\206"
 222      FC1B982A 
 222      5CD91617 
 222      AAC21786 
 223 0111 694C14E0 		.ascii	"iL\024\340OTaU$\031\373\010<\214\032\302H$;\010\020"
 223      4F546155 
 223      2419FB08 
 223      3C8C1AC2 
 223      48243B08 
 224 0126 8C45C01E 		.ascii	"\214E\300\036s\020\214\261\362\037U\"L|\023\"2b6\334"
 224      73108CB1 
 224      F21F5522 
 224      4C7C1322 
 224      326236DC 
 225 013a B0916349 		.ascii	"\260\221cI\217\016\324= D\005\272\356{\341Z\222\350"
 225      8F0ED43D 
 225      204405BA 
 225      EE7BE15A 
 225      92E8
 226 014c D6518A74 		.ascii	"\326Q\212t]\265\313\312to\361\226\220\220\012\3234\260"
 226      5DB5CBCA 
 226      746FF196 
 226      90900AD3 
 226      34B0
 227 015e E0F6C985 		.ascii	"\340\366\311\205=\367\243q;]\2038\334\276\352\370e\217"
 227      3DF7A371 
 227      3B5D8338 
 227      DCBEEAF8 
 227      658F
 228 0170 1A5BCC70 		.ascii	"\032[\314pyz\234\005\322f@\005\330\341( \005\270!\026"
 228      797A9C05 
 228      D2664005 
 228      D8E12820 
ARM GAS  C:\Users\Daniela\AppData\Local\Temp\cchZygWd.s 			page 17


 228      05B82116 
 229 0184 BF575938 		.ascii	"\277WY8\323\353\247\201\326\310\231\245z\320\253\007"
 229      D3EBA781 
 229      D6C899A5 
 229      7AD0AB07 
 230 0194 038331C5 		.ascii	"\003\2031\305yz;\242\342\350)p\001\201rH\244A\272h\017"
 230      797A3BA2 
 230      E2E82970 
 230      01817248 
 230      A441BA68 
 231 01a9 14380201 		.ascii	"\0248\002\001\214\267\022f\"\262\367\207\256s\204,`"
 231      8CB71266 
 231      22B2F787 
 231      AE73842C 
 231      60
 232 01ba 813E7E30 		.ascii	"\201>~0\360\026'\361\327v\331\364\242Mz\351BFqLR\034"
 232      F01627F1 
 232      D776D9F4 
 232      A24D7AE9 
 232      4246714C 
 233 01d0 33537818 		.ascii	"3Sx\030E\350\305\355\012\215,d\024E\207\363\363\242"
 233      45E8C5ED 
 233      0A8D2C64 
 233      144587F3 
 233      F3A2
 234 01e2 91A31439 		.ascii	"\221\243\0249\256^d\034:\347\360J\016\257\231\243\212"
 234      AE5E641C 
 234      3AE7F04A 
 234      0EAF99A3 
 234      8A
 235 01f3 71740DF8 		.ascii	"qt\015\370[\201|\3028\362\013\363\366\205\013\016\337"
 235      5B817CC2 
 235      38F20BF3 
 235      F6850B0E 
 235      DF
 236 0204 253347B5 		.ascii	"%3G\265\344\2506s\3240\016\327)o\233\205\2442\216;\355"
 236      E4A83673 
 236      D4300ED7 
 236      296F9B85 
 236      A4328E3B 
 237 0219 E515B4B4 		.ascii	"\345\025\264\264\26356\0161h\362\014\326\277\210\342"
 237      B335360E 
 237      3168F20C 
 237      D6BF88E2 
 238 0229 267AA2B3 		.ascii	"&z\242\263\257\377i$\311\242k\265\266l\377p\030h\011"
 238      AFFF6924 
 238      C9A26BB5 
 238      B66CFF70 
 238      186809
 239 023c 05BABE99 		.ascii	"\005\272\276\231\026{Z{\2642Vk\250\207\004\012\242\216"
 239      167B5A7B 
 239      B432566B 
 239      A887040A 
 239      A28E
 240 024e A1168D27 		.ascii	"\241\026\215'\320x\230\266%\330\275-\355\247m\330S\250"
 240      D07898B6 
 240      25D8BD2D 
ARM GAS  C:\Users\Daniela\AppData\Local\Temp\cchZygWd.s 			page 18


 240      EDA76DD8 
 240      53A8
 241 0260 030D4ECA 		.ascii	"\003\015N\312\340fk\274-\177<\336\177\301j\301\241`"
 241      E0666BBC 
 241      2D7F3CDE 
 241      7FC16AC1 
 241      A160
 242 0272 07B05968 		.ascii	"\007\260Yh{6\\\372{\304\277\266\265\221\265\265\001"
 242      7B365CFA 
 242      7BC4BFB6 
 242      B591B5B5 
 242      01
 243 0283 445F1BAF 		.ascii	"D_\033\2575\274\"\274\024\301@\323,\336W=\216\036\203"
 243      35BC22BC 
 243      14C140D3 
 243      2CDE573D 
 243      8E1E83
 244 0296 E3D2DF71 		.ascii	"\343\322\337qs1\232X1\356\215tW[\311\016`\271n\365\035"
 244      73319A58 
 244      31EE8D74 
 244      575BC90E 
 244      60B96EF5 
 245 02ab 6C8C1015 		.ascii	"l\214\020\025\275\334cT\224\222\234\222$\247\314$>F"
 245      BDDC6354 
 245      94929C92 
 245      24A7CC24 
 245      3E46
 246 02bd E26E7D54 		.ascii	"\342n}Tl%\2079\311H\363Q\034\031\034\017L\374\326\366"
 246      6C258739 
 246      C948F351 
 246      1C191C0F 
 246      4CFCD6F6 
 247 02d1 940365F9 		.ascii	"\224\003e\371\376\"`\203\010\315\222\245\231\261\340"
 247      FE226083 
 247      08CD92A5 
 247      99B1E0
 248 02e0 C2CF186E 		.ascii	"\302\317\030nvv\014XI\2203\3348\331\277U\345\014\376"
 248      76760C58 
 248      499033DC 
 248      38D9BF55 
 248      E50CFE
 249 02f3 FA7CB25B 		.ascii	"\372|\262[?ca\360\323\022~\332\200\237a\360r\327\241"
 249      3F6361F0 
 249      D3127EDA 
 249      809F61F0 
 249      72D7A1
 250 0306 3220210E 		.ascii	"2 !\016\357w?\013\031\360\2066\033zg\350\026\211n1\320"
 250      EF773F0B 
 250      19F08636 
 250      1B7A67E8 
 250      16896E31 
 251 031b AD0CEDD9 		.ascii	"\255\014\355\331\372[y\004v\334\216C\000\246\011\260"
 251      FA5B7904 
 251      76DC8E43 
 251      00A609B0 
 252 032b F309D8FD 		.ascii	"\363\011\330\375\343\375\327S\310fvI\325\236\373\025"
 252      E3FDD753 
ARM GAS  C:\Users\Daniela\AppData\Local\Temp\cchZygWd.s 			page 19


 252      C8667649 
 252      D59EFB15 
 253 033b 0F2D90A0 		.ascii	"\017-\220\240\031\215M\345\215\355\300\276\235\223\016"
 253      198D4DE5 
 253      8DEDC0BE 
 253      9D930E
 254 034a ECB4B16C 		.ascii	"\354\264\261lJ\206\016\352\341\261\012\314\267\303\373"
 254      4A860EEA 
 254      E1B10ACC 
 254      B7C3FB
 255 0359 3822ED38 		.ascii	"8\"\3558\"v1\"m\330\314\263\330L\364p1\320\376Q\210"
 255      22763122 
 255      6DD8CCB3 
 255      D84CF470 
 255      31D0FE51 
 256 036e 93D0ED50 		.ascii	"\223\320\355PYIa4)\020o\205\353\245\3030\253L/=\210"
 256      59496134 
 256      29106F85 
 256      EBA5C330 
 256      AB4C2F3D 
 257 0383 AD3D14F5 		.ascii	"\255=\024\365|\263\036\313\016vqo\202Ya\373N:\206\347"
 257      7CB31ECB 
 257      0E76716F 
 257      825961FB 
 257      4E3A86E7 
 258 0397 6116C27E 		.ascii	"a\026\302~}92D\007;\236\01661%\025\317}\270\016\264"
 258      7D393244 
 258      073B9E0E 
 258      36312515 
 258      CF7DB80E 
 259 03ac D5686417 		.ascii	"\325hd\027\367qv\364\271?\206\277`T\334^\031:\277w\012"
 259      F77176F4 
 259      B93F86BF 
 259      6054DC5E 
 259      193ABF77 
 260 03c1 7FC14CC5 		.ascii	"\177\301L\305\224Kv\236\256\0147\246^\317\3235\027N"
 260      944B769E 
 260      AE0C37A6 
 260      5ECFD335 
 260      174E
 261 03d3 7D37467F 		.ascii	"}7F\177\231\272\353\301\224\342EJ\027\321xAN\3759Q\234"
 261      99BAEBC1 
 261      94E2454A 
 261      17D17841 
 261      4EFD3951 
 262 03e8 2B18EE25 		.ascii	"+\030\356%Y\234x1\365\177\356*~m\011\361\307t\337\262"
 262      599C7831 
 262      F57FEE2A 
 262      7E6D09F1 
 262      C774DFB2 
 263 03fc A3B05125 		.ascii	"\243\260Q%%<\244'\373\274\235V#\355\201\250\022\257"
 263      253CA427 
 263      FBBC9D56 
 263      23ED81A8 
 263      12AF
 264 040e AE87B193 		.ascii	"\256\207\261\223\327D\336F\000\012\263\\\245\241\\g"
 264      D744DE46 
ARM GAS  C:\Users\Daniela\AppData\Local\Temp\cchZygWd.s 			page 20


 264      000AB35C 
 264      A5A15C67 
 265 041e 998FF47B 		.ascii	"\231\217\364{\036\330l\205\362\212\262\356\313\253s"
 265      1ED86C85 
 265      F28AB2EE 
 265      CBAB73
 266 042d 036C4624 		.ascii	"\003lF$\270D@\203\333\3633\321\012hj\377\351NS\310]"
 266      B8444083 
 266      DBF333D1 
 266      0A686AFF 
 266      E94E53C8 
 267 0442 BD248CB8 		.ascii	"\275$\214\270\371H\324\327=rG\363\372L\302\020x\303"
 267      F948D4D7 
 267      3D7247F3 
 267      FA4CC210 
 267      78C3
 268 0454 5BE1DBDD 		.ascii	"[\341\333\335;6\341-\275\215i\335\222\365\271\011\242"
 268      3B36E12D 
 268      BD8D69DD 
 268      92F5B909 
 268      A2
 269 0465 40B5EDDD 		.ascii	"@\265\355\335'\254\3432\241'e&\275`cS\334\313\322x\330"
 269      27ACE332 
 269      A1276526 
 269      BD606353 
 269      DCCBD278 
 270 047a 3CB82586 		.ascii	"<\270%\206T\363\362m\373\276\245\301\202w\300O_\010"
 270      54F3F26D 
 270      FBBEA5C1 
 270      8277C04F 
 270      5F08
 271 048c A1397BAB 		.ascii	"\2419{\253u\375;\344\341\367\350\216\364u\307|\231\357"
 271      75FD3BE4 
 271      E1F7E88E 
 271      F475C77C 
 271      99EF
 272 049e B2DBB0FD 		.ascii	"\262\333\260\375\352_\213\3069\355\030\347\264O8\355"
 272      EA5F8BC6 
 272      39ED18E7 
 272      B44F38ED 
 273 04ae 634EBB3D 		.ascii	"cN\273=\225E\204tp\247'\012|G\204S\377\316\200\371\217"
 273      95458474 
 273      70A7270A 
 273      7C478453 
 273      FFCE80F9 
 274 04c3 21283D06 		.ascii	"!(=\006\315\036\357\301L%2u\321\212\224\364e\331Y\316"
 274      CD1EEFC1 
 274      4C253275 
 274      D18A94F4 
 274      65D959CE 
 275 04d7 88A59FA5 		.ascii	"\210\245\237\245\306-\236;Wyg\251#\333\221\233\341t"
 275      C62D9E3B 
 275      577967A9 
 275      23DB919B 
 275      E174
 276 04e9 AC4E4FCE 		.ascii	"\254NO\316Y\237\233\351X\231\224\234\263x\301Jz21S\231"
 276      599F9BE9 
ARM GAS  C:\Users\Daniela\AppData\Local\Temp\cchZygWd.s 			page 21


 276      5899949C 
 276      B378C14A 
 276      7A323153 
 277 04fe C2101F67 		.ascii	"\302\020\037gg\254Z\343\320\330:\331\231\221\353\214"
 277      67AC5AE3 
 277      D0D83AD9 
 277      9991EB8C 
 278 050e 14CB9CB5 		.ascii	"\024\313\234\265o\363\225\303\271b\303\222\254/r>u|"
 278      6FF395C3 
 278      B962C392 
 278      AC2F723E 
 278      757C
 279 0520 E35813BE 		.ascii	"\343X\023\276>+\3339\177\336\273\223S\317\311\334\350"
 279      3E2BDB39 
 279      7FDEBB93 
 279      53CFC9DC 
 279      E8
 280 0531 DCB8D6B1 		.ascii	"\334\270\326\261.\361+e\014\234\"\301Q\314\226\212N"
 280      2EF12B65 
 280      0C9C22C1 
 280      51CC968A 
 280      4E
 281 0542 689CEFBD 		.ascii	"h\234\357\275!\274\364\344\244e\351l\221\224\2262\306"
 281      21BCF4E4 
 281      A465E96C 
 281      91949632 
 281      C6
 282 0553 46914939 		.ascii	"F\221I9\353\234<f\311F\203\015\243\201}hc\266,dO\313"
 282      EB9C3C66 
 282      C946830D 
 282      A3817D68 
 282      63B62C64 
 283 0569 C865B1CE 		.ascii	"\310e\261\316\375 FT\306\231\233\262ay\306\272\257\303"
 283      FD204654 
 283      C6999BB2 
 283      6179C6BA 
 283      AFC3
 284 057b 721D5FCE 		.ascii	"r\035_\316\2377\203\273\311\\\265<g\265C\222N5\233)"
 284      9F3783BB 
 284      C95CB53C 
 284      67B54392 
 284      4E359B29 
 285 058f EFDF7EAA 		.ascii	"\357\337~\252\375\267"
 285      FDB7
 286              		.text
 287              		.section	.gnu.lto_.symtab.585645b4,"",%progbits
 288 0000 55415254 		.ascii	"UART_Init\000"
 288      5F496E69 
 288      7400
 289 000a 00       		.ascii	"\000"
 290 000b 00       		.ascii	"\000"
 291 000c 00       		.ascii	"\000"
 292 000d 00000000 		.ascii	"\000\000\000\000\000\000\000\000"
 292      00000000 
 293 0015 AD000000 		.ascii	"\255\000\000\000"
 294 0019 55415254 		.ascii	"UART_Enable\000"
 294      5F456E61 
ARM GAS  C:\Users\Daniela\AppData\Local\Temp\cchZygWd.s 			page 22


 294      626C6500 
 295 0025 00       		.ascii	"\000"
 296 0026 00       		.ascii	"\000"
 297 0027 00       		.ascii	"\000"
 298 0028 00000000 		.ascii	"\000\000\000\000\000\000\000\000"
 298      00000000 
 299 0030 AF000000 		.ascii	"\257\000\000\000"
 300 0034 55415254 		.ascii	"UART_Start\000"
 300      5F537461 
 300      727400
 301 003f 00       		.ascii	"\000"
 302 0040 00       		.ascii	"\000"
 303 0041 00       		.ascii	"\000"
 304 0042 00000000 		.ascii	"\000\000\000\000\000\000\000\000"
 304      00000000 
 305 004a B1000000 		.ascii	"\261\000\000\000"
 306 004e 55415254 		.ascii	"UART_initVar\000"
 306      5F696E69 
 306      74566172 
 306      00
 307 005b 00       		.ascii	"\000"
 308 005c 00       		.ascii	"\000"
 309 005d 00       		.ascii	"\000"
 310 005e 00000000 		.ascii	"\000\000\000\000\000\000\000\000"
 310      00000000 
 311 0066 CC000000 		.ascii	"\314\000\000\000"
 312 006a 55415254 		.ascii	"UART_Stop\000"
 312      5F53746F 
 312      7000
 313 0074 00       		.ascii	"\000"
 314 0075 00       		.ascii	"\000"
 315 0076 00       		.ascii	"\000"
 316 0077 00000000 		.ascii	"\000\000\000\000\000\000\000\000"
 316      00000000 
 317 007f B3000000 		.ascii	"\263\000\000\000"
 318 0083 55415254 		.ascii	"UART_SetRxFifoLevel\000"
 318      5F536574 
 318      52784669 
 318      666F4C65 
 318      76656C00 
 319 0097 00       		.ascii	"\000"
 320 0098 00       		.ascii	"\000"
 321 0099 00       		.ascii	"\000"
 322 009a 00000000 		.ascii	"\000\000\000\000\000\000\000\000"
 322      00000000 
 323 00a2 BC000000 		.ascii	"\274\000\000\000"
 324 00a6 55415254 		.ascii	"UART_SetTxFifoLevel\000"
 324      5F536574 
 324      54784669 
 324      666F4C65 
 324      76656C00 
 325 00ba 00       		.ascii	"\000"
 326 00bb 00       		.ascii	"\000"
 327 00bc 00       		.ascii	"\000"
 328 00bd 00000000 		.ascii	"\000\000\000\000\000\000\000\000"
 328      00000000 
 329 00c5 BE000000 		.ascii	"\276\000\000\000"
ARM GAS  C:\Users\Daniela\AppData\Local\Temp\cchZygWd.s 			page 23


 330 00c9 55415254 		.ascii	"UART_IntrTxMask\000"
 330      5F496E74 
 330      7254784D 
 330      61736B00 
 331 00d9 00       		.ascii	"\000"
 332 00da 00       		.ascii	"\000"
 333 00db 00       		.ascii	"\000"
 334 00dc 00000000 		.ascii	"\000\000\000\000\000\000\000\000"
 334      00000000 
 335 00e4 D6000000 		.ascii	"\326\000\000\000"
 336 00e8 55415254 		.ascii	"UART_UartInit\000"
 336      5F556172 
 336      74496E69 
 336      7400
 337 00f6 00       		.ascii	"\000"
 338 00f7 02       		.ascii	"\002"
 339 00f8 00       		.ascii	"\000"
 340 00f9 00000000 		.ascii	"\000\000\000\000\000\000\000\000"
 340      00000000 
 341 0101 C0000000 		.ascii	"\300\000\000\000"
 342 0105 55415254 		.ascii	"UART_UartPostEnable\000"
 342      5F556172 
 342      74506F73 
 342      74456E61 
 342      626C6500 
 343 0119 00       		.ascii	"\000"
 344 011a 02       		.ascii	"\002"
 345 011b 00       		.ascii	"\000"
 346 011c 00000000 		.ascii	"\000\000\000\000\000\000\000\000"
 346      00000000 
 347 0124 C2000000 		.ascii	"\302\000\000\000"
 348 0128 55415254 		.ascii	"UART_UartStop\000"
 348      5F556172 
 348      7453746F 
 348      7000
 349 0136 00       		.ascii	"\000"
 350 0137 02       		.ascii	"\002"
 351 0138 00       		.ascii	"\000"
 352 0139 00000000 		.ascii	"\000\000\000\000\000\000\000\000"
 352      00000000 
 353 0141 C4000000 		.ascii	"\304\000\000\000"
 354              		.text
 355              		.section	.gnu.lto_.opts,"",%progbits
 356 0000 272D666D 		.ascii	"'-fmath-errno' '-fsigned-zeros' '-ftrapping-math' '"
 356      6174682D 
 356      6572726E 
 356      6F272027 
 356      2D667369 
 357 0033 2D666E6F 		.ascii	"-fno-trapv' '-fno-openmp' '-fno-openacc' '-mcpu=cor"
 357      2D747261 
 357      70762720 
 357      272D666E 
 357      6F2D6F70 
 358 0066 7465782D 		.ascii	"tex-m0' '-mthumb' '-g' '-O3' '-ffunction-sections' "
 358      6D302720 
 358      272D6D74 
 358      68756D62 
ARM GAS  C:\Users\Daniela\AppData\Local\Temp\cchZygWd.s 			page 24


 358      2720272D 
 359 0099 272D6666 		.ascii	"'-ffat-lto-objects' '-finline-functions' '-flto'\000"
 359      61742D6C 
 359      746F2D6F 
 359      626A6563 
 359      74732720 
 360              		.text
 361              		.cfi_sections	.debug_frame
 362              		.section	.text.UART_Init,"ax",%progbits
 363              		.align	2
 364              		.global	UART_Init
 365              		.code	16
 366              		.thumb_func
 367              		.type	UART_Init, %function
 368              	UART_Init:
 369              	.LFB2:
 370              		.file 1 "Generated_Source\\PSoC4\\UART.c"
   1:Generated_Source\PSoC4/UART.c **** /***************************************************************************//**
   2:Generated_Source\PSoC4/UART.c **** * \file UART.c
   3:Generated_Source\PSoC4/UART.c **** * \version 4.0
   4:Generated_Source\PSoC4/UART.c **** *
   5:Generated_Source\PSoC4/UART.c **** * \brief
   6:Generated_Source\PSoC4/UART.c **** *  This file provides the source code to the API for the SCB Component.
   7:Generated_Source\PSoC4/UART.c **** *
   8:Generated_Source\PSoC4/UART.c **** * Note:
   9:Generated_Source\PSoC4/UART.c **** *
  10:Generated_Source\PSoC4/UART.c **** *******************************************************************************
  11:Generated_Source\PSoC4/UART.c **** * \copyright
  12:Generated_Source\PSoC4/UART.c **** * Copyright 2013-2017, Cypress Semiconductor Corporation.  All rights reserved.
  13:Generated_Source\PSoC4/UART.c **** * You may use this file only in accordance with the license, terms, conditions,
  14:Generated_Source\PSoC4/UART.c **** * disclaimers, and limitations in the end user license agreement accompanying
  15:Generated_Source\PSoC4/UART.c **** * the software package with which this file was provided.
  16:Generated_Source\PSoC4/UART.c **** *******************************************************************************/
  17:Generated_Source\PSoC4/UART.c **** 
  18:Generated_Source\PSoC4/UART.c **** #include "UART_PVT.h"
  19:Generated_Source\PSoC4/UART.c **** 
  20:Generated_Source\PSoC4/UART.c **** #if (UART_SCB_MODE_I2C_INC)
  21:Generated_Source\PSoC4/UART.c ****     #include "UART_I2C_PVT.h"
  22:Generated_Source\PSoC4/UART.c **** #endif /* (UART_SCB_MODE_I2C_INC) */
  23:Generated_Source\PSoC4/UART.c **** 
  24:Generated_Source\PSoC4/UART.c **** #if (UART_SCB_MODE_EZI2C_INC)
  25:Generated_Source\PSoC4/UART.c ****     #include "UART_EZI2C_PVT.h"
  26:Generated_Source\PSoC4/UART.c **** #endif /* (UART_SCB_MODE_EZI2C_INC) */
  27:Generated_Source\PSoC4/UART.c **** 
  28:Generated_Source\PSoC4/UART.c **** #if (UART_SCB_MODE_SPI_INC || UART_SCB_MODE_UART_INC)
  29:Generated_Source\PSoC4/UART.c ****     #include "UART_SPI_UART_PVT.h"
  30:Generated_Source\PSoC4/UART.c **** #endif /* (UART_SCB_MODE_SPI_INC || UART_SCB_MODE_UART_INC) */
  31:Generated_Source\PSoC4/UART.c **** 
  32:Generated_Source\PSoC4/UART.c **** 
  33:Generated_Source\PSoC4/UART.c **** /***************************************
  34:Generated_Source\PSoC4/UART.c **** *    Run Time Configuration Vars
  35:Generated_Source\PSoC4/UART.c **** ***************************************/
  36:Generated_Source\PSoC4/UART.c **** 
  37:Generated_Source\PSoC4/UART.c **** /* Stores internal component configuration for Unconfigured mode */
  38:Generated_Source\PSoC4/UART.c **** #if (UART_SCB_MODE_UNCONFIG_CONST_CFG)
  39:Generated_Source\PSoC4/UART.c ****     /* Common configuration variables */
  40:Generated_Source\PSoC4/UART.c ****     uint8 UART_scbMode = UART_SCB_MODE_UNCONFIG;
ARM GAS  C:\Users\Daniela\AppData\Local\Temp\cchZygWd.s 			page 25


  41:Generated_Source\PSoC4/UART.c ****     uint8 UART_scbEnableWake;
  42:Generated_Source\PSoC4/UART.c ****     uint8 UART_scbEnableIntr;
  43:Generated_Source\PSoC4/UART.c **** 
  44:Generated_Source\PSoC4/UART.c ****     /* I2C configuration variables */
  45:Generated_Source\PSoC4/UART.c ****     uint8 UART_mode;
  46:Generated_Source\PSoC4/UART.c ****     uint8 UART_acceptAddr;
  47:Generated_Source\PSoC4/UART.c **** 
  48:Generated_Source\PSoC4/UART.c ****     /* SPI/UART configuration variables */
  49:Generated_Source\PSoC4/UART.c ****     volatile uint8 * UART_rxBuffer;
  50:Generated_Source\PSoC4/UART.c ****     uint8  UART_rxDataBits;
  51:Generated_Source\PSoC4/UART.c ****     uint32 UART_rxBufferSize;
  52:Generated_Source\PSoC4/UART.c **** 
  53:Generated_Source\PSoC4/UART.c ****     volatile uint8 * UART_txBuffer;
  54:Generated_Source\PSoC4/UART.c ****     uint8  UART_txDataBits;
  55:Generated_Source\PSoC4/UART.c ****     uint32 UART_txBufferSize;
  56:Generated_Source\PSoC4/UART.c **** 
  57:Generated_Source\PSoC4/UART.c ****     /* EZI2C configuration variables */
  58:Generated_Source\PSoC4/UART.c ****     uint8 UART_numberOfAddr;
  59:Generated_Source\PSoC4/UART.c ****     uint8 UART_subAddrSize;
  60:Generated_Source\PSoC4/UART.c **** #endif /* (UART_SCB_MODE_UNCONFIG_CONST_CFG) */
  61:Generated_Source\PSoC4/UART.c **** 
  62:Generated_Source\PSoC4/UART.c **** 
  63:Generated_Source\PSoC4/UART.c **** /***************************************
  64:Generated_Source\PSoC4/UART.c **** *     Common SCB Vars
  65:Generated_Source\PSoC4/UART.c **** ***************************************/
  66:Generated_Source\PSoC4/UART.c **** /**
  67:Generated_Source\PSoC4/UART.c **** * \addtogroup group_general
  68:Generated_Source\PSoC4/UART.c **** * \{
  69:Generated_Source\PSoC4/UART.c **** */
  70:Generated_Source\PSoC4/UART.c **** 
  71:Generated_Source\PSoC4/UART.c **** /** UART_initVar indicates whether the UART 
  72:Generated_Source\PSoC4/UART.c **** *  component has been initialized. The variable is initialized to 0 
  73:Generated_Source\PSoC4/UART.c **** *  and set to 1 the first time SCB_Start() is called. This allows 
  74:Generated_Source\PSoC4/UART.c **** *  the component to restart without reinitialization after the first 
  75:Generated_Source\PSoC4/UART.c **** *  call to the UART_Start() routine.
  76:Generated_Source\PSoC4/UART.c **** *
  77:Generated_Source\PSoC4/UART.c **** *  If re-initialization of the component is required, then the 
  78:Generated_Source\PSoC4/UART.c **** *  UART_Init() function can be called before the 
  79:Generated_Source\PSoC4/UART.c **** *  UART_Start() or UART_Enable() function.
  80:Generated_Source\PSoC4/UART.c **** */
  81:Generated_Source\PSoC4/UART.c **** uint8 UART_initVar = 0u;
  82:Generated_Source\PSoC4/UART.c **** 
  83:Generated_Source\PSoC4/UART.c **** 
  84:Generated_Source\PSoC4/UART.c **** #if (! (UART_SCB_MODE_I2C_CONST_CFG || \
  85:Generated_Source\PSoC4/UART.c ****         UART_SCB_MODE_EZI2C_CONST_CFG))
  86:Generated_Source\PSoC4/UART.c ****     /** This global variable stores TX interrupt sources after 
  87:Generated_Source\PSoC4/UART.c ****     * UART_Stop() is called. Only these TX interrupt sources 
  88:Generated_Source\PSoC4/UART.c ****     * will be restored on a subsequent UART_Enable() call.
  89:Generated_Source\PSoC4/UART.c ****     */
  90:Generated_Source\PSoC4/UART.c ****     uint16 UART_IntrTxMask = 0u;
  91:Generated_Source\PSoC4/UART.c **** #endif /* (! (UART_SCB_MODE_I2C_CONST_CFG || \
  92:Generated_Source\PSoC4/UART.c ****               UART_SCB_MODE_EZI2C_CONST_CFG)) */
  93:Generated_Source\PSoC4/UART.c **** /** \} globals */
  94:Generated_Source\PSoC4/UART.c **** 
  95:Generated_Source\PSoC4/UART.c **** #if (UART_SCB_IRQ_INTERNAL)
  96:Generated_Source\PSoC4/UART.c **** #if !defined (CY_REMOVE_UART_CUSTOM_INTR_HANDLER)
  97:Generated_Source\PSoC4/UART.c ****     void (*UART_customIntrHandler)(void) = NULL;
ARM GAS  C:\Users\Daniela\AppData\Local\Temp\cchZygWd.s 			page 26


  98:Generated_Source\PSoC4/UART.c **** #endif /* !defined (CY_REMOVE_UART_CUSTOM_INTR_HANDLER) */
  99:Generated_Source\PSoC4/UART.c **** #endif /* (UART_SCB_IRQ_INTERNAL) */
 100:Generated_Source\PSoC4/UART.c **** 
 101:Generated_Source\PSoC4/UART.c **** 
 102:Generated_Source\PSoC4/UART.c **** /***************************************
 103:Generated_Source\PSoC4/UART.c **** *    Private Function Prototypes
 104:Generated_Source\PSoC4/UART.c **** ***************************************/
 105:Generated_Source\PSoC4/UART.c **** 
 106:Generated_Source\PSoC4/UART.c **** static void UART_ScbEnableIntr(void);
 107:Generated_Source\PSoC4/UART.c **** static void UART_ScbModeStop(void);
 108:Generated_Source\PSoC4/UART.c **** static void UART_ScbModePostEnable(void);
 109:Generated_Source\PSoC4/UART.c **** 
 110:Generated_Source\PSoC4/UART.c **** 
 111:Generated_Source\PSoC4/UART.c **** /*******************************************************************************
 112:Generated_Source\PSoC4/UART.c **** * Function Name: UART_Init
 113:Generated_Source\PSoC4/UART.c **** ****************************************************************************//**
 114:Generated_Source\PSoC4/UART.c **** *
 115:Generated_Source\PSoC4/UART.c **** *  Initializes the UART component to operate in one of the selected
 116:Generated_Source\PSoC4/UART.c **** *  configurations: I2C, SPI, UART or EZI2C.
 117:Generated_Source\PSoC4/UART.c **** *  When the configuration is set to "Unconfigured SCB", this function does
 118:Generated_Source\PSoC4/UART.c **** *  not do any initialization. Use mode-specific initialization APIs instead:
 119:Generated_Source\PSoC4/UART.c **** *  UART_I2CInit, UART_SpiInit, 
 120:Generated_Source\PSoC4/UART.c **** *  UART_UartInit or UART_EzI2CInit.
 121:Generated_Source\PSoC4/UART.c **** *
 122:Generated_Source\PSoC4/UART.c **** *******************************************************************************/
 123:Generated_Source\PSoC4/UART.c **** void UART_Init(void)
 124:Generated_Source\PSoC4/UART.c **** {
 371              		.loc 1 124 0
 372              		.cfi_startproc
 373              		@ args = 0, pretend = 0, frame = 0
 374              		@ frame_needed = 0, uses_anonymous_args = 0
 375 0000 10B5     		push	{r4, lr}
 376              		.cfi_def_cfa_offset 8
 377              		.cfi_offset 4, -8
 378              		.cfi_offset 14, -4
 125:Generated_Source\PSoC4/UART.c **** #if (UART_SCB_MODE_UNCONFIG_CONST_CFG)
 126:Generated_Source\PSoC4/UART.c ****     if (UART_SCB_MODE_UNCONFIG_RUNTM_CFG)
 127:Generated_Source\PSoC4/UART.c ****     {
 128:Generated_Source\PSoC4/UART.c ****         UART_initVar = 0u;
 129:Generated_Source\PSoC4/UART.c ****     }
 130:Generated_Source\PSoC4/UART.c ****     else
 131:Generated_Source\PSoC4/UART.c ****     {
 132:Generated_Source\PSoC4/UART.c ****         /* Initialization was done before this function call */
 133:Generated_Source\PSoC4/UART.c ****     }
 134:Generated_Source\PSoC4/UART.c **** 
 135:Generated_Source\PSoC4/UART.c **** #elif (UART_SCB_MODE_I2C_CONST_CFG)
 136:Generated_Source\PSoC4/UART.c ****     UART_I2CInit();
 137:Generated_Source\PSoC4/UART.c **** 
 138:Generated_Source\PSoC4/UART.c **** #elif (UART_SCB_MODE_SPI_CONST_CFG)
 139:Generated_Source\PSoC4/UART.c ****     UART_SpiInit();
 140:Generated_Source\PSoC4/UART.c **** 
 141:Generated_Source\PSoC4/UART.c **** #elif (UART_SCB_MODE_UART_CONST_CFG)
 142:Generated_Source\PSoC4/UART.c ****     UART_UartInit();
 379              		.loc 1 142 0
 380 0002 FFF7FEFF 		bl	UART_UartInit
 381              	.LVL0:
 143:Generated_Source\PSoC4/UART.c **** 
ARM GAS  C:\Users\Daniela\AppData\Local\Temp\cchZygWd.s 			page 27


 144:Generated_Source\PSoC4/UART.c **** #elif (UART_SCB_MODE_EZI2C_CONST_CFG)
 145:Generated_Source\PSoC4/UART.c ****     UART_EzI2CInit();
 146:Generated_Source\PSoC4/UART.c **** 
 147:Generated_Source\PSoC4/UART.c **** #endif /* (UART_SCB_MODE_UNCONFIG_CONST_CFG) */
 148:Generated_Source\PSoC4/UART.c **** }
 382              		.loc 1 148 0
 383              		@ sp needed
 384 0006 10BD     		pop	{r4, pc}
 385              		.cfi_endproc
 386              	.LFE2:
 387              		.size	UART_Init, .-UART_Init
 388              		.section	.text.UART_Enable,"ax",%progbits
 389              		.align	2
 390              		.global	UART_Enable
 391              		.code	16
 392              		.thumb_func
 393              		.type	UART_Enable, %function
 394              	UART_Enable:
 395              	.LFB3:
 149:Generated_Source\PSoC4/UART.c **** 
 150:Generated_Source\PSoC4/UART.c **** 
 151:Generated_Source\PSoC4/UART.c **** /*******************************************************************************
 152:Generated_Source\PSoC4/UART.c **** * Function Name: UART_Enable
 153:Generated_Source\PSoC4/UART.c **** ****************************************************************************//**
 154:Generated_Source\PSoC4/UART.c **** *
 155:Generated_Source\PSoC4/UART.c **** *  Enables UART component operation: activates the hardware and 
 156:Generated_Source\PSoC4/UART.c **** *  internal interrupt. It also restores TX interrupt sources disabled after the 
 157:Generated_Source\PSoC4/UART.c **** *  UART_Stop() function was called (note that level-triggered TX 
 158:Generated_Source\PSoC4/UART.c **** *  interrupt sources remain disabled to not cause code lock-up).
 159:Generated_Source\PSoC4/UART.c **** *  For I2C and EZI2C modes the interrupt is internal and mandatory for 
 160:Generated_Source\PSoC4/UART.c **** *  operation. For SPI and UART modes the interrupt can be configured as none, 
 161:Generated_Source\PSoC4/UART.c **** *  internal or external.
 162:Generated_Source\PSoC4/UART.c **** *  The UART configuration should be not changed when the component
 163:Generated_Source\PSoC4/UART.c **** *  is enabled. Any configuration changes should be made after disabling the 
 164:Generated_Source\PSoC4/UART.c **** *  component.
 165:Generated_Source\PSoC4/UART.c **** *  When configuration is set to Unconfigured UART, the component 
 166:Generated_Source\PSoC4/UART.c **** *  must first be initialized to operate in one of the following configurations: 
 167:Generated_Source\PSoC4/UART.c **** *  I2C, SPI, UART or EZ I2C, using the mode-specific initialization API. 
 168:Generated_Source\PSoC4/UART.c **** *  Otherwise this function does not enable the component.
 169:Generated_Source\PSoC4/UART.c **** *
 170:Generated_Source\PSoC4/UART.c **** *******************************************************************************/
 171:Generated_Source\PSoC4/UART.c **** void UART_Enable(void)
 172:Generated_Source\PSoC4/UART.c **** {
 396              		.loc 1 172 0
 397              		.cfi_startproc
 398              		@ args = 0, pretend = 0, frame = 0
 399              		@ frame_needed = 0, uses_anonymous_args = 0
 173:Generated_Source\PSoC4/UART.c **** #if (UART_SCB_MODE_UNCONFIG_CONST_CFG)
 174:Generated_Source\PSoC4/UART.c ****     /* Enable SCB block, only if it is already configured */
 175:Generated_Source\PSoC4/UART.c ****     if (!UART_SCB_MODE_UNCONFIG_RUNTM_CFG)
 176:Generated_Source\PSoC4/UART.c ****     {
 177:Generated_Source\PSoC4/UART.c ****         UART_CTRL_REG |= UART_CTRL_ENABLED;
 178:Generated_Source\PSoC4/UART.c **** 
 179:Generated_Source\PSoC4/UART.c ****         UART_ScbEnableIntr();
 180:Generated_Source\PSoC4/UART.c **** 
 181:Generated_Source\PSoC4/UART.c ****         /* Call PostEnable function specific to current operation mode */
 182:Generated_Source\PSoC4/UART.c ****         UART_ScbModePostEnable();
ARM GAS  C:\Users\Daniela\AppData\Local\Temp\cchZygWd.s 			page 28


 183:Generated_Source\PSoC4/UART.c ****     }
 184:Generated_Source\PSoC4/UART.c **** #else
 185:Generated_Source\PSoC4/UART.c ****     UART_CTRL_REG |= UART_CTRL_ENABLED;
 400              		.loc 1 185 0
 401 0000 8021     		movs	r1, #128
 402 0002 044A     		ldr	r2, .L3
 172:Generated_Source\PSoC4/UART.c **** #if (UART_SCB_MODE_UNCONFIG_CONST_CFG)
 403              		.loc 1 172 0
 404 0004 10B5     		push	{r4, lr}
 405              		.cfi_def_cfa_offset 8
 406              		.cfi_offset 4, -8
 407              		.cfi_offset 14, -4
 408              		.loc 1 185 0
 409 0006 1368     		ldr	r3, [r2]
 410 0008 0906     		lsls	r1, r1, #24
 411 000a 0B43     		orrs	r3, r1
 412 000c 1360     		str	r3, [r2]
 413              	.LBB14:
 414              	.LBB15:
 186:Generated_Source\PSoC4/UART.c **** 
 187:Generated_Source\PSoC4/UART.c ****     UART_ScbEnableIntr();
 188:Generated_Source\PSoC4/UART.c **** 
 189:Generated_Source\PSoC4/UART.c ****     /* Call PostEnable function specific to current operation mode */
 190:Generated_Source\PSoC4/UART.c ****     UART_ScbModePostEnable();
 191:Generated_Source\PSoC4/UART.c **** #endif /* (UART_SCB_MODE_UNCONFIG_CONST_CFG) */
 192:Generated_Source\PSoC4/UART.c **** }
 193:Generated_Source\PSoC4/UART.c **** 
 194:Generated_Source\PSoC4/UART.c **** 
 195:Generated_Source\PSoC4/UART.c **** /*******************************************************************************
 196:Generated_Source\PSoC4/UART.c **** * Function Name: UART_Start
 197:Generated_Source\PSoC4/UART.c **** ****************************************************************************//**
 198:Generated_Source\PSoC4/UART.c **** *
 199:Generated_Source\PSoC4/UART.c **** *  Invokes UART_Init() and UART_Enable().
 200:Generated_Source\PSoC4/UART.c **** *  After this function call, the component is enabled and ready for operation.
 201:Generated_Source\PSoC4/UART.c **** *  When configuration is set to "Unconfigured SCB", the component must first be
 202:Generated_Source\PSoC4/UART.c **** *  initialized to operate in one of the following configurations: I2C, SPI, UART
 203:Generated_Source\PSoC4/UART.c **** *  or EZI2C. Otherwise this function does not enable the component.
 204:Generated_Source\PSoC4/UART.c **** *
 205:Generated_Source\PSoC4/UART.c **** * \globalvars
 206:Generated_Source\PSoC4/UART.c **** *  UART_initVar - used to check initial configuration, modified
 207:Generated_Source\PSoC4/UART.c **** *  on first function call.
 208:Generated_Source\PSoC4/UART.c **** *
 209:Generated_Source\PSoC4/UART.c **** *******************************************************************************/
 210:Generated_Source\PSoC4/UART.c **** void UART_Start(void)
 211:Generated_Source\PSoC4/UART.c **** {
 212:Generated_Source\PSoC4/UART.c ****     if (0u == UART_initVar)
 213:Generated_Source\PSoC4/UART.c ****     {
 214:Generated_Source\PSoC4/UART.c ****         UART_Init();
 215:Generated_Source\PSoC4/UART.c ****         UART_initVar = 1u; /* Component was initialized */
 216:Generated_Source\PSoC4/UART.c ****     }
 217:Generated_Source\PSoC4/UART.c **** 
 218:Generated_Source\PSoC4/UART.c ****     UART_Enable();
 219:Generated_Source\PSoC4/UART.c **** }
 220:Generated_Source\PSoC4/UART.c **** 
 221:Generated_Source\PSoC4/UART.c **** 
 222:Generated_Source\PSoC4/UART.c **** /*******************************************************************************
 223:Generated_Source\PSoC4/UART.c **** * Function Name: UART_Stop
ARM GAS  C:\Users\Daniela\AppData\Local\Temp\cchZygWd.s 			page 29


 224:Generated_Source\PSoC4/UART.c **** ****************************************************************************//**
 225:Generated_Source\PSoC4/UART.c **** *
 226:Generated_Source\PSoC4/UART.c **** *  Disables the UART component: disable the hardware and internal 
 227:Generated_Source\PSoC4/UART.c **** *  interrupt. It also disables all TX interrupt sources so as not to cause an 
 228:Generated_Source\PSoC4/UART.c **** *  unexpected interrupt trigger because after the component is enabled, the 
 229:Generated_Source\PSoC4/UART.c **** *  TX FIFO is empty.
 230:Generated_Source\PSoC4/UART.c **** *  Refer to the function UART_Enable() for the interrupt 
 231:Generated_Source\PSoC4/UART.c **** *  configuration details.
 232:Generated_Source\PSoC4/UART.c **** *  This function disables the SCB component without checking to see if 
 233:Generated_Source\PSoC4/UART.c **** *  communication is in progress. Before calling this function it may be 
 234:Generated_Source\PSoC4/UART.c **** *  necessary to check the status of communication to make sure communication 
 235:Generated_Source\PSoC4/UART.c **** *  is complete. If this is not done then communication could be stopped mid 
 236:Generated_Source\PSoC4/UART.c **** *  byte and corrupted data could result.
 237:Generated_Source\PSoC4/UART.c **** *
 238:Generated_Source\PSoC4/UART.c **** *******************************************************************************/
 239:Generated_Source\PSoC4/UART.c **** void UART_Stop(void)
 240:Generated_Source\PSoC4/UART.c **** {
 241:Generated_Source\PSoC4/UART.c **** #if (UART_SCB_IRQ_INTERNAL)
 242:Generated_Source\PSoC4/UART.c ****     UART_DisableInt();
 243:Generated_Source\PSoC4/UART.c **** #endif /* (UART_SCB_IRQ_INTERNAL) */
 244:Generated_Source\PSoC4/UART.c **** 
 245:Generated_Source\PSoC4/UART.c ****     /* Call Stop function specific to current operation mode */
 246:Generated_Source\PSoC4/UART.c ****     UART_ScbModeStop();
 247:Generated_Source\PSoC4/UART.c **** 
 248:Generated_Source\PSoC4/UART.c ****     /* Disable SCB IP */
 249:Generated_Source\PSoC4/UART.c ****     UART_CTRL_REG &= (uint32) ~UART_CTRL_ENABLED;
 250:Generated_Source\PSoC4/UART.c **** 
 251:Generated_Source\PSoC4/UART.c ****     /* Disable all TX interrupt sources so as not to cause an unexpected
 252:Generated_Source\PSoC4/UART.c ****     * interrupt trigger after the component will be enabled because the 
 253:Generated_Source\PSoC4/UART.c ****     * TX FIFO is empty.
 254:Generated_Source\PSoC4/UART.c ****     * For SCB IP v0, it is critical as it does not mask-out interrupt
 255:Generated_Source\PSoC4/UART.c ****     * sources when it is disabled. This can cause a code lock-up in the
 256:Generated_Source\PSoC4/UART.c ****     * interrupt handler because TX FIFO cannot be loaded after the block
 257:Generated_Source\PSoC4/UART.c ****     * is disabled.
 258:Generated_Source\PSoC4/UART.c ****     */
 259:Generated_Source\PSoC4/UART.c ****     UART_SetTxInterruptMode(UART_NO_INTR_SOURCES);
 260:Generated_Source\PSoC4/UART.c **** 
 261:Generated_Source\PSoC4/UART.c **** #if (UART_SCB_IRQ_INTERNAL)
 262:Generated_Source\PSoC4/UART.c ****     UART_ClearPendingInt();
 263:Generated_Source\PSoC4/UART.c **** #endif /* (UART_SCB_IRQ_INTERNAL) */
 264:Generated_Source\PSoC4/UART.c **** }
 265:Generated_Source\PSoC4/UART.c **** 
 266:Generated_Source\PSoC4/UART.c **** 
 267:Generated_Source\PSoC4/UART.c **** /*******************************************************************************
 268:Generated_Source\PSoC4/UART.c **** * Function Name: UART_SetRxFifoLevel
 269:Generated_Source\PSoC4/UART.c **** ****************************************************************************//**
 270:Generated_Source\PSoC4/UART.c **** *
 271:Generated_Source\PSoC4/UART.c **** *  Sets level in the RX FIFO to generate a RX level interrupt.
 272:Generated_Source\PSoC4/UART.c **** *  When the RX FIFO has more entries than the RX FIFO level an RX level
 273:Generated_Source\PSoC4/UART.c **** *  interrupt request is generated.
 274:Generated_Source\PSoC4/UART.c **** *
 275:Generated_Source\PSoC4/UART.c **** *  \param level: Level in the RX FIFO to generate RX level interrupt.
 276:Generated_Source\PSoC4/UART.c **** *   The range of valid level values is between 0 and RX FIFO depth - 1.
 277:Generated_Source\PSoC4/UART.c **** *
 278:Generated_Source\PSoC4/UART.c **** *******************************************************************************/
 279:Generated_Source\PSoC4/UART.c **** void UART_SetRxFifoLevel(uint32 level)
 280:Generated_Source\PSoC4/UART.c **** {
ARM GAS  C:\Users\Daniela\AppData\Local\Temp\cchZygWd.s 			page 30


 281:Generated_Source\PSoC4/UART.c ****     uint32 rxFifoCtrl;
 282:Generated_Source\PSoC4/UART.c **** 
 283:Generated_Source\PSoC4/UART.c ****     rxFifoCtrl = UART_RX_FIFO_CTRL_REG;
 284:Generated_Source\PSoC4/UART.c **** 
 285:Generated_Source\PSoC4/UART.c ****     rxFifoCtrl &= ((uint32) ~UART_RX_FIFO_CTRL_TRIGGER_LEVEL_MASK); /* Clear level mask bits */
 286:Generated_Source\PSoC4/UART.c ****     rxFifoCtrl |= ((uint32) (UART_RX_FIFO_CTRL_TRIGGER_LEVEL_MASK & level));
 287:Generated_Source\PSoC4/UART.c **** 
 288:Generated_Source\PSoC4/UART.c ****     UART_RX_FIFO_CTRL_REG = rxFifoCtrl;
 289:Generated_Source\PSoC4/UART.c **** }
 290:Generated_Source\PSoC4/UART.c **** 
 291:Generated_Source\PSoC4/UART.c **** 
 292:Generated_Source\PSoC4/UART.c **** /*******************************************************************************
 293:Generated_Source\PSoC4/UART.c **** * Function Name: UART_SetTxFifoLevel
 294:Generated_Source\PSoC4/UART.c **** ****************************************************************************//**
 295:Generated_Source\PSoC4/UART.c **** *
 296:Generated_Source\PSoC4/UART.c **** *  Sets level in the TX FIFO to generate a TX level interrupt.
 297:Generated_Source\PSoC4/UART.c **** *  When the TX FIFO has less entries than the TX FIFO level an TX level
 298:Generated_Source\PSoC4/UART.c **** *  interrupt request is generated.
 299:Generated_Source\PSoC4/UART.c **** *
 300:Generated_Source\PSoC4/UART.c **** *  \param level: Level in the TX FIFO to generate TX level interrupt.
 301:Generated_Source\PSoC4/UART.c **** *   The range of valid level values is between 0 and TX FIFO depth - 1.
 302:Generated_Source\PSoC4/UART.c **** *
 303:Generated_Source\PSoC4/UART.c **** *******************************************************************************/
 304:Generated_Source\PSoC4/UART.c **** void UART_SetTxFifoLevel(uint32 level)
 305:Generated_Source\PSoC4/UART.c **** {
 306:Generated_Source\PSoC4/UART.c ****     uint32 txFifoCtrl;
 307:Generated_Source\PSoC4/UART.c **** 
 308:Generated_Source\PSoC4/UART.c ****     txFifoCtrl = UART_TX_FIFO_CTRL_REG;
 309:Generated_Source\PSoC4/UART.c **** 
 310:Generated_Source\PSoC4/UART.c ****     txFifoCtrl &= ((uint32) ~UART_TX_FIFO_CTRL_TRIGGER_LEVEL_MASK); /* Clear level mask bits */
 311:Generated_Source\PSoC4/UART.c ****     txFifoCtrl |= ((uint32) (UART_TX_FIFO_CTRL_TRIGGER_LEVEL_MASK & level));
 312:Generated_Source\PSoC4/UART.c **** 
 313:Generated_Source\PSoC4/UART.c ****     UART_TX_FIFO_CTRL_REG = txFifoCtrl;
 314:Generated_Source\PSoC4/UART.c **** }
 315:Generated_Source\PSoC4/UART.c **** 
 316:Generated_Source\PSoC4/UART.c **** 
 317:Generated_Source\PSoC4/UART.c **** #if (UART_SCB_IRQ_INTERNAL)
 318:Generated_Source\PSoC4/UART.c ****     /*******************************************************************************
 319:Generated_Source\PSoC4/UART.c ****     * Function Name: UART_SetCustomInterruptHandler
 320:Generated_Source\PSoC4/UART.c ****     ****************************************************************************//**
 321:Generated_Source\PSoC4/UART.c ****     *
 322:Generated_Source\PSoC4/UART.c ****     *  Registers a function to be called by the internal interrupt handler.
 323:Generated_Source\PSoC4/UART.c ****     *  First the function that is registered is called, then the internal interrupt
 324:Generated_Source\PSoC4/UART.c ****     *  handler performs any operation such as software buffer management functions
 325:Generated_Source\PSoC4/UART.c ****     *  before the interrupt returns.  It is the user's responsibility not to break
 326:Generated_Source\PSoC4/UART.c ****     *  the software buffer operations. Only one custom handler is supported, which
 327:Generated_Source\PSoC4/UART.c ****     *  is the function provided by the most recent call.
 328:Generated_Source\PSoC4/UART.c ****     *  At the initialization time no custom handler is registered.
 329:Generated_Source\PSoC4/UART.c ****     *
 330:Generated_Source\PSoC4/UART.c ****     *  \param func: Pointer to the function to register.
 331:Generated_Source\PSoC4/UART.c ****     *        The value NULL indicates to remove the current custom interrupt
 332:Generated_Source\PSoC4/UART.c ****     *        handler.
 333:Generated_Source\PSoC4/UART.c ****     *
 334:Generated_Source\PSoC4/UART.c ****     *******************************************************************************/
 335:Generated_Source\PSoC4/UART.c ****     void UART_SetCustomInterruptHandler(void (*func)(void))
 336:Generated_Source\PSoC4/UART.c ****     {
 337:Generated_Source\PSoC4/UART.c ****     #if !defined (CY_REMOVE_UART_CUSTOM_INTR_HANDLER)
ARM GAS  C:\Users\Daniela\AppData\Local\Temp\cchZygWd.s 			page 31


 338:Generated_Source\PSoC4/UART.c ****         UART_customIntrHandler = func; /* Register interrupt handler */
 339:Generated_Source\PSoC4/UART.c ****     #else
 340:Generated_Source\PSoC4/UART.c ****         if (NULL != func)
 341:Generated_Source\PSoC4/UART.c ****         {
 342:Generated_Source\PSoC4/UART.c ****             /* Suppress compiler warning */
 343:Generated_Source\PSoC4/UART.c ****         }
 344:Generated_Source\PSoC4/UART.c ****     #endif /* !defined (CY_REMOVE_UART_CUSTOM_INTR_HANDLER) */
 345:Generated_Source\PSoC4/UART.c ****     }
 346:Generated_Source\PSoC4/UART.c **** #endif /* (UART_SCB_IRQ_INTERNAL) */
 347:Generated_Source\PSoC4/UART.c **** 
 348:Generated_Source\PSoC4/UART.c **** 
 349:Generated_Source\PSoC4/UART.c **** /*******************************************************************************
 350:Generated_Source\PSoC4/UART.c **** * Function Name: UART_ScbModeEnableIntr
 351:Generated_Source\PSoC4/UART.c **** ****************************************************************************//**
 352:Generated_Source\PSoC4/UART.c **** *
 353:Generated_Source\PSoC4/UART.c **** *  Enables an interrupt for a specific mode.
 354:Generated_Source\PSoC4/UART.c **** *
 355:Generated_Source\PSoC4/UART.c **** *******************************************************************************/
 356:Generated_Source\PSoC4/UART.c **** static void UART_ScbEnableIntr(void)
 357:Generated_Source\PSoC4/UART.c **** {
 358:Generated_Source\PSoC4/UART.c **** #if (UART_SCB_IRQ_INTERNAL)
 359:Generated_Source\PSoC4/UART.c ****     /* Enable interrupt in NVIC */
 360:Generated_Source\PSoC4/UART.c ****     #if (UART_SCB_MODE_UNCONFIG_CONST_CFG)
 361:Generated_Source\PSoC4/UART.c ****         if (0u != UART_scbEnableIntr)
 362:Generated_Source\PSoC4/UART.c ****         {
 363:Generated_Source\PSoC4/UART.c ****             UART_EnableInt();
 364:Generated_Source\PSoC4/UART.c ****         }
 365:Generated_Source\PSoC4/UART.c **** 
 366:Generated_Source\PSoC4/UART.c ****     #else
 367:Generated_Source\PSoC4/UART.c ****         UART_EnableInt();
 368:Generated_Source\PSoC4/UART.c **** 
 369:Generated_Source\PSoC4/UART.c ****     #endif /* (UART_SCB_MODE_UNCONFIG_CONST_CFG) */
 370:Generated_Source\PSoC4/UART.c **** #endif /* (UART_SCB_IRQ_INTERNAL) */
 371:Generated_Source\PSoC4/UART.c **** }
 372:Generated_Source\PSoC4/UART.c **** 
 373:Generated_Source\PSoC4/UART.c **** 
 374:Generated_Source\PSoC4/UART.c **** /*******************************************************************************
 375:Generated_Source\PSoC4/UART.c **** * Function Name: UART_ScbModePostEnable
 376:Generated_Source\PSoC4/UART.c **** ****************************************************************************//**
 377:Generated_Source\PSoC4/UART.c **** *
 378:Generated_Source\PSoC4/UART.c **** *  Calls the PostEnable function for a specific operation mode.
 379:Generated_Source\PSoC4/UART.c **** *
 380:Generated_Source\PSoC4/UART.c **** *******************************************************************************/
 381:Generated_Source\PSoC4/UART.c **** static void UART_ScbModePostEnable(void)
 382:Generated_Source\PSoC4/UART.c **** {
 383:Generated_Source\PSoC4/UART.c **** #if (UART_SCB_MODE_UNCONFIG_CONST_CFG)
 384:Generated_Source\PSoC4/UART.c **** #if (!UART_CY_SCBIP_V1)
 385:Generated_Source\PSoC4/UART.c ****     if (UART_SCB_MODE_SPI_RUNTM_CFG)
 386:Generated_Source\PSoC4/UART.c ****     {
 387:Generated_Source\PSoC4/UART.c ****         UART_SpiPostEnable();
 388:Generated_Source\PSoC4/UART.c ****     }
 389:Generated_Source\PSoC4/UART.c ****     else if (UART_SCB_MODE_UART_RUNTM_CFG)
 390:Generated_Source\PSoC4/UART.c ****     {
 391:Generated_Source\PSoC4/UART.c ****         UART_UartPostEnable();
 392:Generated_Source\PSoC4/UART.c ****     }
 393:Generated_Source\PSoC4/UART.c ****     else
 394:Generated_Source\PSoC4/UART.c ****     {
ARM GAS  C:\Users\Daniela\AppData\Local\Temp\cchZygWd.s 			page 32


 395:Generated_Source\PSoC4/UART.c ****         /* Unknown mode: do nothing */
 396:Generated_Source\PSoC4/UART.c ****     }
 397:Generated_Source\PSoC4/UART.c **** #endif /* (!UART_CY_SCBIP_V1) */
 398:Generated_Source\PSoC4/UART.c **** 
 399:Generated_Source\PSoC4/UART.c **** #elif (UART_SCB_MODE_SPI_CONST_CFG)
 400:Generated_Source\PSoC4/UART.c ****     UART_SpiPostEnable();
 401:Generated_Source\PSoC4/UART.c **** 
 402:Generated_Source\PSoC4/UART.c **** #elif (UART_SCB_MODE_UART_CONST_CFG)
 403:Generated_Source\PSoC4/UART.c ****     UART_UartPostEnable();
 415              		.loc 1 403 0
 416 000e FFF7FEFF 		bl	UART_UartPostEnable
 417              	.LVL1:
 418              	.LBE15:
 419              	.LBE14:
 192:Generated_Source\PSoC4/UART.c **** 
 420              		.loc 1 192 0
 421              		@ sp needed
 422 0012 10BD     		pop	{r4, pc}
 423              	.L4:
 424              		.align	2
 425              	.L3:
 426 0014 00002440 		.word	1076101120
 427              		.cfi_endproc
 428              	.LFE3:
 429              		.size	UART_Enable, .-UART_Enable
 430              		.section	.text.UART_Start,"ax",%progbits
 431              		.align	2
 432              		.global	UART_Start
 433              		.code	16
 434              		.thumb_func
 435              		.type	UART_Start, %function
 436              	UART_Start:
 437              	.LFB4:
 211:Generated_Source\PSoC4/UART.c ****     if (0u == UART_initVar)
 438              		.loc 1 211 0
 439              		.cfi_startproc
 440              		@ args = 0, pretend = 0, frame = 0
 441              		@ frame_needed = 0, uses_anonymous_args = 0
 442 0000 10B5     		push	{r4, lr}
 443              		.cfi_def_cfa_offset 8
 444              		.cfi_offset 4, -8
 445              		.cfi_offset 14, -4
 212:Generated_Source\PSoC4/UART.c ****     {
 446              		.loc 1 212 0
 447 0002 084C     		ldr	r4, .L8
 448 0004 2378     		ldrb	r3, [r4]
 449 0006 002B     		cmp	r3, #0
 450 0008 03D1     		bne	.L6
 451              	.LBB16:
 452              	.LBB17:
 142:Generated_Source\PSoC4/UART.c **** 
 453              		.loc 1 142 0
 454 000a FFF7FEFF 		bl	UART_UartInit
 455              	.LVL2:
 456              	.LBE17:
 457              	.LBE16:
 215:Generated_Source\PSoC4/UART.c ****     }
ARM GAS  C:\Users\Daniela\AppData\Local\Temp\cchZygWd.s 			page 33


 458              		.loc 1 215 0
 459 000e 0123     		movs	r3, #1
 460 0010 2370     		strb	r3, [r4]
 461              	.L6:
 462              	.LBB18:
 463              	.LBB19:
 185:Generated_Source\PSoC4/UART.c **** 
 464              		.loc 1 185 0
 465 0012 8021     		movs	r1, #128
 466 0014 044A     		ldr	r2, .L8+4
 467 0016 0906     		lsls	r1, r1, #24
 468 0018 1368     		ldr	r3, [r2]
 469              	.LBE19:
 470              	.LBE18:
 219:Generated_Source\PSoC4/UART.c **** 
 471              		.loc 1 219 0
 472              		@ sp needed
 473              	.LBB23:
 474              	.LBB22:
 185:Generated_Source\PSoC4/UART.c **** 
 475              		.loc 1 185 0
 476 001a 0B43     		orrs	r3, r1
 477 001c 1360     		str	r3, [r2]
 478              	.LBB20:
 479              	.LBB21:
 480              		.loc 1 403 0
 481 001e FFF7FEFF 		bl	UART_UartPostEnable
 482              	.LVL3:
 483              	.LBE21:
 484              	.LBE20:
 485              	.LBE22:
 486              	.LBE23:
 219:Generated_Source\PSoC4/UART.c **** 
 487              		.loc 1 219 0
 488 0022 10BD     		pop	{r4, pc}
 489              	.L9:
 490              		.align	2
 491              	.L8:
 492 0024 00000000 		.word	.LANCHOR0
 493 0028 00002440 		.word	1076101120
 494              		.cfi_endproc
 495              	.LFE4:
 496              		.size	UART_Start, .-UART_Start
 497              		.section	.text.UART_Stop,"ax",%progbits
 498              		.align	2
 499              		.global	UART_Stop
 500              		.code	16
 501              		.thumb_func
 502              		.type	UART_Stop, %function
 503              	UART_Stop:
 504              	.LFB5:
 240:Generated_Source\PSoC4/UART.c **** #if (UART_SCB_IRQ_INTERNAL)
 505              		.loc 1 240 0
 506              		.cfi_startproc
 507              		@ args = 0, pretend = 0, frame = 0
 508              		@ frame_needed = 0, uses_anonymous_args = 0
 509 0000 10B5     		push	{r4, lr}
ARM GAS  C:\Users\Daniela\AppData\Local\Temp\cchZygWd.s 			page 34


 510              		.cfi_def_cfa_offset 8
 511              		.cfi_offset 4, -8
 512              		.cfi_offset 14, -4
 513              	.LBB24:
 514              	.LBB25:
 404:Generated_Source\PSoC4/UART.c **** 
 405:Generated_Source\PSoC4/UART.c **** #else
 406:Generated_Source\PSoC4/UART.c ****     /* Unknown mode: do nothing */
 407:Generated_Source\PSoC4/UART.c **** #endif /* (UART_SCB_MODE_UNCONFIG_CONST_CFG) */
 408:Generated_Source\PSoC4/UART.c **** }
 409:Generated_Source\PSoC4/UART.c **** 
 410:Generated_Source\PSoC4/UART.c **** 
 411:Generated_Source\PSoC4/UART.c **** /*******************************************************************************
 412:Generated_Source\PSoC4/UART.c **** * Function Name: UART_ScbModeStop
 413:Generated_Source\PSoC4/UART.c **** ****************************************************************************//**
 414:Generated_Source\PSoC4/UART.c **** *
 415:Generated_Source\PSoC4/UART.c **** *  Calls the Stop function for a specific operation mode.
 416:Generated_Source\PSoC4/UART.c **** *
 417:Generated_Source\PSoC4/UART.c **** *******************************************************************************/
 418:Generated_Source\PSoC4/UART.c **** static void UART_ScbModeStop(void)
 419:Generated_Source\PSoC4/UART.c **** {
 420:Generated_Source\PSoC4/UART.c **** #if (UART_SCB_MODE_UNCONFIG_CONST_CFG)
 421:Generated_Source\PSoC4/UART.c ****     if (UART_SCB_MODE_I2C_RUNTM_CFG)
 422:Generated_Source\PSoC4/UART.c ****     {
 423:Generated_Source\PSoC4/UART.c ****         UART_I2CStop();
 424:Generated_Source\PSoC4/UART.c ****     }
 425:Generated_Source\PSoC4/UART.c ****     else if (UART_SCB_MODE_EZI2C_RUNTM_CFG)
 426:Generated_Source\PSoC4/UART.c ****     {
 427:Generated_Source\PSoC4/UART.c ****         UART_EzI2CStop();
 428:Generated_Source\PSoC4/UART.c ****     }
 429:Generated_Source\PSoC4/UART.c **** #if (!UART_CY_SCBIP_V1)
 430:Generated_Source\PSoC4/UART.c ****     else if (UART_SCB_MODE_SPI_RUNTM_CFG)
 431:Generated_Source\PSoC4/UART.c ****     {
 432:Generated_Source\PSoC4/UART.c ****         UART_SpiStop();
 433:Generated_Source\PSoC4/UART.c ****     }
 434:Generated_Source\PSoC4/UART.c ****     else if (UART_SCB_MODE_UART_RUNTM_CFG)
 435:Generated_Source\PSoC4/UART.c ****     {
 436:Generated_Source\PSoC4/UART.c ****         UART_UartStop();
 437:Generated_Source\PSoC4/UART.c ****     }
 438:Generated_Source\PSoC4/UART.c **** #endif /* (!UART_CY_SCBIP_V1) */
 439:Generated_Source\PSoC4/UART.c ****     else
 440:Generated_Source\PSoC4/UART.c ****     {
 441:Generated_Source\PSoC4/UART.c ****         /* Unknown mode: do nothing */
 442:Generated_Source\PSoC4/UART.c ****     }
 443:Generated_Source\PSoC4/UART.c **** #elif (UART_SCB_MODE_I2C_CONST_CFG)
 444:Generated_Source\PSoC4/UART.c ****     UART_I2CStop();
 445:Generated_Source\PSoC4/UART.c **** 
 446:Generated_Source\PSoC4/UART.c **** #elif (UART_SCB_MODE_EZI2C_CONST_CFG)
 447:Generated_Source\PSoC4/UART.c ****     UART_EzI2CStop();
 448:Generated_Source\PSoC4/UART.c **** 
 449:Generated_Source\PSoC4/UART.c **** #elif (UART_SCB_MODE_SPI_CONST_CFG)
 450:Generated_Source\PSoC4/UART.c ****     UART_SpiStop();
 451:Generated_Source\PSoC4/UART.c **** 
 452:Generated_Source\PSoC4/UART.c **** #elif (UART_SCB_MODE_UART_CONST_CFG)
 453:Generated_Source\PSoC4/UART.c ****     UART_UartStop();
 515              		.loc 1 453 0
 516 0002 FFF7FEFF 		bl	UART_UartStop
ARM GAS  C:\Users\Daniela\AppData\Local\Temp\cchZygWd.s 			page 35


 517              	.LVL4:
 518              	.LBE25:
 519              	.LBE24:
 249:Generated_Source\PSoC4/UART.c **** 
 520              		.loc 1 249 0
 521 0006 044A     		ldr	r2, .L11
 264:Generated_Source\PSoC4/UART.c **** 
 522              		.loc 1 264 0
 523              		@ sp needed
 249:Generated_Source\PSoC4/UART.c **** 
 524              		.loc 1 249 0
 525 0008 1368     		ldr	r3, [r2]
 526 000a 5B00     		lsls	r3, r3, #1
 527 000c 5B08     		lsrs	r3, r3, #1
 528 000e 1360     		str	r3, [r2]
 259:Generated_Source\PSoC4/UART.c **** 
 529              		.loc 1 259 0
 530 0010 0022     		movs	r2, #0
 531 0012 024B     		ldr	r3, .L11+4
 532 0014 1A60     		str	r2, [r3]
 264:Generated_Source\PSoC4/UART.c **** 
 533              		.loc 1 264 0
 534 0016 10BD     		pop	{r4, pc}
 535              	.L12:
 536              		.align	2
 537              	.L11:
 538 0018 00002440 		.word	1076101120
 539 001c 880F2440 		.word	1076105096
 540              		.cfi_endproc
 541              	.LFE5:
 542              		.size	UART_Stop, .-UART_Stop
 543              		.section	.text.UART_SetRxFifoLevel,"ax",%progbits
 544              		.align	2
 545              		.global	UART_SetRxFifoLevel
 546              		.code	16
 547              		.thumb_func
 548              		.type	UART_SetRxFifoLevel, %function
 549              	UART_SetRxFifoLevel:
 550              	.LFB6:
 280:Generated_Source\PSoC4/UART.c ****     uint32 rxFifoCtrl;
 551              		.loc 1 280 0
 552              		.cfi_startproc
 553              		@ args = 0, pretend = 0, frame = 0
 554              		@ frame_needed = 0, uses_anonymous_args = 0
 555              		@ link register save eliminated.
 556              	.LVL5:
 285:Generated_Source\PSoC4/UART.c ****     rxFifoCtrl |= ((uint32) (UART_RX_FIFO_CTRL_TRIGGER_LEVEL_MASK & level));
 557              		.loc 1 285 0
 558 0000 0F21     		movs	r1, #15
 283:Generated_Source\PSoC4/UART.c **** 
 559              		.loc 1 283 0
 560 0002 034A     		ldr	r2, .L14
 286:Generated_Source\PSoC4/UART.c **** 
 561              		.loc 1 286 0
 562 0004 0840     		ands	r0, r1
 563              	.LVL6:
 283:Generated_Source\PSoC4/UART.c **** 
ARM GAS  C:\Users\Daniela\AppData\Local\Temp\cchZygWd.s 			page 36


 564              		.loc 1 283 0
 565 0006 1368     		ldr	r3, [r2]
 566              	.LVL7:
 289:Generated_Source\PSoC4/UART.c **** 
 567              		.loc 1 289 0
 568              		@ sp needed
 285:Generated_Source\PSoC4/UART.c ****     rxFifoCtrl |= ((uint32) (UART_RX_FIFO_CTRL_TRIGGER_LEVEL_MASK & level));
 569              		.loc 1 285 0
 570 0008 8B43     		bics	r3, r1
 571              	.LVL8:
 286:Generated_Source\PSoC4/UART.c **** 
 572              		.loc 1 286 0
 573 000a 1843     		orrs	r0, r3
 574              	.LVL9:
 288:Generated_Source\PSoC4/UART.c **** }
 575              		.loc 1 288 0
 576 000c 1060     		str	r0, [r2]
 289:Generated_Source\PSoC4/UART.c **** 
 577              		.loc 1 289 0
 578 000e 7047     		bx	lr
 579              	.L15:
 580              		.align	2
 581              	.L14:
 582 0010 04032440 		.word	1076101892
 583              		.cfi_endproc
 584              	.LFE6:
 585              		.size	UART_SetRxFifoLevel, .-UART_SetRxFifoLevel
 586              		.section	.text.UART_SetTxFifoLevel,"ax",%progbits
 587              		.align	2
 588              		.global	UART_SetTxFifoLevel
 589              		.code	16
 590              		.thumb_func
 591              		.type	UART_SetTxFifoLevel, %function
 592              	UART_SetTxFifoLevel:
 593              	.LFB7:
 305:Generated_Source\PSoC4/UART.c ****     uint32 txFifoCtrl;
 594              		.loc 1 305 0
 595              		.cfi_startproc
 596              		@ args = 0, pretend = 0, frame = 0
 597              		@ frame_needed = 0, uses_anonymous_args = 0
 598              		@ link register save eliminated.
 599              	.LVL10:
 310:Generated_Source\PSoC4/UART.c ****     txFifoCtrl |= ((uint32) (UART_TX_FIFO_CTRL_TRIGGER_LEVEL_MASK & level));
 600              		.loc 1 310 0
 601 0000 0F21     		movs	r1, #15
 308:Generated_Source\PSoC4/UART.c **** 
 602              		.loc 1 308 0
 603 0002 034A     		ldr	r2, .L17
 311:Generated_Source\PSoC4/UART.c **** 
 604              		.loc 1 311 0
 605 0004 0840     		ands	r0, r1
 606              	.LVL11:
 308:Generated_Source\PSoC4/UART.c **** 
 607              		.loc 1 308 0
 608 0006 1368     		ldr	r3, [r2]
 609              	.LVL12:
 314:Generated_Source\PSoC4/UART.c **** 
ARM GAS  C:\Users\Daniela\AppData\Local\Temp\cchZygWd.s 			page 37


 610              		.loc 1 314 0
 611              		@ sp needed
 310:Generated_Source\PSoC4/UART.c ****     txFifoCtrl |= ((uint32) (UART_TX_FIFO_CTRL_TRIGGER_LEVEL_MASK & level));
 612              		.loc 1 310 0
 613 0008 8B43     		bics	r3, r1
 614              	.LVL13:
 311:Generated_Source\PSoC4/UART.c **** 
 615              		.loc 1 311 0
 616 000a 1843     		orrs	r0, r3
 617              	.LVL14:
 313:Generated_Source\PSoC4/UART.c **** }
 618              		.loc 1 313 0
 619 000c 1060     		str	r0, [r2]
 314:Generated_Source\PSoC4/UART.c **** 
 620              		.loc 1 314 0
 621 000e 7047     		bx	lr
 622              	.L18:
 623              		.align	2
 624              	.L17:
 625 0010 04022440 		.word	1076101636
 626              		.cfi_endproc
 627              	.LFE7:
 628              		.size	UART_SetTxFifoLevel, .-UART_SetTxFifoLevel
 629              		.global	UART_IntrTxMask
 630              		.global	UART_initVar
 631              		.bss
 632              		.align	1
 633              		.set	.LANCHOR0,. + 0
 634              		.type	UART_initVar, %object
 635              		.size	UART_initVar, 1
 636              	UART_initVar:
 637 0000 00       		.space	1
 638 0001 00       		.space	1
 639              		.type	UART_IntrTxMask, %object
 640              		.size	UART_IntrTxMask, 2
 641              	UART_IntrTxMask:
 642 0002 0000     		.space	2
 643              		.text
 644              	.Letext0:
 645              		.file 2 "Generated_Source\\PSoC4/cytypes.h"
 646              		.file 3 "Generated_Source\\PSoC4\\UART_SPI_UART_PVT.h"