ARM GAS  C:\Users\Daniela\AppData\Local\Temp\cca3VOGj.s 			page 1


   1              		.syntax unified
   2              		.cpu cortex-m0
   3              		.fpu softvfp
   4              		.eabi_attribute 20, 1
   5              		.eabi_attribute 21, 1
   6              		.eabi_attribute 23, 3
   7              		.eabi_attribute 24, 1
   8              		.eabi_attribute 25, 1
   9              		.eabi_attribute 26, 1
  10              		.eabi_attribute 30, 6
  11              		.eabi_attribute 34, 0
  12              		.eabi_attribute 18, 4
  13              		.thumb
  14              		.syntax unified
  15              		.file	"app_Ble.c"
  16              		.text
  17              	.Ltext0:
  18              		.cfi_sections	.debug_frame
  19              		.comm	bleApiResult,2,2
  20              		.comm	count,4,4
  21              		.comm	mode,1,1
  22              		.global	mtuSize
  23              		.data
  24              		.align	1
  25              		.type	mtuSize, %object
  26              		.size	mtuSize, 2
  27              	mtuSize:
  28 0000 1700     		.short	23
  29              		.comm	cyBle_last_state,1,1
  30              		.section	.rodata
  31              		.align	2
  32              	.LC3:
  33 0000 0A0D2043 		.ascii	"\012\015 CYBLE_STATE_ADVERTISING \012\015 \000"
  33      59424C45 
  33      5F535441 
  33      54455F41 
  33      44564552 
  34 001f 00       		.align	2
  35              	.LC5:
  36 0020 0A0D2043 		.ascii	"\012\015 CYBLE_STATE_CONNECTED \012\015 \000"
  36      59424C45 
  36      5F535441 
  36      54455F43 
  36      4F4E4E45 
  37 003d 000000   		.align	2
  38              	.LC9:
  39 0040 0A0D2043 		.ascii	"\012\015 CYBLE_STATE_DISCONNECTED \012\015 \000"
  39      59424C45 
  39      5F535441 
  39      54455F44 
  39      4953434F 
  40              		.align	2
  41              	.LC11:
  42 0060 0A0D2043 		.ascii	"\012\015 CYBLE_STATE_INITIALIZING \012\015 \000"
  42      59424C45 
  42      5F535441 
  42      54455F49 
ARM GAS  C:\Users\Daniela\AppData\Local\Temp\cca3VOGj.s 			page 2


  42      4E495449 
  43              		.align	2
  44              	.LC13:
  45 0080 0A0D2043 		.ascii	"\012\015 CYBLE_STATE_STOPPED \012\015 \000"
  45      59424C45 
  45      5F535441 
  45      54455F53 
  45      544F5050 
  46              		.section	.text.HandleBleProcessing,"ax",%progbits
  47              		.align	2
  48              		.global	HandleBleProcessing
  49              		.code	16
  50              		.thumb_func
  51              		.type	HandleBleProcessing, %function
  52              	HandleBleProcessing:
  53              	.LFB35:
  54              		.file 1 "app_Ble.c"
   1:app_Ble.c     **** /*******************************************************************************
   2:app_Ble.c     **** * File Name: app_Ble.c
   3:app_Ble.c     **** *
   4:app_Ble.c     **** * Description:
   5:app_Ble.c     **** *  Common BLE application code for client devices.
   6:app_Ble.c     **** *
   7:app_Ble.c     **** *******************************************************************************
   8:app_Ble.c     **** * Copyright 2015, Cypress Semiconductor Corporation.  All rights reserved.
   9:app_Ble.c     **** * You may use this file only in accordance with the license, terms, conditions,
  10:app_Ble.c     **** * disclaimers, and limitations in the end user license agreement accompanying
  11:app_Ble.c     **** * the software package with which this file was provided.
  12:app_Ble.c     **** *******************************************************************************/
  13:app_Ble.c     **** 
  14:app_Ble.c     **** #include "app_ble.h"
  15:app_Ble.c     **** 
  16:app_Ble.c     **** /* MTU size to be used by Client and Server after MTU exchange */
  17:app_Ble.c     **** uint16 mtuSize      = CYBLE_GATT_MTU;   
  18:app_Ble.c     **** 
  19:app_Ble.c     **** 
  20:app_Ble.c     **** /*******************************************************************************
  21:app_Ble.c     **** * Function Name: HandleBleProcessing
  22:app_Ble.c     **** ********************************************************************************
  23:app_Ble.c     **** *
  24:app_Ble.c     **** * Summary:
  25:app_Ble.c     **** *   Handles the BLE state machine for intiating different procedures
  26:app_Ble.c     **** *   during different states of BLESS.
  27:app_Ble.c     **** *
  28:app_Ble.c     **** * Parameters:
  29:app_Ble.c     **** *   None.
  30:app_Ble.c     **** *
  31:app_Ble.c     **** * Return:
  32:app_Ble.c     **** *   None.
  33:app_Ble.c     **** *
  34:app_Ble.c     **** *******************************************************************************/
  35:app_Ble.c     **** 
  36:app_Ble.c     **** CYBLE_STATE_T cyBle_last_state;
  37:app_Ble.c     **** 
  38:app_Ble.c     **** void HandleBleProcessing(void)
  39:app_Ble.c     **** {    
  55              		.loc 1 39 0
ARM GAS  C:\Users\Daniela\AppData\Local\Temp\cca3VOGj.s 			page 3


  56              		.cfi_startproc
  57              		@ args = 0, pretend = 0, frame = 16
  58              		@ frame_needed = 1, uses_anonymous_args = 0
  59 0000 80B5     		push	{r7, lr}
  60              		.cfi_def_cfa_offset 8
  61              		.cfi_offset 7, -8
  62              		.cfi_offset 14, -4
  63 0002 84B0     		sub	sp, sp, #16
  64              		.cfi_def_cfa_offset 24
  65 0004 00AF     		add	r7, sp, #0
  66              		.cfi_def_cfa_register 7
  40:app_Ble.c     ****     uint8 txDataClientConfigDesc[2];
  41:app_Ble.c     ****    
  42:app_Ble.c     ****     CYBLE_GATT_HANDLE_VALUE_PAIR_T  attrValue = { 
  67              		.loc 1 42 0
  68 0006 3B00     		movs	r3, r7
  69 0008 0C22     		movs	r2, #12
  70 000a BA18     		adds	r2, r7, r2
  71 000c 1A60     		str	r2, [r3]
  72 000e 3B00     		movs	r3, r7
  73 0010 0222     		movs	r2, #2
  74 0012 9A80     		strh	r2, [r3, #4]
  75 0014 3B00     		movs	r3, r7
  76 0016 0222     		movs	r2, #2
  77 0018 DA80     		strh	r2, [r3, #6]
  78 001a 3B00     		movs	r3, r7
  79 001c 0F22     		movs	r2, #15
  80 001e 1A81     		strh	r2, [r3, #8]
  43:app_Ble.c     ****                                                     {(uint8 *)txDataClientConfigDesc, 2, 2}, 
  44:app_Ble.c     ****                                                     CYBLE_SERVER_UART_SERVER_UART_TX_DATA_CLIENT_CH
  45:app_Ble.c     ****                                                 };
  46:app_Ble.c     ****     switch (cyBle_state)
  81              		.loc 1 46 0
  82 0020 364B     		ldr	r3, .L21
  83 0022 1B78     		ldrb	r3, [r3]
  84 0024 042B     		cmp	r3, #4
  85 0026 58D8     		bhi	.L16
  86 0028 9A00     		lsls	r2, r3, #2
  87 002a 354B     		ldr	r3, .L21+4
  88 002c D318     		adds	r3, r2, r3
  89 002e 1B68     		ldr	r3, [r3]
  90 0030 9F46     		mov	pc, r3
  91              		.section	.rodata
  92 009b 00       		.align	2
  93              	.L4:
  94 009c C4000000 		.word	.L3
  95 00a0 AE000000 		.word	.L5
  96 00a4 48000000 		.word	.L6
  97 00a8 32000000 		.word	.L7
  98 00ac 82000000 		.word	.L8
  99              		.section	.text.HandleBleProcessing
 100              	.L7:
  47:app_Ble.c     ****     {
  48:app_Ble.c     ****         case CYBLE_STATE_ADVERTISING:
  49:app_Ble.c     ****         if (cyBle_last_state != cyBle_state) {
 101              		.loc 1 49 0
 102 0032 344B     		ldr	r3, .L21+8
ARM GAS  C:\Users\Daniela\AppData\Local\Temp\cca3VOGj.s 			page 4


 103 0034 1A78     		ldrb	r2, [r3]
 104 0036 314B     		ldr	r3, .L21
 105 0038 1B78     		ldrb	r3, [r3]
 106 003a 9A42     		cmp	r2, r3
 107 003c 4FD0     		beq	.L17
  50:app_Ble.c     ****             UART_UartPutString("\n\r CYBLE_STATE_ADVERTISING \n\r ");
 108              		.loc 1 50 0
 109 003e 324B     		ldr	r3, .L21+12
 110 0040 1800     		movs	r0, r3
 111 0042 FFF7FEFF 		bl	UART_UartPutString
  51:app_Ble.c     ****         }
  52:app_Ble.c     ****             break;
 112              		.loc 1 52 0
 113 0046 4AE0     		b	.L17
 114              	.L6:
  53:app_Ble.c     ****         
  54:app_Ble.c     ****         case CYBLE_STATE_CONNECTED:
  55:app_Ble.c     ****         if (cyBle_last_state != cyBle_state) {
 115              		.loc 1 55 0
 116 0048 2E4B     		ldr	r3, .L21+8
 117 004a 1A78     		ldrb	r2, [r3]
 118 004c 2B4B     		ldr	r3, .L21
 119 004e 1B78     		ldrb	r3, [r3]
 120 0050 9A42     		cmp	r2, r3
 121 0052 03D0     		beq	.L11
  56:app_Ble.c     ****             UART_UartPutString("\n\r CYBLE_STATE_CONNECTED \n\r ");
 122              		.loc 1 56 0
 123 0054 2D4B     		ldr	r3, .L21+16
 124 0056 1800     		movs	r0, r3
 125 0058 FFF7FEFF 		bl	UART_UartPutString
 126              	.L11:
  57:app_Ble.c     ****         }
  58:app_Ble.c     ****             /* read CCCD for TX characteristic for checking if notifications are enabled*/
  59:app_Ble.c     ****             CyBle_GattsReadAttributeValue(&attrValue, &cyBle_connHandle, CYBLE_GATT_DB_LOCALLY_INIT
 127              		.loc 1 59 0
 128 005c 2C49     		ldr	r1, .L21+20
 129 005e 3B00     		movs	r3, r7
 130 0060 0022     		movs	r2, #0
 131 0062 1800     		movs	r0, r3
 132 0064 FFF7FEFF 		bl	CyBle_GattsReadAttributeValue
  60:app_Ble.c     ****             
  61:app_Ble.c     ****             /* if stack is free, handle UART traffic */
  62:app_Ble.c     ****             if(CyBle_GattGetBusStatus() != CYBLE_STACK_STATE_BUSY)
 133              		.loc 1 62 0
 134 0068 2A4B     		ldr	r3, .L21+24
 135 006a 1B78     		ldrb	r3, [r3]
 136 006c DBB2     		uxtb	r3, r3
 137 006e 012B     		cmp	r3, #1
 138 0070 37D0     		beq	.L18
  63:app_Ble.c     ****             {
  64:app_Ble.c     ****                 HandleUartTxTraffic((uint16)txDataClientConfigDesc[0]);
 139              		.loc 1 64 0
 140 0072 0C23     		movs	r3, #12
 141 0074 FB18     		adds	r3, r7, r3
 142 0076 1B78     		ldrb	r3, [r3]
 143 0078 9BB2     		uxth	r3, r3
 144 007a 1800     		movs	r0, r3
ARM GAS  C:\Users\Daniela\AppData\Local\Temp\cca3VOGj.s 			page 5


 145 007c FFF7FEFF 		bl	HandleUartTxTraffic
  65:app_Ble.c     ****             }
  66:app_Ble.c     ****             break;
 146              		.loc 1 66 0
 147 0080 2FE0     		b	.L18
 148              	.L8:
  67:app_Ble.c     ****                 
  68:app_Ble.c     ****         case CYBLE_STATE_DISCONNECTED:
  69:app_Ble.c     ****             if (cyBle_last_state != cyBle_state) {
 149              		.loc 1 69 0
 150 0082 204B     		ldr	r3, .L21+8
 151 0084 1A78     		ldrb	r2, [r3]
 152 0086 1D4B     		ldr	r3, .L21
 153 0088 1B78     		ldrb	r3, [r3]
 154 008a 9A42     		cmp	r2, r3
 155 008c 03D0     		beq	.L13
  70:app_Ble.c     ****             UART_UartPutString("\n\r CYBLE_STATE_DISCONNECTED \n\r ");
 156              		.loc 1 70 0
 157 008e 224B     		ldr	r3, .L21+28
 158 0090 1800     		movs	r0, r3
 159 0092 FFF7FEFF 		bl	UART_UartPutString
 160              	.L13:
  71:app_Ble.c     ****             }
  72:app_Ble.c     ****             txDataClientConfigDesc[0] = NOTIFICATON_DISABLED;
 161              		.loc 1 72 0
 162 0096 0C23     		movs	r3, #12
 163 0098 FB18     		adds	r3, r7, r3
 164 009a 0022     		movs	r2, #0
 165 009c 1A70     		strb	r2, [r3]
  73:app_Ble.c     ****             txDataClientConfigDesc[1] = NOTIFICATON_DISABLED;
 166              		.loc 1 73 0
 167 009e 0C23     		movs	r3, #12
 168 00a0 FB18     		adds	r3, r7, r3
 169 00a2 0022     		movs	r2, #0
 170 00a4 5A70     		strb	r2, [r3, #1]
  74:app_Ble.c     ****             
  75:app_Ble.c     ****             CyBle_GappStartAdvertisement(CYBLE_ADVERTISING_FAST);
 171              		.loc 1 75 0
 172 00a6 0020     		movs	r0, #0
 173 00a8 FFF7FEFF 		bl	CyBle_GappStartAdvertisement
  76:app_Ble.c     **** 
  77:app_Ble.c     ****             break;
 174              		.loc 1 77 0
 175 00ac 1EE0     		b	.L10
 176              	.L5:
  78:app_Ble.c     ****        
  79:app_Ble.c     ****         case CYBLE_STATE_INITIALIZING:
  80:app_Ble.c     ****             if (cyBle_last_state != cyBle_state) {
 177              		.loc 1 80 0
 178 00ae 154B     		ldr	r3, .L21+8
 179 00b0 1A78     		ldrb	r2, [r3]
 180 00b2 124B     		ldr	r3, .L21
 181 00b4 1B78     		ldrb	r3, [r3]
 182 00b6 9A42     		cmp	r2, r3
 183 00b8 15D0     		beq	.L19
  81:app_Ble.c     ****             UART_UartPutString("\n\r CYBLE_STATE_INITIALIZING \n\r ");
 184              		.loc 1 81 0
ARM GAS  C:\Users\Daniela\AppData\Local\Temp\cca3VOGj.s 			page 6


 185 00ba 184B     		ldr	r3, .L21+32
 186 00bc 1800     		movs	r0, r3
 187 00be FFF7FEFF 		bl	UART_UartPutString
  82:app_Ble.c     ****             }
  83:app_Ble.c     ****             break;
 188              		.loc 1 83 0
 189 00c2 10E0     		b	.L19
 190              	.L3:
  84:app_Ble.c     ****         case CYBLE_STATE_STOPPED:
  85:app_Ble.c     ****             if (cyBle_last_state != cyBle_state) {
 191              		.loc 1 85 0
 192 00c4 0F4B     		ldr	r3, .L21+8
 193 00c6 1A78     		ldrb	r2, [r3]
 194 00c8 0C4B     		ldr	r3, .L21
 195 00ca 1B78     		ldrb	r3, [r3]
 196 00cc 9A42     		cmp	r2, r3
 197 00ce 0CD0     		beq	.L20
  86:app_Ble.c     ****             UART_UartPutString("\n\r CYBLE_STATE_STOPPED \n\r ");
 198              		.loc 1 86 0
 199 00d0 134B     		ldr	r3, .L21+36
 200 00d2 1800     		movs	r0, r3
 201 00d4 FFF7FEFF 		bl	UART_UartPutString
  87:app_Ble.c     ****             }
  88:app_Ble.c     ****             break;
 202              		.loc 1 88 0
 203 00d8 07E0     		b	.L20
 204              	.L16:
  89:app_Ble.c     ****         default:
  90:app_Ble.c     ****             break;       
 205              		.loc 1 90 0
 206 00da C046     		nop
 207 00dc 06E0     		b	.L10
 208              	.L17:
  52:app_Ble.c     ****         
 209              		.loc 1 52 0
 210 00de C046     		nop
 211 00e0 04E0     		b	.L10
 212              	.L18:
  66:app_Ble.c     ****                 
 213              		.loc 1 66 0
 214 00e2 C046     		nop
 215 00e4 02E0     		b	.L10
 216              	.L19:
  83:app_Ble.c     ****         case CYBLE_STATE_STOPPED:
 217              		.loc 1 83 0
 218 00e6 C046     		nop
 219 00e8 00E0     		b	.L10
 220              	.L20:
  88:app_Ble.c     ****         default:
 221              		.loc 1 88 0
 222 00ea C046     		nop
 223              	.L10:
  91:app_Ble.c     ****     }
  92:app_Ble.c     ****     cyBle_last_state = cyBle_state;
 224              		.loc 1 92 0
 225 00ec 034B     		ldr	r3, .L21
 226 00ee 1A78     		ldrb	r2, [r3]
ARM GAS  C:\Users\Daniela\AppData\Local\Temp\cca3VOGj.s 			page 7


 227 00f0 044B     		ldr	r3, .L21+8
 228 00f2 1A70     		strb	r2, [r3]
  93:app_Ble.c     **** }
 229              		.loc 1 93 0
 230 00f4 C046     		nop
 231 00f6 BD46     		mov	sp, r7
 232 00f8 04B0     		add	sp, sp, #16
 233              		@ sp needed
 234 00fa 80BD     		pop	{r7, pc}
 235              	.L22:
 236              		.align	2
 237              	.L21:
 238 00fc 00000000 		.word	cyBle_state
 239 0100 9C000000 		.word	.L4
 240 0104 00000000 		.word	cyBle_last_state
 241 0108 00000000 		.word	.LC3
 242 010c 20000000 		.word	.LC5
 243 0110 00000000 		.word	cyBle_connHandle
 244 0114 00000000 		.word	cyBle_busyStatus
 245 0118 40000000 		.word	.LC9
 246 011c 60000000 		.word	.LC11
 247 0120 80000000 		.word	.LC13
 248              		.cfi_endproc
 249              	.LFE35:
 250              		.size	HandleBleProcessing, .-HandleBleProcessing
 251              		.text
 252              	.Letext0:
 253              		.file 2 "Generated_Source\\PSoC4/cytypes.h"
 254              		.file 3 "Generated_Source\\PSoC4/BLE_Stack.h"
 255              		.file 4 "Generated_Source\\PSoC4/BLE_StackGatt.h"
 256              		.file 5 "Generated_Source\\PSoC4/BLE_eventHandler.h"
 257              		.file 6 "main.h"