ARM GAS  C:\Users\Daniela\AppData\Local\Temp\ccnl3bAL.s 			page 1


   1              		.syntax unified
   2              		.cpu cortex-m0
   3              		.fpu softvfp
   4              		.eabi_attribute 20, 1
   5              		.eabi_attribute 21, 1
   6              		.eabi_attribute 23, 3
   7              		.eabi_attribute 24, 1
   8              		.eabi_attribute 25, 1
   9              		.eabi_attribute 26, 1
  10              		.eabi_attribute 30, 6
  11              		.eabi_attribute 34, 0
  12              		.eabi_attribute 18, 4
  13              		.thumb
  14              		.syntax unified
  15              		.file	"BLE_gatt.c"
  16              		.text
  17              	.Ltext0:
  18              		.cfi_sections	.debug_frame
  19              		.comm	cyBle_state,1,1
  20              		.global	cyBle_gatts
  21              		.section	.rodata
  22              		.align	2
  23              		.type	cyBle_gatts, %object
  24              		.size	cyBle_gatts, 6
  25              	cyBle_gatts:
  26 0000 0800     		.short	8
  27 0002 0A00     		.short	10
  28 0004 0B00     		.short	11
  29              		.data
  30              		.align	2
  31              		.type	cyBle_attValues, %object
  32              		.size	cyBle_attValues, 66
  33              	cyBle_attValues:
  34 0000 53       		.byte	83
  35 0001 65       		.byte	101
  36 0002 6E       		.byte	110
  37 0003 73       		.byte	115
  38 0004 6F       		.byte	111
  39 0005 72       		.byte	114
  40 0006 5F       		.byte	95
  41 0007 53       		.byte	83
  42 0008 6C       		.byte	108
  43 0009 61       		.byte	97
  44 000a 76       		.byte	118
  45 000b 65       		.byte	101
  46 000c 00       		.byte	0
  47 000d 00       		.byte	0
  48 000e 06       		.byte	6
  49 000f 00       		.byte	0
  50 0010 18       		.byte	24
  51 0011 00       		.byte	0
  52 0012 00       		.byte	0
  53 0013 00       		.byte	0
  54 0014 64       		.byte	100
  55 0015 00       		.byte	0
  56 0016 00       		.byte	0
  57 0017 00       		.byte	0
ARM GAS  C:\Users\Daniela\AppData\Local\Temp\ccnl3bAL.s 			page 2


  58 0018 00       		.byte	0
  59 0019 00       		.byte	0
  60 001a 00       		.byte	0
  61 001b 00       		.byte	0
  62 001c 00       		.byte	0
  63 001d 00       		.byte	0
  64 001e 00       		.byte	0
  65 001f 00       		.byte	0
  66 0020 00       		.byte	0
  67 0021 00       		.byte	0
  68 0022 00       		.byte	0
  69 0023 00       		.byte	0
  70 0024 00       		.byte	0
  71 0025 00       		.byte	0
  72 0026 00       		.byte	0
  73 0027 00       		.byte	0
  74 0028 00       		.byte	0
  75 0029 00       		.byte	0
  76 002a 00       		.byte	0
  77 002b 00       		.byte	0
  78 002c 00       		.byte	0
  79 002d 00       		.byte	0
  80 002e 00       		.byte	0
  81 002f 00       		.byte	0
  82 0030 00       		.byte	0
  83 0031 00       		.byte	0
  84 0032 00       		.byte	0
  85 0033 00       		.byte	0
  86 0034 00       		.byte	0
  87 0035 00       		.byte	0
  88 0036 00       		.byte	0
  89 0037 00       		.byte	0
  90 0038 00       		.byte	0
  91 0039 00       		.byte	0
  92 003a 00       		.byte	0
  93 003b 00       		.byte	0
  94 003c 00       		.byte	0
  95 003d 00       		.byte	0
  96 003e 00       		.byte	0
  97 003f 00       		.byte	0
  98 0040 00       		.byte	0
  99 0041 00       		.byte	0
 100              		.comm	cyBle_attValuesCCCD,4,4
 101              		.global	cyBle_attUuid128
 102              		.section	.rodata
 103 0006 0000     		.align	2
 104              		.type	cyBle_attUuid128, %object
 105              		.size	cyBle_attUuid128, 48
 106              	cyBle_attUuid128:
 107 0008 31       		.byte	49
 108 0009 01       		.byte	1
 109 000a 9B       		.byte	-101
 110 000b 5F       		.byte	95
 111 000c 80       		.byte	-128
 112 000d 00       		.byte	0
 113 000e 00       		.byte	0
 114 000f 80       		.byte	-128
ARM GAS  C:\Users\Daniela\AppData\Local\Temp\ccnl3bAL.s 			page 3


 115 0010 00       		.byte	0
 116 0011 10       		.byte	16
 117 0012 00       		.byte	0
 118 0013 00       		.byte	0
 119 0014 D0       		.byte	-48
 120 0015 CD       		.byte	-51
 121 0016 03       		.byte	3
 122 0017 00       		.byte	0
 123 0018 31       		.byte	49
 124 0019 01       		.byte	1
 125 001a 9B       		.byte	-101
 126 001b 5F       		.byte	95
 127 001c 80       		.byte	-128
 128 001d 00       		.byte	0
 129 001e 00       		.byte	0
 130 001f 80       		.byte	-128
 131 0020 00       		.byte	0
 132 0021 10       		.byte	16
 133 0022 00       		.byte	0
 134 0023 00       		.byte	0
 135 0024 D1       		.byte	-47
 136 0025 CD       		.byte	-51
 137 0026 03       		.byte	3
 138 0027 00       		.byte	0
 139 0028 31       		.byte	49
 140 0029 01       		.byte	1
 141 002a 9B       		.byte	-101
 142 002b 5F       		.byte	95
 143 002c 80       		.byte	-128
 144 002d 00       		.byte	0
 145 002e 00       		.byte	0
 146 002f 80       		.byte	-128
 147 0030 00       		.byte	0
 148 0031 10       		.byte	16
 149 0032 00       		.byte	0
 150 0033 00       		.byte	0
 151 0034 D2       		.byte	-46
 152 0035 CD       		.byte	-51
 153 0036 03       		.byte	3
 154 0037 00       		.byte	0
 155              		.global	cyBle_attValuesLen
 156              		.data
 157 0042 0000     		.align	2
 158              		.type	cyBle_attValuesLen, %object
 159              		.size	cyBle_attValuesLen, 88
 160              	cyBle_attValuesLen:
 161 0044 0C00     		.short	12
 162 0046 0000     		.space	2
 163 0048 00000000 		.word	cyBle_attValues
 164 004c 0200     		.short	2
 165 004e 0000     		.space	2
 166 0050 0C000000 		.word	cyBle_attValues+12
 167 0054 0800     		.short	8
 168 0056 0000     		.space	2
 169 0058 0E000000 		.word	cyBle_attValues+14
 170 005c 0400     		.short	4
 171 005e 0000     		.space	2
ARM GAS  C:\Users\Daniela\AppData\Local\Temp\ccnl3bAL.s 			page 4


 172 0060 16000000 		.word	cyBle_attValues+22
 173 0064 0200     		.short	2
 174 0066 0000     		.space	2
 175 0068 00000000 		.word	cyBle_attValuesCCCD
 176 006c 1000     		.short	16
 177 006e 0000     		.space	2
 178 0070 00000000 		.word	cyBle_attUuid128
 179 0074 1000     		.short	16
 180 0076 0000     		.space	2
 181 0078 10000000 		.word	cyBle_attUuid128+16
 182 007c 1400     		.short	20
 183 007e 0000     		.space	2
 184 0080 1A000000 		.word	cyBle_attValues+26
 185 0084 0200     		.short	2
 186 0086 0000     		.space	2
 187 0088 02000000 		.word	cyBle_attValuesCCCD+2
 188 008c 1000     		.short	16
 189 008e 0000     		.space	2
 190 0090 20000000 		.word	cyBle_attUuid128+32
 191 0094 1400     		.short	20
 192 0096 0000     		.space	2
 193 0098 2E000000 		.word	cyBle_attValues+46
 194              		.global	cyBle_gattDB
 195              		.section	.rodata
 196              		.align	2
 197              		.type	cyBle_gattDB, %object
 198              		.size	cyBle_gattDB, 340
 199              	cyBle_gattDB:
 200 0038 0100     		.short	1
 201 003a 0028     		.short	10240
 202 003c 01000000 		.word	1
 203 0040 0700     		.short	7
 204 0042 0000     		.space	2
 205 0044 0018     		.short	6144
 206 0046 0000     		.space	2
 207 0048 00000000 		.word	0
 208 004c 0200     		.short	2
 209 004e 0328     		.short	10243
 210 0050 01000200 		.word	131073
 211 0054 0300     		.short	3
 212 0056 0000     		.space	2
 213 0058 002A     		.short	10752
 214 005a 0000     		.space	2
 215 005c 00000000 		.word	0
 216 0060 0300     		.short	3
 217 0062 002A     		.short	10752
 218 0064 01000201 		.word	16908289
 219 0068 0300     		.short	3
 220 006a 0000     		.space	2
 221 006c 0C00     		.short	12
 222 006e 0000     		.space	2
 223 0070 00000000 		.word	cyBle_attValuesLen
 224 0074 0400     		.short	4
 225 0076 0328     		.short	10243
 226 0078 01000200 		.word	131073
 227 007c 0500     		.short	5
 228 007e 0000     		.space	2
ARM GAS  C:\Users\Daniela\AppData\Local\Temp\ccnl3bAL.s 			page 5


 229 0080 012A     		.short	10753
 230 0082 0000     		.space	2
 231 0084 00000000 		.word	0
 232 0088 0500     		.short	5
 233 008a 012A     		.short	10753
 234 008c 01000201 		.word	16908289
 235 0090 0500     		.short	5
 236 0092 0000     		.space	2
 237 0094 0200     		.short	2
 238 0096 0000     		.space	2
 239 0098 08000000 		.word	cyBle_attValuesLen+8
 240 009c 0600     		.short	6
 241 009e 0328     		.short	10243
 242 00a0 01000200 		.word	131073
 243 00a4 0700     		.short	7
 244 00a6 0000     		.space	2
 245 00a8 042A     		.short	10756
 246 00aa 0000     		.space	2
 247 00ac 00000000 		.word	0
 248 00b0 0700     		.short	7
 249 00b2 042A     		.short	10756
 250 00b4 01000201 		.word	16908289
 251 00b8 0700     		.short	7
 252 00ba 0000     		.space	2
 253 00bc 0800     		.short	8
 254 00be 0000     		.space	2
 255 00c0 10000000 		.word	cyBle_attValuesLen+16
 256 00c4 0800     		.short	8
 257 00c6 0028     		.short	10240
 258 00c8 01000000 		.word	1
 259 00cc 0B00     		.short	11
 260 00ce 0000     		.space	2
 261 00d0 0118     		.short	6145
 262 00d2 0000     		.space	2
 263 00d4 00000000 		.word	0
 264 00d8 0900     		.short	9
 265 00da 0328     		.short	10243
 266 00dc 01002200 		.word	2228225
 267 00e0 0B00     		.short	11
 268 00e2 0000     		.space	2
 269 00e4 052A     		.short	10757
 270 00e6 0000     		.space	2
 271 00e8 00000000 		.word	0
 272 00ec 0A00     		.short	10
 273 00ee 052A     		.short	10757
 274 00f0 01002201 		.word	19005441
 275 00f4 0B00     		.short	11
 276 00f6 0000     		.space	2
 277 00f8 0400     		.short	4
 278 00fa 0000     		.space	2
 279 00fc 18000000 		.word	cyBle_attValuesLen+24
 280 0100 0B00     		.short	11
 281 0102 0229     		.short	10498
 282 0104 01010A01 		.word	17432833
 283 0108 0B00     		.short	11
 284 010a 0000     		.space	2
 285 010c 0200     		.short	2
ARM GAS  C:\Users\Daniela\AppData\Local\Temp\ccnl3bAL.s 			page 6


 286 010e 0000     		.space	2
 287 0110 20000000 		.word	cyBle_attValuesLen+32
 288 0114 0C00     		.short	12
 289 0116 0028     		.short	10240
 290 0118 01000008 		.word	134217729
 291 011c 1100     		.short	17
 292 011e 0000     		.space	2
 293 0120 1000     		.short	16
 294 0122 0000     		.space	2
 295 0124 28000000 		.word	cyBle_attValuesLen+40
 296 0128 0D00     		.short	13
 297 012a 0328     		.short	10243
 298 012c 01001000 		.word	1048577
 299 0130 0F00     		.short	15
 300 0132 0000     		.space	2
 301 0134 1000     		.short	16
 302 0136 0000     		.space	2
 303 0138 30000000 		.word	cyBle_attValuesLen+48
 304 013c 0E00     		.short	14
 305 013e D1CD     		.short	-12847
 306 0140 00001009 		.word	152043520
 307 0144 0F00     		.short	15
 308 0146 0000     		.space	2
 309 0148 1400     		.short	20
 310 014a 0000     		.space	2
 311 014c 38000000 		.word	cyBle_attValuesLen+56
 312 0150 0F00     		.short	15
 313 0152 0229     		.short	10498
 314 0154 01010A01 		.word	17432833
 315 0158 0F00     		.short	15
 316 015a 0000     		.space	2
 317 015c 0200     		.short	2
 318 015e 0000     		.space	2
 319 0160 40000000 		.word	cyBle_attValuesLen+64
 320 0164 1000     		.short	16
 321 0166 0328     		.short	10243
 322 0168 01000400 		.word	262145
 323 016c 1100     		.short	17
 324 016e 0000     		.space	2
 325 0170 1000     		.short	16
 326 0172 0000     		.space	2
 327 0174 48000000 		.word	cyBle_attValuesLen+72
 328 0178 1100     		.short	17
 329 017a D2CD     		.short	-12846
 330 017c 00010409 		.word	151257344
 331 0180 1100     		.short	17
 332 0182 0000     		.space	2
 333 0184 1400     		.short	20
 334 0186 0000     		.space	2
 335 0188 50000000 		.word	cyBle_attValuesLen+80
 336              		.section	.text.CyBle_GattsReInitGattDb,"ax",%progbits
 337              		.align	2
 338              		.global	CyBle_GattsReInitGattDb
 339              		.code	16
 340              		.thumb_func
 341              		.type	CyBle_GattsReInitGattDb, %function
 342              	CyBle_GattsReInitGattDb:
ARM GAS  C:\Users\Daniela\AppData\Local\Temp\ccnl3bAL.s 			page 7


 343              	.LFB2:
 344              		.file 1 "Generated_Source\\PSoC4\\BLE_gatt.c"
   1:Generated_Source\PSoC4/BLE_gatt.c **** /***************************************************************************//**
   2:Generated_Source\PSoC4/BLE_gatt.c **** * \file CYBLE_gatt.c
   3:Generated_Source\PSoC4/BLE_gatt.c **** * \version 3.40
   4:Generated_Source\PSoC4/BLE_gatt.c **** * 
   5:Generated_Source\PSoC4/BLE_gatt.c **** * \brief
   6:Generated_Source\PSoC4/BLE_gatt.c **** *  This file contains the source code for the GATT API of the BLE Component.
   7:Generated_Source\PSoC4/BLE_gatt.c **** * 
   8:Generated_Source\PSoC4/BLE_gatt.c **** ********************************************************************************
   9:Generated_Source\PSoC4/BLE_gatt.c **** * \copyright
  10:Generated_Source\PSoC4/BLE_gatt.c **** * Copyright 2014-2016, Cypress Semiconductor Corporation.  All rights reserved.
  11:Generated_Source\PSoC4/BLE_gatt.c **** * You may use this file only in accordance with the license, terms, conditions,
  12:Generated_Source\PSoC4/BLE_gatt.c **** * disclaimers, and limitations in the end user license agreement accompanying
  13:Generated_Source\PSoC4/BLE_gatt.c **** * the software package with which this file was provided.
  14:Generated_Source\PSoC4/BLE_gatt.c **** *******************************************************************************/
  15:Generated_Source\PSoC4/BLE_gatt.c **** 
  16:Generated_Source\PSoC4/BLE_gatt.c **** 
  17:Generated_Source\PSoC4/BLE_gatt.c **** #include "BLE_eventHandler.h"
  18:Generated_Source\PSoC4/BLE_gatt.c **** 
  19:Generated_Source\PSoC4/BLE_gatt.c **** 
  20:Generated_Source\PSoC4/BLE_gatt.c **** /***************************************
  21:Generated_Source\PSoC4/BLE_gatt.c **** * Global variables
  22:Generated_Source\PSoC4/BLE_gatt.c **** ***************************************/
  23:Generated_Source\PSoC4/BLE_gatt.c **** 
  24:Generated_Source\PSoC4/BLE_gatt.c **** CYBLE_STATE_T cyBle_state;
  25:Generated_Source\PSoC4/BLE_gatt.c **** 
  26:Generated_Source\PSoC4/BLE_gatt.c **** #if ((CYBLE_MODE_PROFILE) && (CYBLE_BONDING_REQUIREMENT == CYBLE_BONDING_YES))
  27:Generated_Source\PSoC4/BLE_gatt.c ****     
  28:Generated_Source\PSoC4/BLE_gatt.c **** #if(CYBLE_MODE_PROFILE)
  29:Generated_Source\PSoC4/BLE_gatt.c ****     #if defined(__ARMCC_VERSION)
  30:Generated_Source\PSoC4/BLE_gatt.c ****         CY_ALIGN(CYDEV_FLS_ROW_SIZE) const CY_BLE_FLASH_STORAGE cyBle_flashStorage CY_SECTION(".cy_
  31:Generated_Source\PSoC4/BLE_gatt.c ****     #elif defined (__GNUC__)
  32:Generated_Source\PSoC4/BLE_gatt.c ****         const CY_BLE_FLASH_STORAGE cyBle_flashStorage CY_SECTION(".cy_checksum_exclude")
  33:Generated_Source\PSoC4/BLE_gatt.c ****             CY_ALIGN(CYDEV_FLS_ROW_SIZE) =
  34:Generated_Source\PSoC4/BLE_gatt.c ****     #elif defined (__ICCARM__)
  35:Generated_Source\PSoC4/BLE_gatt.c ****         #pragma data_alignment=CY_FLASH_SIZEOF_ROW
  36:Generated_Source\PSoC4/BLE_gatt.c ****         #pragma location=".cy_checksum_exclude"
  37:Generated_Source\PSoC4/BLE_gatt.c ****         const CY_BLE_FLASH_STORAGE cyBle_flashStorage =
  38:Generated_Source\PSoC4/BLE_gatt.c ****     #endif  /* (__ARMCC_VERSION) */
  39:Generated_Source\PSoC4/BLE_gatt.c ****     {
  40:Generated_Source\PSoC4/BLE_gatt.c ****         { 0x00u, 0x00u, 0x00u, 0x00u, 0x00u, 0x00u, 0x00u, 0x00u, 0x00u, 0x00u, 0x00u, 0x00u, 0x00u
  41:Generated_Source\PSoC4/BLE_gatt.c ****         0x00u, 0x00u, 0x00u, 0x00u, 0x00u, 0x00u, 0x00u, 0x00u, 0x00u, 0x00u, 0x00u, 0x00u, 0x00u, 
  42:Generated_Source\PSoC4/BLE_gatt.c ****         0x00u, 0x00u, 0x00u, 0x00u, 0x00u, 0x00u, 0x00u, 0x00u, 0x00u, 0x00u, 0x00u, 0x00u, 0x00u, 
  43:Generated_Source\PSoC4/BLE_gatt.c ****         0x00u, 0x00u, 0x00u, 0x00u, 0x00u, 0x00u, 0x00u, 0x00u, 0x00u, 0x00u, 0x00u, 0x00u, 0x00u, 
  44:Generated_Source\PSoC4/BLE_gatt.c ****         0x00u, 0x00u, 0x00u, 0x00u, 0x00u, 0x00u, 0x00u, 0x00u, 0x00u, 0x00u, 0x00u, 0x00u, 0x00u, 
  45:Generated_Source\PSoC4/BLE_gatt.c ****         0x00u, 0x00u, 0x00u, 0x00u, 0x00u, 0x00u, 0x00u, 0x00u, 0x00u, 0x00u, 0x00u, 0x00u, 0x00u, 
  46:Generated_Source\PSoC4/BLE_gatt.c ****         0x00u, 0x00u, 0x00u, 0x00u, 0x00u, 0x00u, 0x00u, 0x00u, 0x00u, 0x00u, 0x00u, 0x00u, 0x00u, 
  47:Generated_Source\PSoC4/BLE_gatt.c ****         0x00u, 0x00u, 0x00u, 0x00u, 0x00u, 0x00u, 0x00u, 0x00u, 0x00u, 0x00u, 0x00u, 0x00u, 0x00u, 
  48:Generated_Source\PSoC4/BLE_gatt.c ****         0x00u, 0x00u, 0x00u, 0x00u, 0x00u, 0x00u, 0x00u, 0x00u, 0x00u, 0x00u, 0x00u, 0x00u, 0x00u, 
  49:Generated_Source\PSoC4/BLE_gatt.c ****         0x00u, 0x00u, 0x00u, 0x00u, 0x00u, 0x00u, 0x00u, 0x00u, 0x00u, 0x00u, 0x00u, 0x00u, 0x00u, 
  50:Generated_Source\PSoC4/BLE_gatt.c ****         0x00u, 0x00u, 0x00u, 0x00u, 0x00u, 0x00u, 0x00u, 0x00u, 0x00u, 0x00u, 0x00u, 0x00u, 0x00u, 
  51:Generated_Source\PSoC4/BLE_gatt.c ****         0x00u, 0x00u, 0x00u, 0x00u, 0x00u, 0x00u, 0x00u, 0x00u, 0x00u, 0x00u, 0x00u, 0x00u, 0x00u, 
  52:Generated_Source\PSoC4/BLE_gatt.c ****         0x00u, 0x00u, 0x00u, 0x00u, 0x00u, 0x00u, 0x00u, 0x00u, 0x00u, 0x00u, 0x00u, 0x00u, 0x00u, 
  53:Generated_Source\PSoC4/BLE_gatt.c ****         0x00u, 0x00u, 0x00u, 0x00u, 0x00u, 0x00u, 0x00u, 0x00u, 0x00u, 0x00u, 0x00u, 0x00u, 0x00u, 
  54:Generated_Source\PSoC4/BLE_gatt.c ****         0x00u, 0x00u, 0x00u, 0x00u, 0x00u, 0x00u, 0x00u, 0x00u, 0x00u, 0x00u, 0x00u, 0x00u, 0x00u, 
  55:Generated_Source\PSoC4/BLE_gatt.c ****         0x00u, 0x00u, 0x00u, 0x00u, 0x00u, 0x00u, 0x00u, 0x00u, 0x00u, 0x00u, 0x00u, 0x00u, 0x00u, 
ARM GAS  C:\Users\Daniela\AppData\Local\Temp\ccnl3bAL.s 			page 8


  56:Generated_Source\PSoC4/BLE_gatt.c ****         0x00u, 0x00u, 0x00u, 0x00u, 0x00u, 0x00u, 0x00u, 0x00u, 0x00u, 0x00u, 0x00u, 0x00u, 0x00u, 
  57:Generated_Source\PSoC4/BLE_gatt.c ****         0x00u, 0x00u, 0x00u, 0x00u, 0x00u, 0x00u, 0x00u, 0x00u, 0x00u, 0x00u, 0x00u, 0x00u, 0x00u, 
  58:Generated_Source\PSoC4/BLE_gatt.c ****         0x00u, 0x00u, 0x00u, 0x00u, 0x00u, 0x00u, 0x00u, 0x00u, 0x00u, 0x00u, 0x00u, 0x00u, 0x00u, 
  59:Generated_Source\PSoC4/BLE_gatt.c ****         0x00u, 0x00u, 0x00u, 0x00u, 0x00u, 0x00u, 0x00u, 0x00u, 0x00u, 0x00u, 0x00u, 0x00u, 0x00u, 
  60:Generated_Source\PSoC4/BLE_gatt.c ****         0x00u, 0x00u, 0x00u, 0x00u, 0x00u, 0x00u, 0x00u, 0x00u, 0x00u, 0x00u, 0x00u, 0x00u, 0x00u, 
  61:Generated_Source\PSoC4/BLE_gatt.c ****         0x00u, 0x00u, 0x00u, 0x00u, 0x00u, 0x00u, 0x00u, 0x00u, 0x00u, 0x00u, 0x00u, 0x00u, 0x00u, 
  62:Generated_Source\PSoC4/BLE_gatt.c ****         0x00u, 0x00u, 0x00u, 0x00u, 0x00u, 0x00u, 0x00u, 0x00u, 0x00u, 0x00u, 0x00u, 0x00u, 0x00u, 
  63:Generated_Source\PSoC4/BLE_gatt.c ****         0x00u, 0x00u, 0x00u, 0x00u, 0x00u, 0x00u, 0x00u, 0x00u, 0x00u, 0x00u, 0x00u, 0x00u, 0x00u, 
  64:Generated_Source\PSoC4/BLE_gatt.c ****         0x00u, 0x00u, 0x00u, 0x00u, 0x00u, 0x00u, 0x00u, 0x00u, 0x00u, 0x00u, 0x00u, 0x00u, 0x00u, 
  65:Generated_Source\PSoC4/BLE_gatt.c ****         0x00u, 0x00u, 0x00u, 0x00u, 0x00u, 0x00u, 0x00u, 0x00u, 0x00u, 0x00u, 0x00u, 0x00u, 0x00u, 
  66:Generated_Source\PSoC4/BLE_gatt.c ****         0x00u, 0x00u, 0x00u, 0x00u, 0x00u, 0x00u, 0x00u, 0x00u, 0x00u, 0x00u, 0x00u, 0x00u, 0x00u, 
  67:Generated_Source\PSoC4/BLE_gatt.c ****         0x00u, 0x00u, 0x00u, 0x00u, 0x00u, 0x00u, 0x00u, 0x00u, 0x00u, 0x00u, 0x00u, 0x00u, 0x00u, 
  68:Generated_Source\PSoC4/BLE_gatt.c ****         0x00u, 0x00u, 0x00u, 0x00u, 0x00u, 0x00u, 0x00u, 0x00u, 0x00u, 0x00u, 0x00u, 0x00u, 0x00u, 
  69:Generated_Source\PSoC4/BLE_gatt.c ****         0x00u, 0x00u, 0x00u, 0x00u, 0x00u, 0x00u, 0x00u, 0x00u, 0x00u, 0x00u, 0x00u, 0x00u, 0x00u, 
  70:Generated_Source\PSoC4/BLE_gatt.c ****         0x00u, 0x00u, 0x00u, 0x00u, 0x00u, 0x00u, 0x00u, 0x00u, 0x00u, 0x00u, 0x00u, 0x00u, 0x00u, 
  71:Generated_Source\PSoC4/BLE_gatt.c ****         0x00u, 0x00u, 0x00u, 0x00u, 0x00u, 0x00u, 0x00u, 0x00u, 0x00u, 0x00u, 0x00u, 0x00u, 0x00u, 
  72:Generated_Source\PSoC4/BLE_gatt.c ****         0x00u, 0x00u, 0x00u, 0x00u, 0x00u, 0x00u, 0x00u, 0x00u, 0x00u, 0x00u, 0x00u, 0x00u, 0x00u, 
  73:Generated_Source\PSoC4/BLE_gatt.c ****         0x00u, 0x00u, 0x00u, 0x00u, 0x00u, 0x00u, 0x00u, 0x00u, 0x00u, 0x00u, 0x00u, 0x00u, 0x00u, 
  74:Generated_Source\PSoC4/BLE_gatt.c ****         0x00u, 0x00u, 0x00u, 0x00u, 0x00u, 0x00u, 0x00u, 0x00u, 0x00u, 0x00u, 0x00u, 0x00u, 0x00u, 
  75:Generated_Source\PSoC4/BLE_gatt.c ****         0x00u, 0x00u, 0x00u, 0x00u, 0x00u, 0x00u, 0x00u, 0x00u, 0x00u, 0x00u, 0x00u, 0x00u, 0x00u, 
  76:Generated_Source\PSoC4/BLE_gatt.c ****         0x00u, 0x00u, 0x00u, 0x00u, 0x00u, 0x00u, 0x00u, 0x00u, 0x00u, 0x00u, 0x00u, 0x00u, 0x00u, 
  77:Generated_Source\PSoC4/BLE_gatt.c ****         0x00u, 0x00u, 0x00u, 0x00u, 0x00u, 0x00u, 0x00u, 0x00u, 0x00u, 0x00u, 0x00u, 0x00u, 0x00u, 
  78:Generated_Source\PSoC4/BLE_gatt.c ****         0x00u, 0x00u, 0x00u, 0x00u, 0x00u, 0x00u, 0x00u, 0x00u, 0x00u, 0x00u, 0x00u, 0x00u, 0x00u, 
  79:Generated_Source\PSoC4/BLE_gatt.c ****         0x00u, 0x00u, 0x00u, 0x00u, 0x00u, 0x00u, 0x00u, 0x00u, 0x00u, 0x00u }, 
  80:Generated_Source\PSoC4/BLE_gatt.c ****         {{
  81:Generated_Source\PSoC4/BLE_gatt.c ****             0x00u, 0x00u,
  82:Generated_Source\PSoC4/BLE_gatt.c ****             0x00u, 0x00u,
  83:Generated_Source\PSoC4/BLE_gatt.c ****         },
  84:Generated_Source\PSoC4/BLE_gatt.c ****         {
  85:Generated_Source\PSoC4/BLE_gatt.c ****             0x00u, 0x00u,
  86:Generated_Source\PSoC4/BLE_gatt.c ****             0x00u, 0x00u,
  87:Generated_Source\PSoC4/BLE_gatt.c ****         },
  88:Generated_Source\PSoC4/BLE_gatt.c ****         {
  89:Generated_Source\PSoC4/BLE_gatt.c ****             0x00u, 0x00u,
  90:Generated_Source\PSoC4/BLE_gatt.c ****             0x00u, 0x00u,
  91:Generated_Source\PSoC4/BLE_gatt.c ****         },
  92:Generated_Source\PSoC4/BLE_gatt.c ****         {
  93:Generated_Source\PSoC4/BLE_gatt.c ****             0x00u, 0x00u,
  94:Generated_Source\PSoC4/BLE_gatt.c ****             0x00u, 0x00u,
  95:Generated_Source\PSoC4/BLE_gatt.c ****         },
  96:Generated_Source\PSoC4/BLE_gatt.c ****         {
  97:Generated_Source\PSoC4/BLE_gatt.c ****             0x00u, 0x00u,
  98:Generated_Source\PSoC4/BLE_gatt.c ****             0x00u, 0x00u,
  99:Generated_Source\PSoC4/BLE_gatt.c ****         }}, 
 100:Generated_Source\PSoC4/BLE_gatt.c ****         0x04u, /* CYBLE_GATT_DB_CCCD_COUNT */ 
 101:Generated_Source\PSoC4/BLE_gatt.c ****         0x05u, /* CYBLE_GAP_MAX_BONDED_DEVICE */ 
 102:Generated_Source\PSoC4/BLE_gatt.c ****     };
 103:Generated_Source\PSoC4/BLE_gatt.c **** #endif /* (CYBLE_MODE_PROFILE) */
 104:Generated_Source\PSoC4/BLE_gatt.c **** 
 105:Generated_Source\PSoC4/BLE_gatt.c **** #endif  /* (CYBLE_MODE_PROFILE) && (CYBLE_BONDING_REQUIREMENT == CYBLE_BONDING_YES) */
 106:Generated_Source\PSoC4/BLE_gatt.c **** 
 107:Generated_Source\PSoC4/BLE_gatt.c **** #if(CYBLE_GATT_ROLE_SERVER)
 108:Generated_Source\PSoC4/BLE_gatt.c ****     
 109:Generated_Source\PSoC4/BLE_gatt.c ****     const CYBLE_GATTS_T cyBle_gatts =
 110:Generated_Source\PSoC4/BLE_gatt.c **** {
 111:Generated_Source\PSoC4/BLE_gatt.c ****     0x0008u,    /* Handle of the GATT service */
 112:Generated_Source\PSoC4/BLE_gatt.c ****     0x000Au,    /* Handle of the Service Changed characteristic */
ARM GAS  C:\Users\Daniela\AppData\Local\Temp\ccnl3bAL.s 			page 9


 113:Generated_Source\PSoC4/BLE_gatt.c ****     0x000Bu,    /* Handle of the Client Characteristic Configuration descriptor */
 114:Generated_Source\PSoC4/BLE_gatt.c **** };
 115:Generated_Source\PSoC4/BLE_gatt.c ****     
 116:Generated_Source\PSoC4/BLE_gatt.c ****     static uint8 cyBle_attValues[0x42u] = {
 117:Generated_Source\PSoC4/BLE_gatt.c ****     /* Device Name */
 118:Generated_Source\PSoC4/BLE_gatt.c ****     (uint8)'S', (uint8)'e', (uint8)'n', (uint8)'s', (uint8)'o', (uint8)'r', (uint8)'_', (uint8)'S',
 119:Generated_Source\PSoC4/BLE_gatt.c ****     (uint8)'a', (uint8)'v', (uint8)'e',
 120:Generated_Source\PSoC4/BLE_gatt.c **** 
 121:Generated_Source\PSoC4/BLE_gatt.c ****     /* Appearance */
 122:Generated_Source\PSoC4/BLE_gatt.c ****     0x00u, 0x00u,
 123:Generated_Source\PSoC4/BLE_gatt.c **** 
 124:Generated_Source\PSoC4/BLE_gatt.c ****     /* Peripheral Preferred Connection Parameters */
 125:Generated_Source\PSoC4/BLE_gatt.c ****     0x06u, 0x00u, 0x18u, 0x00u, 0x00u, 0x00u, 0x64u, 0x00u,
 126:Generated_Source\PSoC4/BLE_gatt.c **** 
 127:Generated_Source\PSoC4/BLE_gatt.c ****     /* Service Changed */
 128:Generated_Source\PSoC4/BLE_gatt.c ****     0x00u, 0x00u, 0x00u, 0x00u,
 129:Generated_Source\PSoC4/BLE_gatt.c **** 
 130:Generated_Source\PSoC4/BLE_gatt.c ****     /* Server_UART_Tx_data */
 131:Generated_Source\PSoC4/BLE_gatt.c ****     0x00u, 0x00u, 0x00u, 0x00u, 0x00u, 0x00u, 0x00u, 0x00u, 0x00u, 0x00u, 0x00u, 0x00u, 0x00u, 0x00
 132:Generated_Source\PSoC4/BLE_gatt.c ****     0x00u, 0x00u, 0x00u, 0x00u,
 133:Generated_Source\PSoC4/BLE_gatt.c **** 
 134:Generated_Source\PSoC4/BLE_gatt.c ****     /* Server_UART_Rx_data */
 135:Generated_Source\PSoC4/BLE_gatt.c ****     0x00u, 0x00u, 0x00u, 0x00u, 0x00u, 0x00u, 0x00u, 0x00u, 0x00u, 0x00u, 0x00u, 0x00u, 0x00u, 0x00
 136:Generated_Source\PSoC4/BLE_gatt.c ****     0x00u, 0x00u, 0x00u, 0x00u,
 137:Generated_Source\PSoC4/BLE_gatt.c **** 
 138:Generated_Source\PSoC4/BLE_gatt.c **** };
 139:Generated_Source\PSoC4/BLE_gatt.c **** #if(CYBLE_GATT_DB_CCCD_COUNT != 0u)
 140:Generated_Source\PSoC4/BLE_gatt.c **** uint8 cyBle_attValuesCCCD[CYBLE_GATT_DB_CCCD_COUNT];
 141:Generated_Source\PSoC4/BLE_gatt.c **** #endif /* CYBLE_GATT_DB_CCCD_COUNT != 0u */
 142:Generated_Source\PSoC4/BLE_gatt.c **** 
 143:Generated_Source\PSoC4/BLE_gatt.c **** const uint8 cyBle_attUuid128[][16u] = {
 144:Generated_Source\PSoC4/BLE_gatt.c ****     /* Server_UART */
 145:Generated_Source\PSoC4/BLE_gatt.c ****     { 0x31u, 0x01u, 0x9Bu, 0x5Fu, 0x80u, 0x00u, 0x00u, 0x80u, 0x00u, 0x10u, 0x00u, 0x00u, 0xD0u, 0x
 146:Generated_Source\PSoC4/BLE_gatt.c ****     /* Server_UART_Tx_data */
 147:Generated_Source\PSoC4/BLE_gatt.c ****     { 0x31u, 0x01u, 0x9Bu, 0x5Fu, 0x80u, 0x00u, 0x00u, 0x80u, 0x00u, 0x10u, 0x00u, 0x00u, 0xD1u, 0x
 148:Generated_Source\PSoC4/BLE_gatt.c ****     /* Server_UART_Rx_data */
 149:Generated_Source\PSoC4/BLE_gatt.c ****     { 0x31u, 0x01u, 0x9Bu, 0x5Fu, 0x80u, 0x00u, 0x00u, 0x80u, 0x00u, 0x10u, 0x00u, 0x00u, 0xD2u, 0x
 150:Generated_Source\PSoC4/BLE_gatt.c **** };
 151:Generated_Source\PSoC4/BLE_gatt.c **** 
 152:Generated_Source\PSoC4/BLE_gatt.c **** CYBLE_GATTS_ATT_GEN_VAL_LEN_T cyBle_attValuesLen[CYBLE_GATT_DB_ATT_VAL_COUNT] = {
 153:Generated_Source\PSoC4/BLE_gatt.c ****     { 0x000Cu, (void *)&cyBle_attValues[0] }, /* Device Name */
 154:Generated_Source\PSoC4/BLE_gatt.c ****     { 0x0002u, (void *)&cyBle_attValues[12] }, /* Appearance */
 155:Generated_Source\PSoC4/BLE_gatt.c ****     { 0x0008u, (void *)&cyBle_attValues[14] }, /* Peripheral Preferred Connection Parameters */
 156:Generated_Source\PSoC4/BLE_gatt.c ****     { 0x0004u, (void *)&cyBle_attValues[22] }, /* Service Changed */
 157:Generated_Source\PSoC4/BLE_gatt.c ****     { 0x0002u, (void *)&cyBle_attValuesCCCD[0] }, /* Client Characteristic Configuration */
 158:Generated_Source\PSoC4/BLE_gatt.c ****     { 0x0010u, (void *)&cyBle_attUuid128[0] }, /* Server_UART UUID */
 159:Generated_Source\PSoC4/BLE_gatt.c ****     { 0x0010u, (void *)&cyBle_attUuid128[1] }, /* Server_UART_Tx_data UUID */
 160:Generated_Source\PSoC4/BLE_gatt.c ****     { 0x0014u, (void *)&cyBle_attValues[26] }, /* Server_UART_Tx_data */
 161:Generated_Source\PSoC4/BLE_gatt.c ****     { 0x0002u, (void *)&cyBle_attValuesCCCD[2] }, /* Client Characteristic Configuration */
 162:Generated_Source\PSoC4/BLE_gatt.c ****     { 0x0010u, (void *)&cyBle_attUuid128[2] }, /* Server_UART_Rx_data UUID */
 163:Generated_Source\PSoC4/BLE_gatt.c ****     { 0x0014u, (void *)&cyBle_attValues[46] }, /* Server_UART_Rx_data */
 164:Generated_Source\PSoC4/BLE_gatt.c **** };
 165:Generated_Source\PSoC4/BLE_gatt.c **** 
 166:Generated_Source\PSoC4/BLE_gatt.c **** const CYBLE_GATTS_DB_T cyBle_gattDB[0x11u] = {
 167:Generated_Source\PSoC4/BLE_gatt.c ****     { 0x0001u, 0x2800u /* Primary service                     */, 0x00000001u /*        */, 0x0007u
 168:Generated_Source\PSoC4/BLE_gatt.c ****     { 0x0002u, 0x2803u /* Characteristic                      */, 0x00020001u /* rd     */, 0x0003u
 169:Generated_Source\PSoC4/BLE_gatt.c ****     { 0x0003u, 0x2A00u /* Device Name                         */, 0x01020001u /* rd     */, 0x0003u
ARM GAS  C:\Users\Daniela\AppData\Local\Temp\ccnl3bAL.s 			page 10


 170:Generated_Source\PSoC4/BLE_gatt.c ****     { 0x0004u, 0x2803u /* Characteristic                      */, 0x00020001u /* rd     */, 0x0005u
 171:Generated_Source\PSoC4/BLE_gatt.c ****     { 0x0005u, 0x2A01u /* Appearance                          */, 0x01020001u /* rd     */, 0x0005u
 172:Generated_Source\PSoC4/BLE_gatt.c ****     { 0x0006u, 0x2803u /* Characteristic                      */, 0x00020001u /* rd     */, 0x0007u
 173:Generated_Source\PSoC4/BLE_gatt.c ****     { 0x0007u, 0x2A04u /* Peripheral Preferred Connection Par */, 0x01020001u /* rd     */, 0x0007u
 174:Generated_Source\PSoC4/BLE_gatt.c ****     { 0x0008u, 0x2800u /* Primary service                     */, 0x00000001u /*        */, 0x000Bu
 175:Generated_Source\PSoC4/BLE_gatt.c ****     { 0x0009u, 0x2803u /* Characteristic                      */, 0x00220001u /* rd,ind */, 0x000Bu
 176:Generated_Source\PSoC4/BLE_gatt.c ****     { 0x000Au, 0x2A05u /* Service Changed                     */, 0x01220001u /* rd,ind */, 0x000Bu
 177:Generated_Source\PSoC4/BLE_gatt.c ****     { 0x000Bu, 0x2902u /* Client Characteristic Configuration */, 0x010A0101u /* rd,wr  */, 0x000Bu
 178:Generated_Source\PSoC4/BLE_gatt.c ****     { 0x000Cu, 0x2800u /* Primary service                     */, 0x08000001u /*        */, 0x0011u
 179:Generated_Source\PSoC4/BLE_gatt.c ****     { 0x000Du, 0x2803u /* Characteristic                      */, 0x00100001u /* ntf    */, 0x000Fu
 180:Generated_Source\PSoC4/BLE_gatt.c ****     { 0x000Eu, 0xCDD1u /* Server_UART_Tx_data                 */, 0x09100000u /* ntf    */, 0x000Fu
 181:Generated_Source\PSoC4/BLE_gatt.c ****     { 0x000Fu, 0x2902u /* Client Characteristic Configuration */, 0x010A0101u /* rd,wr  */, 0x000Fu
 182:Generated_Source\PSoC4/BLE_gatt.c ****     { 0x0010u, 0x2803u /* Characteristic                      */, 0x00040001u /* wwr    */, 0x0011u
 183:Generated_Source\PSoC4/BLE_gatt.c ****     { 0x0011u, 0xCDD2u /* Server_UART_Rx_data                 */, 0x09040100u /* wwr    */, 0x0011u
 184:Generated_Source\PSoC4/BLE_gatt.c **** };
 185:Generated_Source\PSoC4/BLE_gatt.c **** 
 186:Generated_Source\PSoC4/BLE_gatt.c **** 
 187:Generated_Source\PSoC4/BLE_gatt.c **** #endif /* (CYBLE_GATT_ROLE_SERVER) */
 188:Generated_Source\PSoC4/BLE_gatt.c **** 
 189:Generated_Source\PSoC4/BLE_gatt.c **** #if(CYBLE_GATT_ROLE_CLIENT)
 190:Generated_Source\PSoC4/BLE_gatt.c ****     
 191:Generated_Source\PSoC4/BLE_gatt.c **** CYBLE_CLIENT_STATE_T cyBle_clientState;
 192:Generated_Source\PSoC4/BLE_gatt.c **** CYBLE_GATTC_T cyBle_gattc;
 193:Generated_Source\PSoC4/BLE_gatt.c **** CYBLE_GATT_ATTR_HANDLE_RANGE_T cyBle_gattcDiscoveryRange;
 194:Generated_Source\PSoC4/BLE_gatt.c ****     
 195:Generated_Source\PSoC4/BLE_gatt.c **** #endif /* (CYBLE_GATT_ROLE_CLIENT) */
 196:Generated_Source\PSoC4/BLE_gatt.c **** 
 197:Generated_Source\PSoC4/BLE_gatt.c **** 
 198:Generated_Source\PSoC4/BLE_gatt.c **** #if(CYBLE_GATT_ROLE_SERVER)
 199:Generated_Source\PSoC4/BLE_gatt.c **** 
 200:Generated_Source\PSoC4/BLE_gatt.c **** /****************************************************************************** 
 201:Generated_Source\PSoC4/BLE_gatt.c **** * Function Name: CyBle_GattsReInitGattDb
 202:Generated_Source\PSoC4/BLE_gatt.c **** ***************************************************************************//**
 203:Generated_Source\PSoC4/BLE_gatt.c **** * 
 204:Generated_Source\PSoC4/BLE_gatt.c **** *  Reinitializes the GATT database.
 205:Generated_Source\PSoC4/BLE_gatt.c **** * 
 206:Generated_Source\PSoC4/BLE_gatt.c **** *  \return
 207:Generated_Source\PSoC4/BLE_gatt.c **** *  CYBLE_API_RESULT_T: A function result states if it succeeded or failed with
 208:Generated_Source\PSoC4/BLE_gatt.c **** *  error codes:
 209:Generated_Source\PSoC4/BLE_gatt.c **** 
 210:Generated_Source\PSoC4/BLE_gatt.c **** *  Errors codes                          | Description
 211:Generated_Source\PSoC4/BLE_gatt.c **** *  ------------                          | -----------
 212:Generated_Source\PSoC4/BLE_gatt.c **** *  CYBLE_ERROR_OK						 | GATT database was reinitialized successfully.
 213:Generated_Source\PSoC4/BLE_gatt.c **** *  CYBLE_ERROR_INVALID_STATE             | If the function is called in any state except CYBLE_STAT
 214:Generated_Source\PSoC4/BLE_gatt.c **** *  CYBLE_ERROR_INVALID_PARAMETER         | If the Database has zero entries or is a NULL pointer.
 215:Generated_Source\PSoC4/BLE_gatt.c **** * 
 216:Generated_Source\PSoC4/BLE_gatt.c **** ******************************************************************************/
 217:Generated_Source\PSoC4/BLE_gatt.c **** CYBLE_API_RESULT_T CyBle_GattsReInitGattDb(void)
 218:Generated_Source\PSoC4/BLE_gatt.c **** {
 345              		.loc 1 218 0
 346              		.cfi_startproc
 347              		@ args = 0, pretend = 0, frame = 8
 348              		@ frame_needed = 1, uses_anonymous_args = 0
 349 0000 90B5     		push	{r4, r7, lr}
 350              		.cfi_def_cfa_offset 12
 351              		.cfi_offset 4, -12
 352              		.cfi_offset 7, -8
ARM GAS  C:\Users\Daniela\AppData\Local\Temp\ccnl3bAL.s 			page 11


 353              		.cfi_offset 14, -4
 354 0002 83B0     		sub	sp, sp, #12
 355              		.cfi_def_cfa_offset 24
 356 0004 00AF     		add	r7, sp, #0
 357              		.cfi_def_cfa_register 7
 219:Generated_Source\PSoC4/BLE_gatt.c ****     CYBLE_API_RESULT_T apiResult;
 220:Generated_Source\PSoC4/BLE_gatt.c ****     
 221:Generated_Source\PSoC4/BLE_gatt.c ****     if(CyBle_GetState() == CYBLE_STATE_DISCONNECTED)
 358              		.loc 1 221 0
 359 0006 0C4B     		ldr	r3, .L5
 360 0008 1B78     		ldrb	r3, [r3]
 361 000a 042B     		cmp	r3, #4
 362 000c 09D1     		bne	.L2
 222:Generated_Source\PSoC4/BLE_gatt.c ****     {
 223:Generated_Source\PSoC4/BLE_gatt.c ****         apiResult = CyBle_GattsDbRegister(cyBle_gattDB, CYBLE_GATT_DB_INDEX_COUNT, CYBLE_GATT_DB_MA
 363              		.loc 1 223 0
 364 000e BC1D     		adds	r4, r7, #6
 365 0010 0A4B     		ldr	r3, .L5+4
 366 0012 1422     		movs	r2, #20
 367 0014 1121     		movs	r1, #17
 368 0016 1800     		movs	r0, r3
 369 0018 FFF7FEFF 		bl	CyBle_GattsDbRegister
 370 001c 0300     		movs	r3, r0
 371 001e 2380     		strh	r3, [r4]
 372 0020 03E0     		b	.L3
 373              	.L2:
 224:Generated_Source\PSoC4/BLE_gatt.c ****     }
 225:Generated_Source\PSoC4/BLE_gatt.c ****     else
 226:Generated_Source\PSoC4/BLE_gatt.c ****     {
 227:Generated_Source\PSoC4/BLE_gatt.c ****         apiResult = CYBLE_ERROR_INVALID_STATE;
 374              		.loc 1 227 0
 375 0022 BB1D     		adds	r3, r7, #6
 376 0024 0422     		movs	r2, #4
 377 0026 FF32     		adds	r2, r2, #255
 378 0028 1A80     		strh	r2, [r3]
 379              	.L3:
 228:Generated_Source\PSoC4/BLE_gatt.c ****     }
 229:Generated_Source\PSoC4/BLE_gatt.c ****     
 230:Generated_Source\PSoC4/BLE_gatt.c ****     return(apiResult);
 380              		.loc 1 230 0
 381 002a BB1D     		adds	r3, r7, #6
 382 002c 1B88     		ldrh	r3, [r3]
 231:Generated_Source\PSoC4/BLE_gatt.c **** }
 383              		.loc 1 231 0
 384 002e 1800     		movs	r0, r3
 385 0030 BD46     		mov	sp, r7
 386 0032 03B0     		add	sp, sp, #12
 387              		@ sp needed
 388 0034 90BD     		pop	{r4, r7, pc}
 389              	.L6:
 390 0036 C046     		.align	2
 391              	.L5:
 392 0038 00000000 		.word	cyBle_state
 393 003c 00000000 		.word	cyBle_gattDB
 394              		.cfi_endproc
 395              	.LFE2:
 396              		.size	CyBle_GattsReInitGattDb, .-CyBle_GattsReInitGattDb
ARM GAS  C:\Users\Daniela\AppData\Local\Temp\ccnl3bAL.s 			page 12


 397              		.section	.text.CyBle_GattsWriteEventHandler,"ax",%progbits
 398              		.align	2
 399              		.global	CyBle_GattsWriteEventHandler
 400              		.code	16
 401              		.thumb_func
 402              		.type	CyBle_GattsWriteEventHandler, %function
 403              	CyBle_GattsWriteEventHandler:
 404              	.LFB3:
 232:Generated_Source\PSoC4/BLE_gatt.c **** 
 233:Generated_Source\PSoC4/BLE_gatt.c **** 
 234:Generated_Source\PSoC4/BLE_gatt.c **** /****************************************************************************** 
 235:Generated_Source\PSoC4/BLE_gatt.c **** * Function Name: CyBle_GattsWriteEventHandler
 236:Generated_Source\PSoC4/BLE_gatt.c **** ***************************************************************************//**
 237:Generated_Source\PSoC4/BLE_gatt.c **** * 
 238:Generated_Source\PSoC4/BLE_gatt.c **** *  Handles the Write Request Event for GATT service.
 239:Generated_Source\PSoC4/BLE_gatt.c **** * 
 240:Generated_Source\PSoC4/BLE_gatt.c **** *  \param eventParam: The pointer to the data structure specified by the event.
 241:Generated_Source\PSoC4/BLE_gatt.c **** * 
 242:Generated_Source\PSoC4/BLE_gatt.c **** *  \return
 243:Generated_Source\PSoC4/BLE_gatt.c **** *  CYBLE_GATT_ERR_CODE_T: A function returns one of the following status 
 244:Generated_Source\PSoC4/BLE_gatt.c **** *  values.
 245:Generated_Source\PSoC4/BLE_gatt.c **** 
 246:Generated_Source\PSoC4/BLE_gatt.c **** *  Errors codes                          | Description
 247:Generated_Source\PSoC4/BLE_gatt.c **** *  --------------------                  | -----------
 248:Generated_Source\PSoC4/BLE_gatt.c **** *  CYBLE_GATT_ERR_NONE                   | Write is successful.
 249:Generated_Source\PSoC4/BLE_gatt.c **** * 
 250:Generated_Source\PSoC4/BLE_gatt.c **** ******************************************************************************/
 251:Generated_Source\PSoC4/BLE_gatt.c **** CYBLE_GATT_ERR_CODE_T CyBle_GattsWriteEventHandler(CYBLE_GATTS_WRITE_REQ_PARAM_T *eventParam)
 252:Generated_Source\PSoC4/BLE_gatt.c **** {
 405              		.loc 1 252 0
 406              		.cfi_startproc
 407              		@ args = 0, pretend = 0, frame = 16
 408              		@ frame_needed = 1, uses_anonymous_args = 0
 409 0000 90B5     		push	{r4, r7, lr}
 410              		.cfi_def_cfa_offset 12
 411              		.cfi_offset 4, -12
 412              		.cfi_offset 7, -8
 413              		.cfi_offset 14, -4
 414 0002 85B0     		sub	sp, sp, #20
 415              		.cfi_def_cfa_offset 32
 416 0004 00AF     		add	r7, sp, #0
 417              		.cfi_def_cfa_register 7
 418 0006 7860     		str	r0, [r7, #4]
 253:Generated_Source\PSoC4/BLE_gatt.c ****     CYBLE_GATT_ERR_CODE_T gattErr = CYBLE_GATT_ERR_NONE;
 419              		.loc 1 253 0
 420 0008 0F23     		movs	r3, #15
 421 000a FB18     		adds	r3, r7, r3
 422 000c 0022     		movs	r2, #0
 423 000e 1A70     		strb	r2, [r3]
 254:Generated_Source\PSoC4/BLE_gatt.c ****     
 255:Generated_Source\PSoC4/BLE_gatt.c ****     /* Client Characteristic Configuration descriptor write request */
 256:Generated_Source\PSoC4/BLE_gatt.c ****     if(eventParam->handleValPair.attrHandle == cyBle_gatts.cccdHandle)
 424              		.loc 1 256 0
 425 0010 7B68     		ldr	r3, [r7, #4]
 426 0012 9B89     		ldrh	r3, [r3, #12]
 427 0014 0B22     		movs	r2, #11
 428 0016 9342     		cmp	r3, r2
ARM GAS  C:\Users\Daniela\AppData\Local\Temp\ccnl3bAL.s 			page 13


 429 0018 32D1     		bne	.L8
 257:Generated_Source\PSoC4/BLE_gatt.c ****     {
 258:Generated_Source\PSoC4/BLE_gatt.c ****         /* Store value to database */
 259:Generated_Source\PSoC4/BLE_gatt.c ****         gattErr = CyBle_GattsWriteAttributeValue(&eventParam->handleValPair, 0u, 
 430              		.loc 1 259 0
 431 001a 7B68     		ldr	r3, [r7, #4]
 432 001c 181D     		adds	r0, r3, #4
 433 001e 7A68     		ldr	r2, [r7, #4]
 434 0020 0F23     		movs	r3, #15
 435 0022 FC18     		adds	r4, r7, r3
 436 0024 4023     		movs	r3, #64
 437 0026 0021     		movs	r1, #0
 438 0028 FFF7FEFF 		bl	CyBle_GattsWriteAttributeValue
 439 002c 0300     		movs	r3, r0
 440 002e 2370     		strb	r3, [r4]
 260:Generated_Source\PSoC4/BLE_gatt.c ****                         &eventParam->connHandle, CYBLE_GATT_DB_PEER_INITIATED);
 261:Generated_Source\PSoC4/BLE_gatt.c ****         
 262:Generated_Source\PSoC4/BLE_gatt.c ****         if(gattErr == CYBLE_GATT_ERR_NONE)
 441              		.loc 1 262 0
 442 0030 0F23     		movs	r3, #15
 443 0032 FB18     		adds	r3, r7, r3
 444 0034 1B78     		ldrb	r3, [r3]
 445 0036 002B     		cmp	r3, #0
 446 0038 1AD1     		bne	.L9
 263:Generated_Source\PSoC4/BLE_gatt.c ****         {
 264:Generated_Source\PSoC4/BLE_gatt.c ****             if(CYBLE_IS_INDICATION_ENABLED_IN_PTR(eventParam->handleValPair.value.val))
 447              		.loc 1 264 0
 448 003a 7B68     		ldr	r3, [r7, #4]
 449 003c 5B68     		ldr	r3, [r3, #4]
 450 003e 1800     		movs	r0, r3
 451 0040 FFF7FEFF 		bl	CyBle_Get16ByPtr
 452 0044 0300     		movs	r3, r0
 453 0046 1A00     		movs	r2, r3
 454 0048 0223     		movs	r3, #2
 455 004a 1340     		ands	r3, r2
 456 004c 9BB2     		uxth	r3, r3
 457 004e 002B     		cmp	r3, #0
 458 0050 07D0     		beq	.L10
 265:Generated_Source\PSoC4/BLE_gatt.c ****             {
 266:Generated_Source\PSoC4/BLE_gatt.c ****                 CyBle_ApplCallback((uint32)CYBLE_EVT_GATTS_INDICATION_ENABLED, eventParam);
 459              		.loc 1 266 0
 460 0052 0F4B     		ldr	r3, .L12
 461 0054 1B68     		ldr	r3, [r3]
 462 0056 7968     		ldr	r1, [r7, #4]
 463 0058 8222     		movs	r2, #130
 464 005a 5200     		lsls	r2, r2, #1
 465 005c 1000     		movs	r0, r2
 466 005e 9847     		blx	r3
 467 0060 06E0     		b	.L9
 468              	.L10:
 267:Generated_Source\PSoC4/BLE_gatt.c ****             }
 268:Generated_Source\PSoC4/BLE_gatt.c ****             else
 269:Generated_Source\PSoC4/BLE_gatt.c ****             {
 270:Generated_Source\PSoC4/BLE_gatt.c ****                 CyBle_ApplCallback((uint32)CYBLE_EVT_GATTS_INDICATION_DISABLED, eventParam);
 469              		.loc 1 270 0
 470 0062 0B4B     		ldr	r3, .L12
 471 0064 1B68     		ldr	r3, [r3]
ARM GAS  C:\Users\Daniela\AppData\Local\Temp\ccnl3bAL.s 			page 14


 472 0066 7968     		ldr	r1, [r7, #4]
 473 0068 0622     		movs	r2, #6
 474 006a FF32     		adds	r2, r2, #255
 475 006c 1000     		movs	r0, r2
 476 006e 9847     		blx	r3
 477              	.L9:
 271:Generated_Source\PSoC4/BLE_gatt.c ****             }
 272:Generated_Source\PSoC4/BLE_gatt.c ****         }
 273:Generated_Source\PSoC4/BLE_gatt.c ****         cyBle_eventHandlerFlag &= (uint8)~CYBLE_CALLBACK;
 478              		.loc 1 273 0
 479 0070 084B     		ldr	r3, .L12+4
 480 0072 1B78     		ldrb	r3, [r3]
 481 0074 DBB2     		uxtb	r3, r3
 482 0076 0122     		movs	r2, #1
 483 0078 9343     		bics	r3, r2
 484 007a DAB2     		uxtb	r2, r3
 485 007c 054B     		ldr	r3, .L12+4
 486 007e 1A70     		strb	r2, [r3]
 487              	.L8:
 274:Generated_Source\PSoC4/BLE_gatt.c ****     }
 275:Generated_Source\PSoC4/BLE_gatt.c ****     return (gattErr);
 488              		.loc 1 275 0
 489 0080 0F23     		movs	r3, #15
 490 0082 FB18     		adds	r3, r7, r3
 491 0084 1B78     		ldrb	r3, [r3]
 276:Generated_Source\PSoC4/BLE_gatt.c **** }
 492              		.loc 1 276 0
 493 0086 1800     		movs	r0, r3
 494 0088 BD46     		mov	sp, r7
 495 008a 05B0     		add	sp, sp, #20
 496              		@ sp needed
 497 008c 90BD     		pop	{r4, r7, pc}
 498              	.L13:
 499 008e C046     		.align	2
 500              	.L12:
 501 0090 00000000 		.word	CyBle_ApplCallback
 502 0094 00000000 		.word	cyBle_eventHandlerFlag
 503              		.cfi_endproc
 504              	.LFE3:
 505              		.size	CyBle_GattsWriteEventHandler, .-CyBle_GattsWriteEventHandler
 506              		.text
 507              	.Letext0:
 508              		.file 2 "Generated_Source\\PSoC4\\cytypes.h"
 509              		.file 3 "Generated_Source\\PSoC4\\BLE_Stack.h"
 510              		.file 4 "Generated_Source\\PSoC4\\BLE_StackGatt.h"
 511              		.file 5 "Generated_Source\\PSoC4\\BLE_StackGattServer.h"
 512              		.file 6 "Generated_Source\\PSoC4\\BLE_StackGattDb.h"
 513              		.file 7 "Generated_Source\\PSoC4\\BLE.h"
 514              		.file 8 "Generated_Source\\PSoC4\\BLE_gatt.h"
 515              		.file 9 "Generated_Source\\PSoC4\\BLE_eventHandler.h"